GAS LISTING /tmp/ccjSVICa.s 			page 1


   1              		.file	"printing.cpp"
   2              		.option pic
   3              		.option norelax
   4              		.text
   5              	.Ltext0:
   6              		.align	2
   7              		.globl	_Z11printStringPKc
   9              	_Z11printStringPKc:
  10              	.LFB0:
  11              		.file 1 "tests/printing.cpp"
   1:tests/printing.cpp **** //
   2:tests/printing.cpp **** // Created by os on 5/18/22.
   3:tests/printing.cpp **** //
   4:tests/printing.cpp **** 
   5:tests/printing.cpp **** #include "printing.hpp"
   6:tests/printing.cpp **** 
   7:tests/printing.cpp **** uint64 lockPrint = 0;
   8:tests/printing.cpp **** 
   9:tests/printing.cpp **** #define LOCK() while(copy_and_swap(lockPrint, 0, 1)) thread_dispatch()
  10:tests/printing.cpp **** #define UNLOCK() while(copy_and_swap(lockPrint, 1, 0))
  11:tests/printing.cpp **** 
  12:tests/printing.cpp **** void printString(char const *string)
  13:tests/printing.cpp **** {
  12              		.loc 1 13 1
  13              		.cfi_startproc
  14              	.LVL0:
  15 0000 130101FE 		addi	sp,sp,-32
  16              		.cfi_def_cfa_offset 32
  17 0004 233C1100 		sd	ra,24(sp)
  18 0008 23388100 		sd	s0,16(sp)
  19 000c 23349100 		sd	s1,8(sp)
  20              		.cfi_offset 1, -8
  21              		.cfi_offset 8, -16
  22              		.cfi_offset 9, -24
  23 0010 13040102 		addi	s0,sp,32
  24              		.cfi_def_cfa 8, 0
  25 0014 93040500 		mv	s1,a0
  26              	.LVL1:
  27              	.L3:
  14:tests/printing.cpp ****     while (*string != '\0')
  28              		.loc 1 14 5
  29              		.loc 1 14 20
  30              		.loc 1 14 12 is_stmt 0
  31 0018 03C50400 		lbu	a0,0(s1)
  32              		.loc 1 14 20
  33 001c 630A0500 		beqz	a0,.L1
  15:tests/printing.cpp ****     {
  16:tests/printing.cpp ****         putc(*string);
  34              		.loc 1 16 9 is_stmt 1
  35              		.loc 1 16 13 is_stmt 0
  36 0020 97000000 		call	_Z4putcc@plt
  36      E7800000 
  37              	.LVL2:
  17:tests/printing.cpp ****         string++;
  38              		.loc 1 17 9 is_stmt 1
  39              		.loc 1 17 15 is_stmt 0
  40 0028 93841400 		addi	s1,s1,1
GAS LISTING /tmp/ccjSVICa.s 			page 2


  41              	.LVL3:
  14:tests/printing.cpp ****     while (*string != '\0')
  42              		.loc 1 14 5
  43 002c 6FF0DFFE 		j	.L3
  44              	.L1:
  18:tests/printing.cpp ****     }
  19:tests/printing.cpp **** }
  45              		.loc 1 19 1
  46 0030 83308101 		ld	ra,24(sp)
  47              		.cfi_restore 1
  48 0034 03340101 		ld	s0,16(sp)
  49              		.cfi_restore 8
  50              		.cfi_def_cfa 2, 32
  51 0038 83348100 		ld	s1,8(sp)
  52              		.cfi_restore 9
  53              	.LVL4:
  54 003c 13010102 		addi	sp,sp,32
  55              		.cfi_def_cfa_offset 0
  56 0040 67800000 		jr	ra
  57              		.cfi_endproc
  58              	.LFE0:
  60              		.align	2
  61              		.globl	_Z9getStringPci
  63              	_Z9getStringPci:
  64              	.LFB1:
  20:tests/printing.cpp **** 
  21:tests/printing.cpp **** char* getString(char *buf, int max) {
  65              		.loc 1 21 37 is_stmt 1
  66              		.cfi_startproc
  67              	.LVL5:
  68 0044 130101FD 		addi	sp,sp,-48
  69              		.cfi_def_cfa_offset 48
  70 0048 23341102 		sd	ra,40(sp)
  71 004c 23308102 		sd	s0,32(sp)
  72 0050 233C9100 		sd	s1,24(sp)
  73 0054 23382101 		sd	s2,16(sp)
  74 0058 23343101 		sd	s3,8(sp)
  75 005c 23304101 		sd	s4,0(sp)
  76              		.cfi_offset 1, -8
  77              		.cfi_offset 8, -16
  78              		.cfi_offset 9, -24
  79              		.cfi_offset 18, -32
  80              		.cfi_offset 19, -40
  81              		.cfi_offset 20, -48
  82 0060 13040103 		addi	s0,sp,48
  83              		.cfi_def_cfa 8, 0
  84 0064 93090500 		mv	s3,a0
  85 0068 138A0500 		mv	s4,a1
  22:tests/printing.cpp ****     int i, cc;
  86              		.loc 1 22 5
  23:tests/printing.cpp ****     char c;
  87              		.loc 1 23 5
  24:tests/printing.cpp **** 
  25:tests/printing.cpp ****     for(i=0; i+1 < max; ){
  88              		.loc 1 25 5
  89              	.LVL6:
  90              		.loc 1 25 10 is_stmt 0
GAS LISTING /tmp/ccjSVICa.s 			page 3


  91 006c 13090000 		li	s2,0
  92              	.LVL7:
  93              	.L7:
  94              		.loc 1 25 18 is_stmt 1 discriminator 1
  95 0070 93040900 		mv	s1,s2
  96              		.loc 1 25 15 is_stmt 0 discriminator 1
  97 0074 1B091900 		addiw	s2,s2,1
  98              	.LVL8:
  99              		.loc 1 25 18 discriminator 1
 100 0078 635A4903 		bge	s2,s4,.L6
  26:tests/printing.cpp ****         cc = getc();
 101              		.loc 1 26 9 is_stmt 1
 102              		.loc 1 26 18 is_stmt 0
 103 007c 97000000 		call	_Z4getcv@plt
 103      E7800000 
 104              	.LVL9:
  27:tests/printing.cpp ****         if(cc < 1)
 105              		.loc 1 27 9 is_stmt 1
 106 0084 63040502 		beqz	a0,.L6
  28:tests/printing.cpp ****             break;
  29:tests/printing.cpp ****         c = cc;
 107              		.loc 1 29 9
 108              	.LVL10:
  30:tests/printing.cpp ****         buf[i++] = c;
 109              		.loc 1 30 9
 110              		.loc 1 30 16 is_stmt 0
 111 0088 B3849900 		add	s1,s3,s1
 112              		.loc 1 30 18
 113 008c 2380A400 		sb	a0,0(s1)
  31:tests/printing.cpp ****         if(c == '\n' || c == '\r')
 114              		.loc 1 31 9 is_stmt 1
 115 0090 9307A000 		li	a5,10
 116 0094 630AF500 		beq	a0,a5,.L8
 117              		.loc 1 31 22 is_stmt 0 discriminator 1
 118 0098 9307D000 		li	a5,13
 119 009c E31AF5FC 		bne	a0,a5,.L7
  30:tests/printing.cpp ****         buf[i++] = c;
 120              		.loc 1 30 14
 121 00a0 93040900 		mv	s1,s2
 122 00a4 6F008000 		j	.L6
 123              	.L8:
 124 00a8 93040900 		mv	s1,s2
 125              	.LVL11:
 126              	.L6:
  32:tests/printing.cpp ****             break;
  33:tests/printing.cpp ****     }
  34:tests/printing.cpp ****     buf[i] = '\0';
 127              		.loc 1 34 5 is_stmt 1
 128              		.loc 1 34 10 is_stmt 0
 129 00ac B3849900 		add	s1,s3,s1
 130              	.LVL12:
 131              		.loc 1 34 12
 132 00b0 23800400 		sb	zero,0(s1)
  35:tests/printing.cpp ****     return buf;
 133              		.loc 1 35 5 is_stmt 1
  36:tests/printing.cpp **** }
 134              		.loc 1 36 1 is_stmt 0
GAS LISTING /tmp/ccjSVICa.s 			page 4


 135 00b4 13850900 		mv	a0,s3
 136 00b8 83308102 		ld	ra,40(sp)
 137              		.cfi_restore 1
 138 00bc 03340102 		ld	s0,32(sp)
 139              		.cfi_restore 8
 140              		.cfi_def_cfa 2, 48
 141 00c0 83348101 		ld	s1,24(sp)
 142              		.cfi_restore 9
 143 00c4 03390101 		ld	s2,16(sp)
 144              		.cfi_restore 18
 145 00c8 83398100 		ld	s3,8(sp)
 146              		.cfi_restore 19
 147              	.LVL13:
 148 00cc 033A0100 		ld	s4,0(sp)
 149              		.cfi_restore 20
 150 00d0 13010103 		addi	sp,sp,48
 151              		.cfi_def_cfa_offset 0
 152 00d4 67800000 		jr	ra
 153              		.cfi_endproc
 154              	.LFE1:
 156              		.align	2
 157              		.globl	_Z11stringToIntPKc
 159              	_Z11stringToIntPKc:
 160              	.LFB2:
  37:tests/printing.cpp **** 
  38:tests/printing.cpp **** int stringToInt(const char *s) {
 161              		.loc 1 38 32 is_stmt 1
 162              		.cfi_startproc
 163              	.LVL14:
 164 00d8 130101FF 		addi	sp,sp,-16
 165              		.cfi_def_cfa_offset 16
 166 00dc 23348100 		sd	s0,8(sp)
 167              		.cfi_offset 8, -8
 168 00e0 13040101 		addi	s0,sp,16
 169              		.cfi_def_cfa 8, 0
 170 00e4 93060500 		mv	a3,a0
  39:tests/printing.cpp ****     int n;
 171              		.loc 1 39 5
  40:tests/printing.cpp **** 
  41:tests/printing.cpp ****     n = 0;
 172              		.loc 1 41 5
 173              	.LVL15:
 174              		.loc 1 41 7 is_stmt 0
 175 00e8 13050000 		li	a0,0
 176              	.LVL16:
 177              	.L12:
  42:tests/printing.cpp ****     while ('0' <= *s && *s <= '9')
 178              		.loc 1 42 5 is_stmt 1
 179              		.loc 1 42 22
 180              		.loc 1 42 19 is_stmt 0
 181 00ec 03C60600 		lbu	a2,0(a3)
 182              		.loc 1 42 22
 183 00f0 1B0706FD 		addiw	a4,a2,-48
 184 00f4 1377F70F 		andi	a4,a4,0xff
 185 00f8 93079000 		li	a5,9
 186 00fc 63E0E702 		bgtu	a4,a5,.L11
  43:tests/printing.cpp ****         n = n * 10 + *s++ - '0';
GAS LISTING /tmp/ccjSVICa.s 			page 5


 187              		.loc 1 43 9 is_stmt 1
 188              		.loc 1 43 15 is_stmt 0
 189 0100 9B172500 		slliw	a5,a0,2
 190 0104 BB87A700 		addw	a5,a5,a0
 191 0108 9B971700 		slliw	a5,a5,1
 192              		.loc 1 43 24
 193 010c 93861600 		addi	a3,a3,1
 194              	.LVL17:
 195              		.loc 1 43 20
 196 0110 BB87C700 		addw	a5,a5,a2
 197              		.loc 1 43 11
 198 0114 1B8507FD 		addiw	a0,a5,-48
 199              	.LVL18:
  42:tests/printing.cpp ****     while ('0' <= *s && *s <= '9')
 200              		.loc 1 42 5
 201 0118 6FF05FFD 		j	.L12
 202              	.LVL19:
 203              	.L11:
  44:tests/printing.cpp ****     return n;
 204              		.loc 1 44 5 is_stmt 1
  45:tests/printing.cpp **** }
 205              		.loc 1 45 1 is_stmt 0
 206 011c 03348100 		ld	s0,8(sp)
 207              		.cfi_restore 8
 208              		.cfi_def_cfa 2, 16
 209 0120 13010101 		addi	sp,sp,16
 210              		.cfi_def_cfa_offset 0
 211 0124 67800000 		jr	ra
 212              		.cfi_endproc
 213              	.LFE2:
 215              		.align	2
 216              		.globl	_Z8printIntiii
 218              	_Z8printIntiii:
 219              	.LFB3:
  46:tests/printing.cpp **** 
  47:tests/printing.cpp **** char digits[] = "0123456789ABCDEF";
  48:tests/printing.cpp **** 
  49:tests/printing.cpp **** void printInt(int xx, int base, int sgn)
  50:tests/printing.cpp **** {
 220              		.loc 1 50 1 is_stmt 1
 221              		.cfi_startproc
 222              	.LVL20:
 223 0128 130101FD 		addi	sp,sp,-48
 224              		.cfi_def_cfa_offset 48
 225 012c 23341102 		sd	ra,40(sp)
 226 0130 23308102 		sd	s0,32(sp)
 227 0134 233C9100 		sd	s1,24(sp)
 228              		.cfi_offset 1, -8
 229              		.cfi_offset 8, -16
 230              		.cfi_offset 9, -24
 231 0138 13040103 		addi	s0,sp,48
 232              		.cfi_def_cfa 8, 0
  51:tests/printing.cpp ****     char buf[16];
 233              		.loc 1 51 5
  52:tests/printing.cpp ****     int i, neg;
 234              		.loc 1 52 5
  53:tests/printing.cpp ****     uint x;
GAS LISTING /tmp/ccjSVICa.s 			page 6


 235              		.loc 1 53 5
  54:tests/printing.cpp **** 
  55:tests/printing.cpp ****     neg = 0;
 236              		.loc 1 55 5
 237              	.LVL21:
  56:tests/printing.cpp ****     if(sgn && xx < 0){
 238              		.loc 1 56 5
 239 013c 63040600 		beqz	a2,.L15
 240              		.loc 1 56 12 is_stmt 0 discriminator 1
 241 0140 63440508 		bltz	a0,.L22
 242              	.L15:
  57:tests/printing.cpp ****         neg = 1;
  58:tests/printing.cpp ****         x = -xx;
  59:tests/printing.cpp ****     } else {
  60:tests/printing.cpp ****         x = xx;
 243              		.loc 1 60 9 is_stmt 1
 244              		.loc 1 60 11 is_stmt 0
 245 0144 1B050500 		sext.w	a0,a0
 246              	.LVL22:
  55:tests/printing.cpp ****     if(sgn && xx < 0){
 247              		.loc 1 55 9
 248 0148 13080000 		li	a6,0
 249              	.LVL23:
 250              	.L16:
  61:tests/printing.cpp ****     }
  62:tests/printing.cpp **** 
  63:tests/printing.cpp ****     i = 0;
 251              		.loc 1 63 5 is_stmt 1
 252              		.loc 1 63 7 is_stmt 0
 253 014c 93040000 		li	s1,0
 254              	.LVL24:
 255              	.L17:
  64:tests/printing.cpp ****     do{
 256              		.loc 1 64 5 is_stmt 1
  65:tests/printing.cpp ****         buf[i++] = digits[x % base];
 257              		.loc 1 65 9
 258              		.loc 1 65 31 is_stmt 0
 259 0150 9B870500 		sext.w	a5,a1
 260              		.loc 1 65 29
 261 0154 3B77B502 		remuw	a4,a0,a1
 262 0158 13860400 		mv	a2,s1
 263              		.loc 1 65 14
 264 015c 9B841400 		addiw	s1,s1,1
 265              	.LVL25:
 266              		.loc 1 65 35
 267 0160 93160702 		slli	a3,a4,32
 268 0164 93D60602 		srli	a3,a3,32
 269 0168 17070000 		lla	a4,.LANCHOR0
 269      13070700 
 270 0170 3307D700 		add	a4,a4,a3
 271 0174 83460700 		lbu	a3,0(a4)
 272              		.loc 1 65 18
 273 0178 130704FE 		addi	a4,s0,-32
 274 017c 3307C700 		add	a4,a4,a2
 275 0180 2308D7FE 		sb	a3,-16(a4)
  66:tests/printing.cpp ****     }while((x /= base) != 0);
 276              		.loc 1 66 24 is_stmt 1
GAS LISTING /tmp/ccjSVICa.s 			page 7


 277 0184 1B070500 		sext.w	a4,a0
 278              		.loc 1 66 15 is_stmt 0
 279 0188 3B55B502 		divuw	a0,a0,a1
 280              	.LVL26:
 281              		.loc 1 66 24
 282 018c E372F7FC 		bleu	a5,a4,.L17
  67:tests/printing.cpp ****     if(neg)
 283              		.loc 1 67 5 is_stmt 1
 284 0190 630C0800 		beqz	a6,.L20
  68:tests/printing.cpp ****         buf[i++] = '-';
 285              		.loc 1 68 9
 286              	.LVL27:
 287              		.loc 1 68 18 is_stmt 0
 288 0194 930704FE 		addi	a5,s0,-32
 289 0198 B3849700 		add	s1,a5,s1
 290 019c 9307D002 		li	a5,45
 291 01a0 2388F4FE 		sb	a5,-16(s1)
 292              		.loc 1 68 14
 293 01a4 9B042600 		addiw	s1,a2,2
 294              	.LVL28:
 295              	.L20:
  69:tests/printing.cpp **** 
  70:tests/printing.cpp ****     while(--i >= 0)
 296              		.loc 1 70 5 is_stmt 1
 297              		.loc 1 70 15
 298 01a8 9B84F4FF 		addiw	s1,s1,-1
 299              	.LVL29:
 300 01ac 63C40402 		bltz	s1,.L14
  71:tests/printing.cpp ****         putc(buf[i]);
 301              		.loc 1 71 9
 302              		.loc 1 71 13 is_stmt 0
 303 01b0 930704FE 		addi	a5,s0,-32
 304 01b4 B3879700 		add	a5,a5,s1
 305 01b8 03C507FF 		lbu	a0,-16(a5)
 306 01bc 97000000 		call	_Z4putcc@plt
 306      E7800000 
 307              	.LVL30:
 308 01c4 6FF05FFE 		j	.L20
 309              	.LVL31:
 310              	.L22:
  57:tests/printing.cpp ****         x = -xx;
 311              		.loc 1 57 9 is_stmt 1
  58:tests/printing.cpp ****     } else {
 312              		.loc 1 58 9
  58:tests/printing.cpp ****     } else {
 313              		.loc 1 58 11 is_stmt 0
 314 01c8 3B05A040 		negw	a0,a0
 315              	.LVL32:
  57:tests/printing.cpp ****         x = -xx;
 316              		.loc 1 57 13
 317 01cc 13081000 		li	a6,1
  58:tests/printing.cpp ****     } else {
 318              		.loc 1 58 11
 319 01d0 6FF0DFF7 		j	.L16
 320              	.LVL33:
 321              	.L14:
  72:tests/printing.cpp **** 
GAS LISTING /tmp/ccjSVICa.s 			page 8


  73:tests/printing.cpp **** }...
 322              		.loc 1 73 1
 323 01d4 83308102 		ld	ra,40(sp)
 324              		.cfi_restore 1
 325 01d8 03340102 		ld	s0,32(sp)
 326              		.cfi_restore 8
 327              		.cfi_def_cfa 2, 48
 328 01dc 83348101 		ld	s1,24(sp)
 329              		.cfi_restore 9
 330 01e0 13010103 		addi	sp,sp,48
 331              		.cfi_def_cfa_offset 0
 332 01e4 67800000 		jr	ra
 333              		.cfi_endproc
 334              	.LFE3:
 336              		.globl	digits
 337              		.globl	lockPrint
 338              		.data
 339              		.align	3
 340              		.set	.LANCHOR0,. + 0
 343              	digits:
 344 0000 30313233 		.string	"0123456789ABCDEF"
 344      34353637 
 344      38394142 
 344      43444546 
 344      00
 345              		.bss
 346              		.align	3
 349              	lockPrint:
 350 0000 00000000 		.zero	8
 350      00000000 
 351              		.text
 352              	.Letext0:
 353              		.file 2 "tests/../h/../lib/hw.h"
 354              		.file 3 "tests/../h/syscall_c.hpp"
GAS LISTING /tmp/ccjSVICa.s 			page 9


DEFINED SYMBOLS
                            *ABS*:0000000000000000 printing.cpp
     /tmp/ccjSVICa.s:9      .text:0000000000000000 _Z11printStringPKc
     /tmp/ccjSVICa.s:13     .text:0000000000000000 .L0 
     /tmp/ccjSVICa.s:15     .text:0000000000000000 .L0 
     /tmp/ccjSVICa.s:16     .text:0000000000000004 .L0 
     /tmp/ccjSVICa.s:20     .text:0000000000000010 .L0 
     /tmp/ccjSVICa.s:21     .text:0000000000000010 .L0 
     /tmp/ccjSVICa.s:22     .text:0000000000000010 .L0 
     /tmp/ccjSVICa.s:24     .text:0000000000000014 .L0 
     /tmp/ccjSVICa.s:29     .text:0000000000000018 .L0 
     /tmp/ccjSVICa.s:30     .text:0000000000000018 .L0 
     /tmp/ccjSVICa.s:31     .text:0000000000000018 .L0 
     /tmp/ccjSVICa.s:33     .text:000000000000001c .L0 
     /tmp/ccjSVICa.s:35     .text:0000000000000020 .L0 
     /tmp/ccjSVICa.s:36     .text:0000000000000020 .L0 
     /tmp/ccjSVICa.s:39     .text:0000000000000028 .L0 
     /tmp/ccjSVICa.s:40     .text:0000000000000028 .L0 
     /tmp/ccjSVICa.s:43     .text:000000000000002c .L0 
     /tmp/ccjSVICa.s:46     .text:0000000000000030 .L0 
     /tmp/ccjSVICa.s:47     .text:0000000000000034 .L0 
     /tmp/ccjSVICa.s:49     .text:0000000000000038 .L0 
     /tmp/ccjSVICa.s:50     .text:0000000000000038 .L0 
     /tmp/ccjSVICa.s:52     .text:000000000000003c .L0 
     /tmp/ccjSVICa.s:55     .text:0000000000000040 .L0 
     /tmp/ccjSVICa.s:57     .text:0000000000000044 .L0 
     /tmp/ccjSVICa.s:63     .text:0000000000000044 _Z9getStringPci
     /tmp/ccjSVICa.s:66     .text:0000000000000044 .L0 
     /tmp/ccjSVICa.s:68     .text:0000000000000044 .L0 
     /tmp/ccjSVICa.s:69     .text:0000000000000048 .L0 
     /tmp/ccjSVICa.s:76     .text:0000000000000060 .L0 
     /tmp/ccjSVICa.s:77     .text:0000000000000060 .L0 
     /tmp/ccjSVICa.s:78     .text:0000000000000060 .L0 
     /tmp/ccjSVICa.s:79     .text:0000000000000060 .L0 
     /tmp/ccjSVICa.s:80     .text:0000000000000060 .L0 
     /tmp/ccjSVICa.s:81     .text:0000000000000060 .L0 
     /tmp/ccjSVICa.s:83     .text:0000000000000064 .L0 
     /tmp/ccjSVICa.s:87     .text:000000000000006c .L0 
     /tmp/ccjSVICa.s:88     .text:000000000000006c .L0 
     /tmp/ccjSVICa.s:90     .text:000000000000006c .L0 
     /tmp/ccjSVICa.s:91     .text:000000000000006c .L0 
     /tmp/ccjSVICa.s:95     .text:0000000000000070 .L0 
     /tmp/ccjSVICa.s:97     .text:0000000000000074 .L0 
     /tmp/ccjSVICa.s:100    .text:0000000000000078 .L0 
     /tmp/ccjSVICa.s:102    .text:000000000000007c .L0 
     /tmp/ccjSVICa.s:103    .text:000000000000007c .L0 
     /tmp/ccjSVICa.s:106    .text:0000000000000084 .L0 
     /tmp/ccjSVICa.s:109    .text:0000000000000088 .L0 
     /tmp/ccjSVICa.s:110    .text:0000000000000088 .L0 
     /tmp/ccjSVICa.s:111    .text:0000000000000088 .L0 
     /tmp/ccjSVICa.s:113    .text:000000000000008c .L0 
     /tmp/ccjSVICa.s:115    .text:0000000000000090 .L0 
     /tmp/ccjSVICa.s:118    .text:0000000000000098 .L0 
     /tmp/ccjSVICa.s:121    .text:00000000000000a0 .L0 
     /tmp/ccjSVICa.s:128    .text:00000000000000ac .L0 
     /tmp/ccjSVICa.s:129    .text:00000000000000ac .L0 
     /tmp/ccjSVICa.s:132    .text:00000000000000b0 .L0 
GAS LISTING /tmp/ccjSVICa.s 			page 10


     /tmp/ccjSVICa.s:134    .text:00000000000000b4 .L0 
     /tmp/ccjSVICa.s:135    .text:00000000000000b4 .L0 
     /tmp/ccjSVICa.s:137    .text:00000000000000bc .L0 
     /tmp/ccjSVICa.s:139    .text:00000000000000c0 .L0 
     /tmp/ccjSVICa.s:140    .text:00000000000000c0 .L0 
     /tmp/ccjSVICa.s:142    .text:00000000000000c4 .L0 
     /tmp/ccjSVICa.s:144    .text:00000000000000c8 .L0 
     /tmp/ccjSVICa.s:146    .text:00000000000000cc .L0 
     /tmp/ccjSVICa.s:149    .text:00000000000000d0 .L0 
     /tmp/ccjSVICa.s:151    .text:00000000000000d4 .L0 
     /tmp/ccjSVICa.s:153    .text:00000000000000d8 .L0 
     /tmp/ccjSVICa.s:159    .text:00000000000000d8 _Z11stringToIntPKc
     /tmp/ccjSVICa.s:162    .text:00000000000000d8 .L0 
     /tmp/ccjSVICa.s:164    .text:00000000000000d8 .L0 
     /tmp/ccjSVICa.s:165    .text:00000000000000dc .L0 
     /tmp/ccjSVICa.s:167    .text:00000000000000e0 .L0 
     /tmp/ccjSVICa.s:169    .text:00000000000000e4 .L0 
     /tmp/ccjSVICa.s:172    .text:00000000000000e8 .L0 
     /tmp/ccjSVICa.s:174    .text:00000000000000e8 .L0 
     /tmp/ccjSVICa.s:175    .text:00000000000000e8 .L0 
     /tmp/ccjSVICa.s:179    .text:00000000000000ec .L0 
     /tmp/ccjSVICa.s:180    .text:00000000000000ec .L0 
     /tmp/ccjSVICa.s:181    .text:00000000000000ec .L0 
     /tmp/ccjSVICa.s:183    .text:00000000000000f0 .L0 
     /tmp/ccjSVICa.s:188    .text:0000000000000100 .L0 
     /tmp/ccjSVICa.s:189    .text:0000000000000100 .L0 
     /tmp/ccjSVICa.s:193    .text:000000000000010c .L0 
     /tmp/ccjSVICa.s:196    .text:0000000000000110 .L0 
     /tmp/ccjSVICa.s:198    .text:0000000000000114 .L0 
     /tmp/ccjSVICa.s:201    .text:0000000000000118 .L0 
     /tmp/ccjSVICa.s:205    .text:000000000000011c .L0 
     /tmp/ccjSVICa.s:206    .text:000000000000011c .L0 
     /tmp/ccjSVICa.s:207    .text:0000000000000120 .L0 
     /tmp/ccjSVICa.s:208    .text:0000000000000120 .L0 
     /tmp/ccjSVICa.s:210    .text:0000000000000124 .L0 
     /tmp/ccjSVICa.s:212    .text:0000000000000128 .L0 
     /tmp/ccjSVICa.s:218    .text:0000000000000128 _Z8printIntiii
     /tmp/ccjSVICa.s:221    .text:0000000000000128 .L0 
     /tmp/ccjSVICa.s:223    .text:0000000000000128 .L0 
     /tmp/ccjSVICa.s:224    .text:000000000000012c .L0 
     /tmp/ccjSVICa.s:228    .text:0000000000000138 .L0 
     /tmp/ccjSVICa.s:229    .text:0000000000000138 .L0 
     /tmp/ccjSVICa.s:230    .text:0000000000000138 .L0 
     /tmp/ccjSVICa.s:232    .text:000000000000013c .L0 
     /tmp/ccjSVICa.s:234    .text:000000000000013c .L0 
     /tmp/ccjSVICa.s:235    .text:000000000000013c .L0 
     /tmp/ccjSVICa.s:236    .text:000000000000013c .L0 
     /tmp/ccjSVICa.s:238    .text:000000000000013c .L0 
     /tmp/ccjSVICa.s:239    .text:000000000000013c .L0 
     /tmp/ccjSVICa.s:241    .text:0000000000000140 .L0 
     /tmp/ccjSVICa.s:244    .text:0000000000000144 .L0 
     /tmp/ccjSVICa.s:245    .text:0000000000000144 .L0 
     /tmp/ccjSVICa.s:248    .text:0000000000000148 .L0 
     /tmp/ccjSVICa.s:252    .text:000000000000014c .L0 
     /tmp/ccjSVICa.s:253    .text:000000000000014c .L0 
     /tmp/ccjSVICa.s:257    .text:0000000000000150 .L0 
     /tmp/ccjSVICa.s:258    .text:0000000000000150 .L0 
GAS LISTING /tmp/ccjSVICa.s 			page 11


     /tmp/ccjSVICa.s:259    .text:0000000000000150 .L0 
     /tmp/ccjSVICa.s:261    .text:0000000000000154 .L0 
     /tmp/ccjSVICa.s:264    .text:000000000000015c .L0 
     /tmp/ccjSVICa.s:267    .text:0000000000000160 .L0 
     /tmp/ccjSVICa.s:273    .text:0000000000000178 .L0 
     /tmp/ccjSVICa.s:277    .text:0000000000000184 .L0 
     /tmp/ccjSVICa.s:279    .text:0000000000000188 .L0 
     /tmp/ccjSVICa.s:282    .text:000000000000018c .L0 
     /tmp/ccjSVICa.s:284    .text:0000000000000190 .L0 
     /tmp/ccjSVICa.s:287    .text:0000000000000194 .L0 
     /tmp/ccjSVICa.s:288    .text:0000000000000194 .L0 
     /tmp/ccjSVICa.s:293    .text:00000000000001a4 .L0 
     /tmp/ccjSVICa.s:297    .text:00000000000001a8 .L0 
     /tmp/ccjSVICa.s:298    .text:00000000000001a8 .L0 
     /tmp/ccjSVICa.s:302    .text:00000000000001b0 .L0 
     /tmp/ccjSVICa.s:303    .text:00000000000001b0 .L0 
     /tmp/ccjSVICa.s:312    .text:00000000000001c8 .L0 
     /tmp/ccjSVICa.s:313    .text:00000000000001c8 .L0 
     /tmp/ccjSVICa.s:314    .text:00000000000001c8 .L0 
     /tmp/ccjSVICa.s:317    .text:00000000000001cc .L0 
     /tmp/ccjSVICa.s:319    .text:00000000000001d0 .L0 
     /tmp/ccjSVICa.s:323    .text:00000000000001d4 .L0 
     /tmp/ccjSVICa.s:324    .text:00000000000001d8 .L0 
     /tmp/ccjSVICa.s:326    .text:00000000000001dc .L0 
     /tmp/ccjSVICa.s:327    .text:00000000000001dc .L0 
     /tmp/ccjSVICa.s:329    .text:00000000000001e0 .L0 
     /tmp/ccjSVICa.s:331    .text:00000000000001e4 .L0 
     /tmp/ccjSVICa.s:333    .text:00000000000001e8 .L0 
     /tmp/ccjSVICa.s:343    .data:0000000000000000 digits
     /tmp/ccjSVICa.s:349    .bss:0000000000000000 lockPrint
     /tmp/ccjSVICa.s:340    .data:0000000000000000 .LANCHOR0
     /tmp/ccjSVICa.s:355    .text:00000000000001e8 .L0 
     /tmp/ccjSVICa.s:269    .text:0000000000000168 .L0 
     /tmp/ccjSVICa.s:44     .text:0000000000000030 .L1
     /tmp/ccjSVICa.s:27     .text:0000000000000018 .L3
     /tmp/ccjSVICa.s:126    .text:00000000000000ac .L6
     /tmp/ccjSVICa.s:123    .text:00000000000000a8 .L8
     /tmp/ccjSVICa.s:93     .text:0000000000000070 .L7
     /tmp/ccjSVICa.s:203    .text:000000000000011c .L11
     /tmp/ccjSVICa.s:177    .text:00000000000000ec .L12
     /tmp/ccjSVICa.s:242    .text:0000000000000144 .L15
     /tmp/ccjSVICa.s:310    .text:00000000000001c8 .L22
     /tmp/ccjSVICa.s:255    .text:0000000000000150 .L17
     /tmp/ccjSVICa.s:295    .text:00000000000001a8 .L20
     /tmp/ccjSVICa.s:321    .text:00000000000001d4 .L14
     /tmp/ccjSVICa.s:250    .text:000000000000014c .L16
     /tmp/ccjSVICa.s:726    .debug_abbrev:0000000000000000 .Ldebug_abbrev0
     /tmp/ccjSVICa.s:1370   .debug_str:00000000000000e8 .LASF35
     /tmp/ccjSVICa.s:1400   .debug_str:0000000000000277 .LASF36
     /tmp/ccjSVICa.s:1392   .debug_str:0000000000000222 .LASF37
     /tmp/ccjSVICa.s:5      .text:0000000000000000 .Ltext0
     /tmp/ccjSVICa.s:352    .text:00000000000001e8 .Letext0
     /tmp/ccjSVICa.s:1332   .debug_line:0000000000000000 .Ldebug_line0
     /tmp/ccjSVICa.s:1378   .debug_str:00000000000001c9 .LASF0
     /tmp/ccjSVICa.s:1374   .debug_str:00000000000001bf .LASF3
     /tmp/ccjSVICa.s:1364   .debug_str:00000000000000c0 .LASF1
     /tmp/ccjSVICa.s:1356   .debug_str:0000000000000091 .LASF2
GAS LISTING /tmp/ccjSVICa.s 			page 12


     /tmp/ccjSVICa.s:1340   .debug_str:0000000000000028 .LASF4
     /tmp/ccjSVICa.s:1362   .debug_str:00000000000000ae .LASF5
     /tmp/ccjSVICa.s:1336   .debug_str:0000000000000013 .LASF6
     /tmp/ccjSVICa.s:1334   .debug_str:0000000000000000 .LASF7
     /tmp/ccjSVICa.s:1350   .debug_str:0000000000000065 .LASF8
     /tmp/ccjSVICa.s:1384   .debug_str:00000000000001e0 .LASF9
     /tmp/ccjSVICa.s:1338   .debug_str:000000000000001a .LASF10
     /tmp/ccjSVICa.s:1408   .debug_str:00000000000002af .LASF11
     /tmp/ccjSVICa.s:1352   .debug_str:0000000000000078 .LASF12
     /tmp/ccjSVICa.s:1402   .debug_str:000000000000028a .LASF13
     /tmp/ccjSVICa.s:1388   .debug_str:0000000000000206 .LASF14
     /tmp/ccjSVICa.s:1368   .debug_str:00000000000000dc .LASF15
     /tmp/ccjSVICa.s:1346   .debug_str:0000000000000048 .LASF16
     /tmp/ccjSVICa.s:1386   .debug_str:00000000000001f0 .LASF17
     /tmp/ccjSVICa.s:1354   .debug_str:0000000000000087 .LASF18
     /tmp/ccjSVICa.s:1382   .debug_str:00000000000001db .LASF19
     /tmp/ccjSVICa.s:1396   .debug_str:000000000000025d .LASF20
     /tmp/ccjSVICa.s:1344   .debug_str:000000000000003f .LASF26
     /tmp/ccjSVICa.s:1394   .debug_str:000000000000024e .LASF28
     /tmp/ccjSVICa.s:219    .text:0000000000000128 .LFB3
     /tmp/ccjSVICa.s:334    .text:00000000000001e8 .LFE3
     /tmp/ccjSVICa.s:1067   .debug_loc:0000000000000000 .LLST8
     /tmp/ccjSVICa.s:1376   .debug_str:00000000000001c4 .LASF21
     /tmp/ccjSVICa.s:1092   .debug_loc:0000000000000062 .LLST9
     /tmp/ccjSVICa.s:1117   .debug_loc:00000000000000c4 .LLST10
     /tmp/ccjSVICa.s:1142   .debug_loc:0000000000000126 .LLST11
     /tmp/ccjSVICa.s:1164   .debug_loc:0000000000000185 .LLST12
     /tmp/ccjSVICa.s:1181   .debug_loc:00000000000001d0 .LLST13
     /tmp/ccjSVICa.s:307    .text:00000000000001c4 .LVL30
     /tmp/ccjSVICa.s:1390   .debug_str:0000000000000216 .LASF22
     /tmp/ccjSVICa.s:1398   .debug_str:0000000000000264 .LASF24
     /tmp/ccjSVICa.s:160    .text:00000000000000d8 .LFB2
     /tmp/ccjSVICa.s:213    .text:0000000000000128 .LFE2
     /tmp/ccjSVICa.s:1211   .debug_loc:0000000000000228 .LLST6
     /tmp/ccjSVICa.s:1222   .debug_loc:000000000000025e .LLST7
     /tmp/ccjSVICa.s:1360   .debug_str:00000000000000a4 .LASF23
     /tmp/ccjSVICa.s:1342   .debug_str:000000000000002f .LASF25
     /tmp/ccjSVICa.s:64     .text:0000000000000044 .LFB1
     /tmp/ccjSVICa.s:154    .text:00000000000000d8 .LFE1
     /tmp/ccjSVICa.s:1244   .debug_loc:00000000000002bd .LLST1
     /tmp/ccjSVICa.s:1259   .debug_loc:0000000000000306 .LLST2
     /tmp/ccjSVICa.s:1273   .debug_loc:000000000000033f .LLST3
     /tmp/ccjSVICa.s:1289   .debug_loc:0000000000000389 .LLST4
     /tmp/ccjSVICa.s:1301   .debug_loc:00000000000003b1 .LLST5
     /tmp/ccjSVICa.s:104    .text:0000000000000084 .LVL9
     /tmp/ccjSVICa.s:1406   .debug_str:00000000000002a3 .LASF27
     /tmp/ccjSVICa.s:1372   .debug_str:00000000000001ac .LASF29
     /tmp/ccjSVICa.s:10     .text:0000000000000000 .LFB0
     /tmp/ccjSVICa.s:58     .text:0000000000000044 .LFE0
     /tmp/ccjSVICa.s:1348   .debug_str:000000000000005e .LASF30
     /tmp/ccjSVICa.s:1308   .debug_loc:00000000000003d4 .LLST0
     /tmp/ccjSVICa.s:37     .text:0000000000000028 .LVL2
     /tmp/ccjSVICa.s:1366   .debug_str:00000000000000d3 .LASF31
     /tmp/ccjSVICa.s:1380   .debug_str:00000000000001d6 .LASF33
     /tmp/ccjSVICa.s:1404   .debug_str:000000000000029a .LASF32
     /tmp/ccjSVICa.s:1358   .debug_str:000000000000009f .LASF34
     /tmp/ccjSVICa.s:222    .text:0000000000000128 .LVL20
GAS LISTING /tmp/ccjSVICa.s 			page 13


     /tmp/ccjSVICa.s:249    .text:000000000000014c .LVL23
     /tmp/ccjSVICa.s:309    .text:00000000000001c8 .LVL31
     /tmp/ccjSVICa.s:315    .text:00000000000001cc .LVL32
     /tmp/ccjSVICa.s:294    .text:00000000000001a8 .LVL28
     /tmp/ccjSVICa.s:320    .text:00000000000001d4 .LVL33
     /tmp/ccjSVICa.s:254    .text:0000000000000150 .LVL24
     /tmp/ccjSVICa.s:265    .text:0000000000000160 .LVL25
     /tmp/ccjSVICa.s:286    .text:0000000000000194 .LVL27
     /tmp/ccjSVICa.s:299    .text:00000000000001ac .LVL29
     /tmp/ccjSVICa.s:237    .text:000000000000013c .LVL21
     /tmp/ccjSVICa.s:246    .text:0000000000000148 .LVL22
     /tmp/ccjSVICa.s:280    .text:000000000000018c .LVL26
     /tmp/ccjSVICa.s:163    .text:00000000000000d8 .LVL14
     /tmp/ccjSVICa.s:176    .text:00000000000000ec .LVL16
     /tmp/ccjSVICa.s:173    .text:00000000000000e8 .LVL15
     /tmp/ccjSVICa.s:199    .text:0000000000000118 .LVL18
     /tmp/ccjSVICa.s:202    .text:000000000000011c .LVL19
     /tmp/ccjSVICa.s:67     .text:0000000000000044 .LVL5
     /tmp/ccjSVICa.s:92     .text:0000000000000070 .LVL7
     /tmp/ccjSVICa.s:147    .text:00000000000000cc .LVL13
     /tmp/ccjSVICa.s:89     .text:000000000000006c .LVL6
     /tmp/ccjSVICa.s:98     .text:0000000000000078 .LVL8
     /tmp/ccjSVICa.s:125    .text:00000000000000ac .LVL11
     /tmp/ccjSVICa.s:130    .text:00000000000000b0 .LVL12
     /tmp/ccjSVICa.s:108    .text:0000000000000088 .LVL10
     /tmp/ccjSVICa.s:14     .text:0000000000000000 .LVL0
     /tmp/ccjSVICa.s:26     .text:0000000000000018 .LVL1
     /tmp/ccjSVICa.s:53     .text:000000000000003c .LVL4
     /tmp/ccjSVICa.s:356    .debug_info:0000000000000000 .Ldebug_info0

UNDEFINED SYMBOLS
_Z4putcc
_Z4getcv
