GAS LISTING /tmp/ccKlSPQC.s 			page 1


   1              		.file	"_sem.cpp"
   2              		.option pic
   3              		.option norelax
   4              		.text
   5              	.Ltext0:
   6              		.section	.text._ZN4_semD2Ev,"axG",@progbits,_ZN4_semD5Ev,comdat
   7              		.align	2
   8              		.weak	_ZN4_semD2Ev
  10              	_ZN4_semD2Ev:
  11              	.LFB39:
  12              		.file 1 "src/../h/_sem.hpp"
   1:src/../h/_sem.hpp **** //
   2:src/../h/_sem.hpp **** // Created by os on 9/13/24.
   3:src/../h/_sem.hpp **** //
   4:src/../h/_sem.hpp **** 
   5:src/../h/_sem.hpp **** #ifndef SEMAPHORE_HPP
   6:src/../h/_sem.hpp **** #define SEMAPHORE_HPP
   7:src/../h/_sem.hpp **** 
   8:src/../h/_sem.hpp **** #include "../lib/hw.h"
   9:src/../h/_sem.hpp **** #include "list.hpp"
  10:src/../h/_sem.hpp **** #include "TCB.hpp"
  11:src/../h/_sem.hpp **** 
  12:src/../h/_sem.hpp **** class _sem;
  13:src/../h/_sem.hpp **** 
  14:src/../h/_sem.hpp **** typedef _sem *sem_t;
  15:src/../h/_sem.hpp **** 
  16:src/../h/_sem.hpp **** class TCB;
  17:src/../h/_sem.hpp **** 
  18:src/../h/_sem.hpp **** typedef TCB *thread_t;
  19:src/../h/_sem.hpp **** 
  20:src/../h/_sem.hpp **** class _sem {
  21:src/../h/_sem.hpp **** public:
  22:src/../h/_sem.hpp ****     _sem(long init = 1) : value(init), closed(false) {}
  23:src/../h/_sem.hpp **** 
  24:src/../h/_sem.hpp ****     static int sem_open(sem_t *handle, long init);
  25:src/../h/_sem.hpp **** 
  26:src/../h/_sem.hpp ****     static int sem_close(sem_t handle);
  27:src/../h/_sem.hpp **** 
  28:src/../h/_sem.hpp ****     static int sem_wait(sem_t id);
  29:src/../h/_sem.hpp **** 
  30:src/../h/_sem.hpp ****     static int sem_signal(sem_t id);
  31:src/../h/_sem.hpp **** 
  32:src/../h/_sem.hpp ****     static int sem_trywait(sem_t id);
  33:src/../h/_sem.hpp **** 
  34:src/../h/_sem.hpp ****     virtual ~_sem() {}
  13              		.loc 1 34 13
  14              		.cfi_startproc
  15              	.LVL0:
  16 0000 130101FF 		addi	sp,sp,-16
  17              		.cfi_def_cfa_offset 16
  18 0004 23348100 		sd	s0,8(sp)
  19              		.cfi_offset 8, -8
  20 0008 13040101 		addi	s0,sp,16
  21              		.cfi_def_cfa 8, 0
  22              		.loc 1 34 22 is_stmt 0
  23 000c 03348100 		ld	s0,8(sp)
  24              		.cfi_restore 8
GAS LISTING /tmp/ccKlSPQC.s 			page 2


  25              		.cfi_def_cfa 2, 16
  26 0010 13010101 		addi	sp,sp,16
  27              		.cfi_def_cfa_offset 0
  28 0014 67800000 		jr	ra
  29              		.cfi_endproc
  30              	.LFE39:
  32              		.weak	_ZN4_semD1Ev
  33              		.set	_ZN4_semD1Ev,_ZN4_semD2Ev
  34              		.section	.text._ZN4_semD0Ev,"axG",@progbits,_ZN4_semD5Ev,comdat
  35              		.align	2
  36              		.weak	_ZN4_semD0Ev
  38              	_ZN4_semD0Ev:
  39              	.LFB41:
  40              		.loc 1 34 13 is_stmt 1
  41              		.cfi_startproc
  42              	.LVL1:
  43 0000 130101FF 		addi	sp,sp,-16
  44              		.cfi_def_cfa_offset 16
  45 0004 23341100 		sd	ra,8(sp)
  46 0008 23308100 		sd	s0,0(sp)
  47              		.cfi_offset 1, -8
  48              		.cfi_offset 8, -16
  49 000c 13040101 		addi	s0,sp,16
  50              		.cfi_def_cfa 8, 0
  51              		.loc 1 34 22 is_stmt 0
  52 0010 97000000 		call	_ZdlPv@plt
  52      E7800000 
  53              	.LVL2:
  54 0018 83308100 		ld	ra,8(sp)
  55              		.cfi_restore 1
  56 001c 03340100 		ld	s0,0(sp)
  57              		.cfi_restore 8
  58              		.cfi_def_cfa 2, 16
  59 0020 13010101 		addi	sp,sp,16
  60              		.cfi_def_cfa_offset 0
  61 0024 67800000 		jr	ra
  62              		.cfi_endproc
  63              	.LFE41:
  65              		.text
  66              		.align	2
  67              		.globl	_ZN4_sem8sem_openEPPS_l
  69              	_ZN4_sem8sem_openEPPS_l:
  70              	.LFB42:
  71              		.file 2 "src/_sem.cpp"
   1:src/_sem.cpp  **** //
   2:src/_sem.cpp  **** // Created by os on 9/13/24.
   3:src/_sem.cpp  **** //
   4:src/_sem.cpp  **** 
   5:src/_sem.cpp  **** #include "../h/_sem.hpp"
   6:src/_sem.cpp  **** #include "../h/scheduler.hpp"
   7:src/_sem.cpp  **** #include "../test/printing.hpp"
   8:src/_sem.cpp  **** 
   9:src/_sem.cpp  **** int _sem::sem_open(sem_t *handle, long init) {
  72              		.loc 2 9 46 is_stmt 1
  73              		.cfi_startproc
  74              	.LVL3:
  10:src/_sem.cpp  ****     if (handle == nullptr) {
GAS LISTING /tmp/ccKlSPQC.s 			page 3


  75              		.loc 2 10 5
  76 0000 63080506 		beqz	a0,.L7
   9:src/_sem.cpp  ****     if (handle == nullptr) {
  77              		.loc 2 9 46 is_stmt 0
  78 0004 130101FE 		addi	sp,sp,-32
  79              		.cfi_def_cfa_offset 32
  80 0008 233C1100 		sd	ra,24(sp)
  81 000c 23388100 		sd	s0,16(sp)
  82 0010 23349100 		sd	s1,8(sp)
  83 0014 23302101 		sd	s2,0(sp)
  84              		.cfi_offset 1, -8
  85              		.cfi_offset 8, -16
  86              		.cfi_offset 9, -24
  87              		.cfi_offset 18, -32
  88 0018 13040102 		addi	s0,sp,32
  89              		.cfi_def_cfa 8, 0
  90 001c 93040500 		mv	s1,a0
  91 0020 13890500 		mv	s2,a1
  11:src/_sem.cpp  ****         return -1;
  12:src/_sem.cpp  ****     }
  13:src/_sem.cpp  ****     sem_t semaphore = new _sem();
  92              		.loc 2 13 5 is_stmt 1
  93              		.loc 2 13 32 is_stmt 0
  94 0024 13058002 		li	a0,40
  95              	.LVL4:
  96 0028 97000000 		call	_Znwm@plt
  96      E7800000 
  97              	.LVL5:
  98              	.LBB40:
  99              	.LBB41:
  22:src/../h/_sem.hpp **** 
 100              		.loc 1 22 52
 101 0030 97070000 		lla	a5,_ZTV4_sem+16
 101      93870700 
 102 0038 2330F500 		sd	a5,0(a0)
 103 003c 23080500 		sb	zero,16(a0)
 104              	.LVL6:
 105              	.LBB42:
 106              	.LBB43:
 107              		.file 3 "src/../h/list.hpp"
   1:src/../h/list.hpp **** //
   2:src/../h/list.hpp **** // Created by os on 9/13/24.
   3:src/../h/list.hpp **** //
   4:src/../h/list.hpp **** 
   5:src/../h/list.hpp **** #ifndef LIST_HPP
   6:src/../h/list.hpp **** #define LIST_HPP
   7:src/../h/list.hpp **** 
   8:src/../h/list.hpp **** #include "../lib/mem.h"
   9:src/../h/list.hpp **** #include "MemoryAllocator.hpp"
  10:src/../h/list.hpp **** template<typename T>
  11:src/../h/list.hpp **** class List{
  12:src/../h/list.hpp ****         private:
  13:src/../h/list.hpp ****         struct Elem
  14:src/../h/list.hpp ****         {
  15:src/../h/list.hpp ****             T *data;
  16:src/../h/list.hpp ****             Elem *next;
  17:src/../h/list.hpp **** 
GAS LISTING /tmp/ccKlSPQC.s 			page 4


  18:src/../h/list.hpp ****             Elem(T *data, Elem *next) : data(data), next(next) {}
  19:src/../h/list.hpp **** 
  20:src/../h/list.hpp ****         };
  21:src/../h/list.hpp **** 
  22:src/../h/list.hpp ****         public:
  23:src/../h/list.hpp **** 
  24:src/../h/list.hpp ****         Elem *head, *tail;
  25:src/../h/list.hpp ****         List() : head(0), tail(0) {}
 108              		.loc 3 25 33
 109 0040 233C0500 		sd	zero,24(a0)
 110 0044 23300502 		sd	zero,32(a0)
 111              	.LVL7:
 112              	.LBE43:
 113              	.LBE42:
 114              	.LBE41:
 115              	.LBE40:
  14:src/_sem.cpp  ****     semaphore->value = init;
 116              		.loc 2 14 5 is_stmt 1
 117              		.loc 2 14 22 is_stmt 0
 118 0048 23342501 		sd	s2,8(a0)
  15:src/_sem.cpp  ****     semaphore->closed = false;
 119              		.loc 2 15 5 is_stmt 1
  16:src/_sem.cpp  ****     *handle = semaphore;
 120              		.loc 2 16 5
 121              		.loc 2 16 13 is_stmt 0
 122 004c 23B0A400 		sd	a0,0(s1)
  17:src/_sem.cpp  **** 
  18:src/_sem.cpp  ****     if (*handle == nullptr) {
 123              		.loc 2 18 5 is_stmt 1
 124 0050 63040502 		beqz	a0,.L8
  19:src/_sem.cpp  ****         return -2;
  20:src/_sem.cpp  ****     }
  21:src/_sem.cpp  ****     return 0;
 125              		.loc 2 21 12 is_stmt 0
 126 0054 13050000 		li	a0,0
 127              	.LVL8:
 128              	.L6:
  22:src/_sem.cpp  **** }
 129              		.loc 2 22 1
 130 0058 83308101 		ld	ra,24(sp)
 131              		.cfi_restore 1
 132 005c 03340101 		ld	s0,16(sp)
 133              		.cfi_restore 8
 134              		.cfi_def_cfa 2, 32
 135 0060 83348100 		ld	s1,8(sp)
 136              		.cfi_restore 9
 137              	.LVL9:
 138 0064 03390100 		ld	s2,0(sp)
 139              		.cfi_restore 18
 140              	.LVL10:
 141 0068 13010102 		addi	sp,sp,32
 142              		.cfi_def_cfa_offset 0
 143 006c 67800000 		jr	ra
 144              	.LVL11:
 145              	.L7:
  11:src/_sem.cpp  ****     }
 146              		.loc 2 11 17
GAS LISTING /tmp/ccKlSPQC.s 			page 5


 147 0070 1305F0FF 		li	a0,-1
 148              	.LVL12:
 149              		.loc 2 22 1
 150 0074 67800000 		ret
 151              	.LVL13:
 152              	.L8:
 153              		.cfi_def_cfa_register 8
 154              		.cfi_offset 1, -8
 155              		.cfi_offset 8, -16
 156              		.cfi_offset 9, -24
 157              		.cfi_offset 18, -32
  19:src/_sem.cpp  ****         return -2;
 158              		.loc 2 19 17
 159 0078 1305E0FF 		li	a0,-2
 160              	.LVL14:
 161 007c 6FF0DFFD 		j	.L6
 162              		.cfi_endproc
 163              	.LFE42:
 165              		.align	2
 166              		.globl	_ZN4_sem9sem_closeEPS_
 168              	_ZN4_sem9sem_closeEPS_:
 169              	.LFB43:
  23:src/_sem.cpp  **** 
  24:src/_sem.cpp  **** 
  25:src/_sem.cpp  **** int _sem::sem_close(sem_t handle) {
 170              		.loc 2 25 35 is_stmt 1
 171              		.cfi_startproc
 172              	.LVL15:
  26:src/_sem.cpp  ****     if (handle == nullptr || handle->closed) {
 173              		.loc 2 26 5
 174 0080 6300050A 		beqz	a0,.L20
  25:src/_sem.cpp  ****     if (handle == nullptr || handle->closed) {
 175              		.loc 2 25 35 is_stmt 0 discriminator 1
 176 0084 130101FE 		addi	sp,sp,-32
 177              		.cfi_def_cfa_offset 32
 178 0088 233C1100 		sd	ra,24(sp)
 179 008c 23388100 		sd	s0,16(sp)
 180 0090 23349100 		sd	s1,8(sp)
 181              		.cfi_offset 1, -8
 182              		.cfi_offset 8, -16
 183              		.cfi_offset 9, -24
 184 0094 13040102 		addi	s0,sp,32
 185              		.cfi_def_cfa 8, 0
 186 0098 93040500 		mv	s1,a0
 187              		.loc 2 26 38 discriminator 1
 188 009c 83470501 		lbu	a5,16(a0)
 189              		.loc 2 26 27 discriminator 1
 190 00a0 63940708 		bnez	a5,.L21
  27:src/_sem.cpp  ****         return -1;
  28:src/_sem.cpp  ****     }
  29:src/_sem.cpp  ****     handle->closed = true;
 191              		.loc 2 29 5 is_stmt 1
 192              		.loc 2 29 20 is_stmt 0
 193 00a4 93071000 		li	a5,1
 194 00a8 2308F500 		sb	a5,16(a0)
  30:src/_sem.cpp  ****     for (TCB *thread = handle->blokiraneNiti.peekFirst();
 195              		.loc 2 30 5 is_stmt 1
GAS LISTING /tmp/ccKlSPQC.s 			page 6


 196              	.LVL16:
 197              	.LBB53:
 198              	.LBB54:
 199              	.LBB55:
  26:src/../h/list.hpp **** 
  27:src/../h/list.hpp ****         List(const List<T> &) = delete;
  28:src/../h/list.hpp **** 
  29:src/../h/list.hpp **** 
  30:src/../h/list.hpp ****         List<T> &operator=(const List<T> &) = delete;
  31:src/../h/list.hpp **** 
  32:src/../h/list.hpp ****         void addFirst(T *data)
  33:src/../h/list.hpp ****         {
  34:src/../h/list.hpp ****             Elem *elem = new Elem(data, head);
  35:src/../h/list.hpp ****             head = elem;
  36:src/../h/list.hpp ****             if (!tail) { tail = head; }
  37:src/../h/list.hpp ****         }
  38:src/../h/list.hpp **** 
  39:src/../h/list.hpp ****         void addLast(T *data)
  40:src/../h/list.hpp ****         {
  41:src/../h/list.hpp ****             Elem *elem = new Elem(data, 0);
  42:src/../h/list.hpp ****             if (tail)
  43:src/../h/list.hpp ****             {
  44:src/../h/list.hpp ****                 tail->next = elem;
  45:src/../h/list.hpp ****                 tail = elem;
  46:src/../h/list.hpp ****             } else
  47:src/../h/list.hpp ****             {
  48:src/../h/list.hpp ****                 head = tail = elem;
  49:src/../h/list.hpp ****             }
  50:src/../h/list.hpp ****         }
  51:src/../h/list.hpp **** 
  52:src/../h/list.hpp ****         T *removeFirst()
  53:src/../h/list.hpp ****         {
  54:src/../h/list.hpp ****             if (!head) { return 0; }
  55:src/../h/list.hpp **** 
  56:src/../h/list.hpp ****             Elem *elem = head;
  57:src/../h/list.hpp ****             head = head->next;
  58:src/../h/list.hpp ****             if (!head) { tail = 0; }
  59:src/../h/list.hpp **** 
  60:src/../h/list.hpp ****             T *ret = elem->data;
  61:src/../h/list.hpp ****             delete elem;
  62:src/../h/list.hpp ****             return ret;
  63:src/../h/list.hpp ****         }
  64:src/../h/list.hpp **** 
  65:src/../h/list.hpp ****         T *peekFirst()
  66:src/../h/list.hpp ****         {
  67:src/../h/list.hpp ****             if (!head) { return 0; }
 200              		.loc 3 67 18 is_stmt 0
 201 00ac 03358501 		ld	a0,24(a0)
 202              	.LVL17:
 203              		.loc 3 67 13
 204 00b0 63020502 		beqz	a0,.L19
  68:src/../h/list.hpp ****             return head->data;
 205              		.loc 3 68 26
 206 00b4 03350500 		ld	a0,0(a0)
 207 00b8 6F00C001 		j	.L19
 208              	.LVL18:
 209              	.L27:
GAS LISTING /tmp/ccKlSPQC.s 			page 7


 210              	.LBE55:
 211              	.LBE54:
 212              	.LBB56:
 213              	.LBB57:
  58:src/../h/list.hpp **** 
 214              		.loc 3 58 26
 215 00bc 23B00402 		sd	zero,32(s1)
 216              	.L18:
 217              	.LVL19:
  61:src/../h/list.hpp ****             return ret;
 218              		.loc 3 61 13
 219 00c0 97000000 		call	_ZdlPv@plt
 219      E7800000 
 220              	.LVL20:
 221              	.L17:
 222              	.LBE57:
 223              	.LBE56:
 224              		.loc 2 30 5 is_stmt 1
 225              	.LBB59:
 226              	.LBB60:
  67:src/../h/list.hpp ****             return head->data;
 227              		.loc 3 67 18 is_stmt 0
 228 00c8 83B78401 		ld	a5,24(s1)
  67:src/../h/list.hpp ****             return head->data;
 229              		.loc 3 67 13
 230 00cc 63880702 		beqz	a5,.L16
 231              		.loc 3 68 26
 232 00d0 03B50700 		ld	a0,0(a5)
 233              	.LVL21:
 234              	.L19:
 235              	.LBE60:
 236              	.LBE59:
  31:src/_sem.cpp  ****          thread != nullptr; thread = handle->blokiraneNiti.peekFirst()) {
 237              		.loc 2 31 17 is_stmt 1 discriminator 2
 238 00d4 63040502 		beqz	a0,.L16
  32:src/_sem.cpp  ****         thread->setBlocked(false);  // Oznaci nit kao deblokiranu
 239              		.loc 2 32 9
 240              	.LVL22:
 241              	.LBB61:
 242              	.LBB62:
 243              		.file 4 "src/../h/TCB.hpp"
   1:src/../h/TCB.hpp **** //
   2:src/../h/TCB.hpp **** // Created by os on 9/13/24.
   3:src/../h/TCB.hpp **** //
   4:src/../h/TCB.hpp **** 
   5:src/../h/TCB.hpp **** #ifndef TCB_HPP
   6:src/../h/TCB.hpp **** #define TCB_HPP
   7:src/../h/TCB.hpp **** 
   8:src/../h/TCB.hpp **** #include "../lib/hw.h"
   9:src/../h/TCB.hpp **** #include "scheduler.hpp"
  10:src/../h/TCB.hpp **** #include "../h/riscv.hpp"
  11:src/../h/TCB.hpp **** #include "../lib/mem.h"
  12:src/../h/TCB.hpp **** #include "syscall_c.hpp"
  13:src/../h/TCB.hpp **** #include "../h/list.hpp"
  14:src/../h/TCB.hpp **** #include "syscall_cpp.hpp"
  15:src/../h/TCB.hpp **** 
  16:src/../h/TCB.hpp **** class TCB {
GAS LISTING /tmp/ccKlSPQC.s 			page 8


  17:src/../h/TCB.hpp **** public:
  18:src/../h/TCB.hpp ****     using Body = void (*)(void *);
  19:src/../h/TCB.hpp **** 
  20:src/../h/TCB.hpp ****     bool isFinished() const { return finished; }
  21:src/../h/TCB.hpp **** 
  22:src/../h/TCB.hpp ****     void setFinished(bool value) { finished = value; }
  23:src/../h/TCB.hpp **** 
  24:src/../h/TCB.hpp ****     bool isBlocked() const { return blocked; }
  25:src/../h/TCB.hpp **** 
  26:src/../h/TCB.hpp ****     void setBlocked(bool value) { blocked = value; }
 244              		.loc 4 26 35
 245              		.loc 4 26 43 is_stmt 0
 246 00d8 A30C0502 		sb	zero,57(a0)
 247              	.LVL23:
 248              	.LBE62:
 249              	.LBE61:
  33:src/_sem.cpp  ****         Scheduler::put(thread);     //
 250              		.loc 2 33 9 is_stmt 1
 251              		.loc 2 33 23 is_stmt 0
 252 00dc 97000000 		call	_ZN9Scheduler3putEP3TCB@plt
 252      E7800000 
 253              	.LVL24:
  34:src/_sem.cpp  ****         handle->blokiraneNiti.removeFirst();  // ukloni  nit iz liste
 254              		.loc 2 34 9 is_stmt 1
 255              	.LBB63:
 256              	.LBB58:
  54:src/../h/list.hpp **** 
 257              		.loc 3 54 18 is_stmt 0
 258 00e4 03B58401 		ld	a0,24(s1)
  54:src/../h/list.hpp **** 
 259              		.loc 3 54 13
 260 00e8 E30005FE 		beqz	a0,.L17
 261              	.LVL25:
  57:src/../h/list.hpp ****             if (!head) { tail = 0; }
 262              		.loc 3 57 26
 263 00ec 83378500 		ld	a5,8(a0)
  57:src/../h/list.hpp ****             if (!head) { tail = 0; }
 264              		.loc 3 57 13
 265 00f0 23BCF400 		sd	a5,24(s1)
  58:src/../h/list.hpp **** 
 266              		.loc 3 58 13
 267 00f4 E39607FC 		bnez	a5,.L18
 268 00f8 6FF05FFC 		j	.L27
 269              	.LVL26:
 270              	.L16:
 271              	.LBE58:
 272              	.LBE63:
 273              	.LBE53:
  35:src/_sem.cpp  ****     }
  36:src/_sem.cpp  **** 
  37:src/_sem.cpp  ****     if (MemoryAllocator::mem_free(handle)) {
 274              		.loc 2 37 5 is_stmt 1
 275              		.loc 2 37 34 is_stmt 0
 276 00fc 13850400 		mv	a0,s1
 277 0100 97000000 		call	_ZN15MemoryAllocator8mem_freeEPv@plt
 277      E7800000 
 278              	.LVL27:
GAS LISTING /tmp/ccKlSPQC.s 			page 9


 279              		.loc 2 37 5
 280 0108 63140502 		bnez	a0,.L28
 281              	.L14:
  38:src/_sem.cpp  ****         return -2;
  39:src/_sem.cpp  ****     }
  40:src/_sem.cpp  **** 
  41:src/_sem.cpp  ****     return 0;
  42:src/_sem.cpp  **** }
 282              		.loc 2 42 1
 283 010c 83308101 		ld	ra,24(sp)
 284              		.cfi_restore 1
 285 0110 03340101 		ld	s0,16(sp)
 286              		.cfi_restore 8
 287              		.cfi_def_cfa 2, 32
 288 0114 83348100 		ld	s1,8(sp)
 289              		.cfi_restore 9
 290              	.LVL28:
 291 0118 13010102 		addi	sp,sp,32
 292              		.cfi_def_cfa_offset 0
 293 011c 67800000 		jr	ra
 294              	.LVL29:
 295              	.L20:
  27:src/_sem.cpp  ****     }
 296              		.loc 2 27 17
 297 0120 1305F0FF 		li	a0,-1
 298              	.LVL30:
 299              		.loc 2 42 1
 300 0124 67800000 		ret
 301              	.LVL31:
 302              	.L21:
 303              		.cfi_def_cfa_register 8
 304              		.cfi_offset 1, -8
 305              		.cfi_offset 8, -16
 306              		.cfi_offset 9, -24
  27:src/_sem.cpp  ****     }
 307              		.loc 2 27 17
 308 0128 1305F0FF 		li	a0,-1
 309 012c 6FF01FFE 		j	.L14
 310              	.L28:
  38:src/_sem.cpp  ****         return -2;
 311              		.loc 2 38 17
 312 0130 1305E0FF 		li	a0,-2
 313 0134 6FF09FFD 		j	.L14
 314              		.cfi_endproc
 315              	.LFE43:
 317              		.align	2
 318              		.globl	_ZN4_sem8sem_waitEPS_
 320              	_ZN4_sem8sem_waitEPS_:
 321              	.LFB44:
  43:src/_sem.cpp  **** 
  44:src/_sem.cpp  **** 
  45:src/_sem.cpp  **** int _sem::sem_wait(sem_t id) {
 322              		.loc 2 45 30 is_stmt 1
 323              		.cfi_startproc
 324              	.LVL32:
  46:src/_sem.cpp  ****     if (id == nullptr || id->closed) {
 325              		.loc 2 46 5
GAS LISTING /tmp/ccKlSPQC.s 			page 10


 326 0138 630A050A 		beqz	a0,.L35
  45:src/_sem.cpp  ****     if (id == nullptr || id->closed) {
 327              		.loc 2 45 30 is_stmt 0 discriminator 1
 328 013c 130101FE 		addi	sp,sp,-32
 329              		.cfi_def_cfa_offset 32
 330 0140 233C1100 		sd	ra,24(sp)
 331 0144 23388100 		sd	s0,16(sp)
 332 0148 23349100 		sd	s1,8(sp)
 333 014c 23302101 		sd	s2,0(sp)
 334              		.cfi_offset 1, -8
 335              		.cfi_offset 8, -16
 336              		.cfi_offset 9, -24
 337              		.cfi_offset 18, -32
 338 0150 13040102 		addi	s0,sp,32
 339              		.cfi_def_cfa 8, 0
 340 0154 93040500 		mv	s1,a0
 341              		.loc 2 46 30 discriminator 1
 342 0158 83470501 		lbu	a5,16(a0)
 343              		.loc 2 46 23 discriminator 1
 344 015c 639C0708 		bnez	a5,.L36
  47:src/_sem.cpp  ****         return -1;
  48:src/_sem.cpp  ****     }
  49:src/_sem.cpp  ****     if (id->value == 0) {//ako je semafor nula ili manji, blokiraj nit
 345              		.loc 2 49 5 is_stmt 1
 346              		.loc 2 49 13 is_stmt 0
 347 0160 83378500 		ld	a5,8(a0)
 348              		.loc 2 49 5
 349 0164 63880702 		beqz	a5,.L42
  50:src/_sem.cpp  ****         TCB::running->setBlocked(true);  //  nit blokirana
  51:src/_sem.cpp  ****         id->blokiraneNiti.addLast(TCB::running);  // Dodaj nit na listu blokiranih
  52:src/_sem.cpp  ****         TCB::yield();
  53:src/_sem.cpp  ****     } else {
  54:src/_sem.cpp  ****         id->value--;
 350              		.loc 2 54 9 is_stmt 1
 351              		.loc 2 54 18 is_stmt 0
 352 0168 9387F7FF 		addi	a5,a5,-1
 353 016c 2334F500 		sd	a5,8(a0)
 354              	.LVL33:
 355              	.L34:
  55:src/_sem.cpp  ****     }
  56:src/_sem.cpp  ****     if (id->closed)
 356              		.loc 2 56 5 is_stmt 1
 357              		.loc 2 56 13 is_stmt 0
 358 0170 83C70401 		lbu	a5,16(s1)
 359              		.loc 2 56 5
 360 0174 63980706 		bnez	a5,.L43
  57:src/_sem.cpp  ****         return -1;
  58:src/_sem.cpp  ****     else
  59:src/_sem.cpp  ****         return 0;
 361              		.loc 2 59 16
 362 0178 13050000 		li	a0,0
 363              	.L30:
  60:src/_sem.cpp  **** }
 364              		.loc 2 60 1
 365 017c 83308101 		ld	ra,24(sp)
 366              		.cfi_remember_state
 367              		.cfi_restore 1
GAS LISTING /tmp/ccKlSPQC.s 			page 11


 368 0180 03340101 		ld	s0,16(sp)
 369              		.cfi_restore 8
 370              		.cfi_def_cfa 2, 32
 371 0184 83348100 		ld	s1,8(sp)
 372              		.cfi_restore 9
 373              	.LVL34:
 374 0188 03390100 		ld	s2,0(sp)
 375              		.cfi_restore 18
 376 018c 13010102 		addi	sp,sp,32
 377              		.cfi_def_cfa_offset 0
 378 0190 67800000 		jr	ra
 379              	.LVL35:
 380              	.L42:
 381              		.cfi_restore_state
  50:src/_sem.cpp  ****         id->blokiraneNiti.addLast(TCB::running);  // Dodaj nit na listu blokiranih
 382              		.loc 2 50 9 is_stmt 1
  50:src/_sem.cpp  ****         id->blokiraneNiti.addLast(TCB::running);  // Dodaj nit na listu blokiranih
 383              		.loc 2 50 33 is_stmt 0
 384 0194 97070000 		la	a5,_ZN3TCB7runningE
 384      83B70700 
 385 019c 03B90700 		ld	s2,0(a5)
 386              	.LVL36:
 387              	.LBB64:
 388              	.LBB65:
 389              		.loc 4 26 35 is_stmt 1
 390              		.loc 4 26 43 is_stmt 0
 391 01a0 93071000 		li	a5,1
 392 01a4 A30CF902 		sb	a5,57(s2)
 393              	.LVL37:
 394              	.LBE65:
 395              	.LBE64:
  51:src/_sem.cpp  ****         TCB::yield();
 396              		.loc 2 51 9 is_stmt 1
 397              	.LBB66:
 398              	.LBB67:
  41:src/../h/list.hpp ****             if (tail)
 399              		.loc 3 41 26 is_stmt 0
 400 01a8 13050001 		li	a0,16
 401 01ac 97000000 		call	_Znwm@plt
 401      E7800000 
 402              	.LVL38:
 403              	.LBB68:
 404              	.LBB69:
  18:src/../h/list.hpp **** 
 405              		.loc 3 18 62
 406 01b4 23302501 		sd	s2,0(a0)
 407 01b8 23340500 		sd	zero,8(a0)
 408              	.LVL39:
 409              	.LBE69:
 410              	.LBE68:
  42:src/../h/list.hpp ****             {
 411              		.loc 3 42 17
 412 01bc 83B70402 		ld	a5,32(s1)
  42:src/../h/list.hpp ****             {
 413              		.loc 3 42 13
 414 01c0 638C0700 		beqz	a5,.L32
  44:src/../h/list.hpp ****                 tail = elem;
GAS LISTING /tmp/ccKlSPQC.s 			page 12


 415              		.loc 3 44 17
 416 01c4 23B4A700 		sd	a0,8(a5)
  45:src/../h/list.hpp ****             } else
 417              		.loc 3 45 17
 418 01c8 23B0A402 		sd	a0,32(s1)
 419              	.L33:
 420              	.LVL40:
 421              	.LBE67:
 422              	.LBE66:
  52:src/_sem.cpp  ****     } else {
 423              		.loc 2 52 9 is_stmt 1
  52:src/_sem.cpp  ****     } else {
 424              		.loc 2 52 19 is_stmt 0
 425 01cc 97000000 		call	_ZN3TCB5yieldEv@plt
 425      E7800000 
 426              	.LVL41:
 427 01d4 6FF0DFF9 		j	.L34
 428              	.LVL42:
 429              	.L32:
 430              	.LBB71:
 431              	.LBB70:
  48:src/../h/list.hpp ****             }
 432              		.loc 3 48 17
 433 01d8 23B0A402 		sd	a0,32(s1)
 434 01dc 23BCA400 		sd	a0,24(s1)
 435 01e0 6FF0DFFE 		j	.L33
 436              	.LVL43:
 437              	.L43:
 438              	.LBE70:
 439              	.LBE71:
  57:src/_sem.cpp  ****     else
 440              		.loc 2 57 17
 441 01e4 1305F0FF 		li	a0,-1
 442 01e8 6FF05FF9 		j	.L30
 443              	.LVL44:
 444              	.L35:
 445              		.cfi_def_cfa_register 2
 446              		.cfi_restore 1
 447              		.cfi_restore 8
 448              		.cfi_restore 9
 449              		.cfi_restore 18
  47:src/_sem.cpp  ****     }
 450              		.loc 2 47 17
 451 01ec 1305F0FF 		li	a0,-1
 452              	.LVL45:
 453              		.loc 2 60 1
 454 01f0 67800000 		ret
 455              	.LVL46:
 456              	.L36:
 457              		.cfi_def_cfa_register 8
 458              		.cfi_offset 1, -8
 459              		.cfi_offset 8, -16
 460              		.cfi_offset 9, -24
 461              		.cfi_offset 18, -32
  47:src/_sem.cpp  ****     }
 462              		.loc 2 47 17
 463 01f4 1305F0FF 		li	a0,-1
GAS LISTING /tmp/ccKlSPQC.s 			page 13


 464 01f8 6FF05FF8 		j	.L30
 465              		.cfi_endproc
 466              	.LFE44:
 468              		.align	2
 469              		.globl	_ZN4_sem10sem_signalEPS_
 471              	_ZN4_sem10sem_signalEPS_:
 472              	.LFB45:
  61:src/_sem.cpp  **** 
  62:src/_sem.cpp  **** 
  63:src/_sem.cpp  **** int _sem::sem_signal(sem_t id) {
 473              		.loc 2 63 32 is_stmt 1
 474              		.cfi_startproc
 475              	.LVL47:
  64:src/_sem.cpp  ****     if (id == nullptr) {
 476              		.loc 2 64 5
 477 01fc 630A0508 		beqz	a0,.L48
 478 0200 93070500 		mv	a5,a0
  65:src/_sem.cpp  ****         return -1;
  66:src/_sem.cpp  ****     }
  67:src/_sem.cpp  **** 
  68:src/_sem.cpp  ****     if (id->closed) {
 479              		.loc 2 68 5
 480              		.loc 2 68 13 is_stmt 0
 481 0204 03470501 		lbu	a4,16(a0)
 482              		.loc 2 68 5
 483 0208 63180708 		bnez	a4,.L49
  69:src/_sem.cpp  ****         return -2;
  70:src/_sem.cpp  ****     }
  71:src/_sem.cpp  **** 
  72:src/_sem.cpp  ****     // da li postoji neka blokirana nit
  73:src/_sem.cpp  **** 
  74:src/_sem.cpp  ****     if (!id->blokiraneNiti.isEmpty()) {
 484              		.loc 2 74 5 is_stmt 1
 485              	.LVL48:
 486              	.LBB72:
 487              	.LBB73:
 488              	.LBB74:
  69:src/../h/list.hpp ****         }
  70:src/../h/list.hpp **** 
  71:src/../h/list.hpp ****         T *removeLast()
  72:src/../h/list.hpp ****         {
  73:src/../h/list.hpp ****             if (!head) { return 0; }
  74:src/../h/list.hpp **** 
  75:src/../h/list.hpp ****             Elem *prev = 0;
  76:src/../h/list.hpp ****             for (Elem *curr = head; curr && curr != tail; curr = curr->next)
  77:src/../h/list.hpp ****             {
  78:src/../h/list.hpp ****                 prev = curr;
  79:src/../h/list.hpp ****             }
  80:src/../h/list.hpp **** 
  81:src/../h/list.hpp ****             Elem *elem = tail;
  82:src/../h/list.hpp ****             if (prev) { prev->next = 0; }
  83:src/../h/list.hpp ****             else { head = 0; }
  84:src/../h/list.hpp ****             tail = prev;
  85:src/../h/list.hpp **** 
  86:src/../h/list.hpp ****             T *ret = elem->data;
  87:src/../h/list.hpp ****             delete elem;
  88:src/../h/list.hpp ****             return ret;
GAS LISTING /tmp/ccKlSPQC.s 			page 14


  89:src/../h/list.hpp ****         }
  90:src/../h/list.hpp **** 
  91:src/../h/list.hpp ****         T *peekLast()
  92:src/../h/list.hpp ****         {
  93:src/../h/list.hpp ****             if (!tail) { return 0; }
  94:src/../h/list.hpp ****             return tail->data;
  95:src/../h/list.hpp ****         }
  96:src/../h/list.hpp **** 
  97:src/../h/list.hpp ****         bool isEmpty() const {
  98:src/../h/list.hpp ****             return head == nullptr or tail == nullptr;
 489              		.loc 3 98 20 is_stmt 0
 490 020c 03358501 		ld	a0,24(a0)
 491              	.LVL49:
 492              		.loc 3 98 36
 493 0210 63060506 		beqz	a0,.L46
 494              		.loc 3 98 39
 495 0214 03B70702 		ld	a4,32(a5)
 496              		.loc 3 98 36
 497 0218 63020706 		beqz	a4,.L46
 498              	.LBE74:
 499              	.LBE73:
 500              	.LBE72:
  63:src/_sem.cpp  ****     if (id == nullptr) {
 501              		.loc 2 63 32
 502 021c 130101FE 		addi	sp,sp,-32
 503              		.cfi_def_cfa_offset 32
 504 0220 233C1100 		sd	ra,24(sp)
 505 0224 23388100 		sd	s0,16(sp)
 506 0228 23349100 		sd	s1,8(sp)
 507              		.cfi_offset 1, -8
 508              		.cfi_offset 8, -16
 509              		.cfi_offset 9, -24
 510 022c 13040102 		addi	s0,sp,32
 511              		.cfi_def_cfa 8, 0
 512              	.LVL50:
 513              	.LBB83:
 514              	.LBB75:
  75:src/_sem.cpp  ****         TCB *thread = id->blokiraneNiti.removeFirst();  // ako da  deblokiraj prvu
 515              		.loc 2 75 9 is_stmt 1
 516              	.LBB76:
 517              	.LBB77:
  57:src/../h/list.hpp ****             if (!head) { tail = 0; }
 518              		.loc 3 57 26 is_stmt 0
 519 0230 03378500 		ld	a4,8(a0)
  57:src/../h/list.hpp ****             if (!head) { tail = 0; }
 520              		.loc 3 57 13
 521 0234 23BCE700 		sd	a4,24(a5)
  58:src/../h/list.hpp **** 
 522              		.loc 3 58 13
 523 0238 630E0702 		beqz	a4,.L55
 524              	.L47:
  60:src/../h/list.hpp ****             delete elem;
 525              		.loc 3 60 16
 526 023c 83340500 		ld	s1,0(a0)
 527              	.LVL51:
  61:src/../h/list.hpp ****             return ret;
 528              		.loc 3 61 13
GAS LISTING /tmp/ccKlSPQC.s 			page 15


 529 0240 97000000 		call	_ZdlPv@plt
 529      E7800000 
 530              	.LVL52:
 531              	.LBE77:
 532              	.LBE76:
  76:src/_sem.cpp  ****         if (thread != nullptr) {
 533              		.loc 2 76 9 is_stmt 1
 534 0248 638C0404 		beqz	s1,.L50
  77:src/_sem.cpp  **** 
  78:src/_sem.cpp  ****             thread->setBlocked(false);  // nije blokirana
 535              		.loc 2 78 13
 536              	.LVL53:
 537              	.LBB79:
 538              	.LBB80:
 539              		.loc 4 26 35
 540              		.loc 4 26 43 is_stmt 0
 541 024c A38C0402 		sb	zero,57(s1)
 542              	.LVL54:
 543              	.LBE80:
 544              	.LBE79:
  79:src/_sem.cpp  ****             Scheduler::put(thread);  // ubaci
 545              		.loc 2 79 13 is_stmt 1
 546              		.loc 2 79 27 is_stmt 0
 547 0250 13850400 		mv	a0,s1
 548 0254 97000000 		call	_ZN9Scheduler3putEP3TCB@plt
 548      E7800000 
 549              	.LVL55:
 550              	.LBE75:
 551              	.LBE83:
  80:src/_sem.cpp  ****         }
  81:src/_sem.cpp  ****     } else {
  82:src/_sem.cpp  ****         id->value++;
  83:src/_sem.cpp  ****     }
  84:src/_sem.cpp  ****     return 0;
 552              		.loc 2 84 12
 553 025c 13050000 		li	a0,0
 554              	.L45:
  85:src/_sem.cpp  **** }
 555              		.loc 2 85 1
 556 0260 83308101 		ld	ra,24(sp)
 557              		.cfi_remember_state
 558              		.cfi_restore 1
 559 0264 03340101 		ld	s0,16(sp)
 560              		.cfi_restore 8
 561              		.cfi_def_cfa 2, 32
 562 0268 83348100 		ld	s1,8(sp)
 563              		.cfi_restore 9
 564              	.LVL56:
 565 026c 13010102 		addi	sp,sp,32
 566              		.cfi_def_cfa_offset 0
 567 0270 67800000 		jr	ra
 568              	.LVL57:
 569              	.L55:
 570              		.cfi_restore_state
 571              	.LBB84:
 572              	.LBB82:
 573              	.LBB81:
GAS LISTING /tmp/ccKlSPQC.s 			page 16


 574              	.LBB78:
  58:src/../h/list.hpp **** 
 575              		.loc 3 58 26
 576 0274 23B00702 		sd	zero,32(a5)
 577 0278 6FF05FFC 		j	.L47
 578              	.LVL58:
 579              	.L46:
 580              		.cfi_def_cfa_register 2
 581              		.cfi_restore 1
 582              		.cfi_restore 8
 583              		.cfi_restore 9
 584              	.LBE78:
 585              	.LBE81:
 586              	.LBE82:
  82:src/_sem.cpp  ****     }
 587              		.loc 2 82 9 is_stmt 1
  82:src/_sem.cpp  ****     }
 588              		.loc 2 82 13 is_stmt 0
 589 027c 03B78700 		ld	a4,8(a5)
  82:src/_sem.cpp  ****     }
 590              		.loc 2 82 18
 591 0280 13071700 		addi	a4,a4,1
 592 0284 23B4E700 		sd	a4,8(a5)
 593              	.LBE84:
  84:src/_sem.cpp  **** }
 594              		.loc 2 84 12
 595 0288 13050000 		li	a0,0
 596 028c 67800000 		ret
 597              	.LVL59:
 598              	.L48:
  65:src/_sem.cpp  ****     }
 599              		.loc 2 65 17
 600 0290 1305F0FF 		li	a0,-1
 601              	.LVL60:
 602 0294 67800000 		ret
 603              	.LVL61:
 604              	.L49:
  69:src/_sem.cpp  ****     }
 605              		.loc 2 69 17
 606 0298 1305E0FF 		li	a0,-2
 607              	.LVL62:
 608              		.loc 2 85 1
 609 029c 67800000 		ret
 610              	.LVL63:
 611              	.L50:
 612              		.cfi_def_cfa_register 8
 613              		.cfi_offset 1, -8
 614              		.cfi_offset 8, -16
 615              		.cfi_offset 9, -24
  84:src/_sem.cpp  **** }
 616              		.loc 2 84 12
 617 02a0 13050000 		li	a0,0
 618 02a4 6FF0DFFB 		j	.L45
 619              		.cfi_endproc
 620              	.LFE45:
 622              		.align	2
 623              		.globl	_ZN4_sem11sem_trywaitEPS_
GAS LISTING /tmp/ccKlSPQC.s 			page 17


 625              	_ZN4_sem11sem_trywaitEPS_:
 626              	.LFB46:
  86:src/_sem.cpp  **** 
  87:src/_sem.cpp  **** int _sem::sem_trywait(sem_t id) {
 627              		.loc 2 87 33 is_stmt 1
 628              		.cfi_startproc
 629              	.LVL64:
 630 02a8 130101FF 		addi	sp,sp,-16
 631              		.cfi_def_cfa_offset 16
 632 02ac 23348100 		sd	s0,8(sp)
 633              		.cfi_offset 8, -8
 634 02b0 13040101 		addi	s0,sp,16
 635              		.cfi_def_cfa 8, 0
  88:src/_sem.cpp  ****     if (id == nullptr) return -1;
 636              		.loc 2 88 5
 637 02b4 63020502 		beqz	a0,.L58
  89:src/_sem.cpp  ****     if (id->value <= 0) { // Ako je semafor vec zaključan, vraca 1
 638              		.loc 2 89 5
 639              		.loc 2 89 13 is_stmt 0
 640 02b8 83378500 		ld	a5,8(a0)
 641              		.loc 2 89 5
 642 02bc 6352F002 		blez	a5,.L59
  90:src/_sem.cpp  ****         return 1;
  91:src/_sem.cpp  ****     }
  92:src/_sem.cpp  ****     id->value--; // semafor nije zaključan, smanji vrednost semafora i vrati 0
 643              		.loc 2 92 5 is_stmt 1
 644              		.loc 2 92 14 is_stmt 0
 645 02c0 9387F7FF 		addi	a5,a5,-1
 646 02c4 2334F500 		sd	a5,8(a0)
  93:src/_sem.cpp  ****     return 0;
 647              		.loc 2 93 5 is_stmt 1
 648              		.loc 2 93 12 is_stmt 0
 649 02c8 13050000 		li	a0,0
 650              	.LVL65:
 651              	.L57:
  94:src/_sem.cpp  **** }
 652              		.loc 2 94 1
 653 02cc 03348100 		ld	s0,8(sp)
 654              		.cfi_remember_state
 655              		.cfi_restore 8
 656              		.cfi_def_cfa 2, 16
 657 02d0 13010101 		addi	sp,sp,16
 658              		.cfi_def_cfa_offset 0
 659 02d4 67800000 		jr	ra
 660              	.LVL66:
 661              	.L58:
 662              		.cfi_restore_state
  88:src/_sem.cpp  ****     if (id->value <= 0) { // Ako je semafor vec zaključan, vraca 1
 663              		.loc 2 88 32
 664 02d8 1305F0FF 		li	a0,-1
 665              	.LVL67:
 666 02dc 6FF01FFF 		j	.L57
 667              	.LVL68:
 668              	.L59:
  90:src/_sem.cpp  ****     }
 669              		.loc 2 90 16
 670 02e0 13051000 		li	a0,1
GAS LISTING /tmp/ccKlSPQC.s 			page 18


 671              	.LVL69:
 672 02e4 6FF09FFE 		j	.L57
 673              		.cfi_endproc
 674              	.LFE46:
 676              		.weak	_ZTV4_sem
 677              		.section	.data.rel.ro.local._ZTV4_sem,"awG",@progbits,_ZTV4_sem,comdat
 678              		.align	3
 681              	_ZTV4_sem:
 682 0000 00000000 		.dword	0
 682      00000000 
 683 0008 00000000 		.dword	0
 683      00000000 
 684 0010 00000000 		.dword	_ZN4_semD1Ev
 684      00000000 
 685 0018 00000000 		.dword	_ZN4_semD0Ev
 685      00000000 
 686              		.text
 687              	.Letext0:
 688              		.file 5 "src/../h/../lib/hw.h"
 689              		.file 6 "src/../h/MemoryAllocator.hpp"
 690              		.file 7 "src/../h/scheduler.hpp"
 691              		.file 8 "src/../h/syscall_c.hpp"
 692              		.file 9 "src/../h/syscall_cpp.hpp"
GAS LISTING /tmp/ccKlSPQC.s 			page 19

