GAS LISTING /tmp/ccM4y3ol.s 			page 1


   1              		.file	"_sem.cpp"
   2              		.option pic
   3              		.option norelax
   4              		.text
   5              	.Ltext0:
   6              		.align	2
   7              		.globl	_ZN4_sem8sem_openEPPS_j
   9              	_ZN4_sem8sem_openEPPS_j:
  10              	.LFB41:
  11              		.file 1 "src/_sem.cpp"
   1:src/_sem.cpp  **** //
   2:src/_sem.cpp  **** // Created by os on 9/13/24.
   3:src/_sem.cpp  **** //
   4:src/_sem.cpp  **** 
   5:src/_sem.cpp  **** #include "../h/_sem.hpp"
   6:src/_sem.cpp  **** #include "../h/scheduler.hpp"
   7:src/_sem.cpp  **** 
   8:src/_sem.cpp  ****  int _sem::sem_open(sem_t* handle, unsigned init){
  12              		.loc 1 8 50
  13              		.cfi_startproc
  14              	.LVL0:
   9:src/_sem.cpp  ****    if (handle == nullptr) {
  15              		.loc 1 9 4
  16 0000 630E0504 		beqz	a0,.L3
   8:src/_sem.cpp  ****    if (handle == nullptr) {
  17              		.loc 1 8 50 is_stmt 0
  18 0004 130101FE 		addi	sp,sp,-32
  19              		.cfi_def_cfa_offset 32
  20 0008 233C1100 		sd	ra,24(sp)
  21 000c 23388100 		sd	s0,16(sp)
  22 0010 23349100 		sd	s1,8(sp)
  23 0014 23302101 		sd	s2,0(sp)
  24              		.cfi_offset 1, -8
  25              		.cfi_offset 8, -16
  26              		.cfi_offset 9, -24
  27              		.cfi_offset 18, -32
  28 0018 13040102 		addi	s0,sp,32
  29              		.cfi_def_cfa 8, 0
  30 001c 93040500 		mv	s1,a0
  31 0020 13890500 		mv	s2,a1
  10:src/_sem.cpp  ****     return -1;
  11:src/_sem.cpp  ****    }
  12:src/_sem.cpp  ****    sem_t semaphore = (sem_t) MemoryAllocator::mem_alloc(sizeof(_sem));
  32              		.loc 1 12 4 is_stmt 1
  33              		.loc 1 12 56 is_stmt 0
  34 0024 13050003 		li	a0,48
  35              	.LVL1:
  36 0028 97000000 		call	_ZN15MemoryAllocator9mem_allocEm@plt
  36      E7800000 
  37              	.LVL2:
  13:src/_sem.cpp  ****    semaphore->value=init;
  38              		.loc 1 13 4 is_stmt 1
  39              		.loc 1 13 20 is_stmt 0
  40 0030 23242501 		sw	s2,8(a0)
  14:src/_sem.cpp  ****    semaphore->closed=false;
  41              		.loc 1 14 4 is_stmt 1
  42              		.loc 1 14 21 is_stmt 0
GAS LISTING /tmp/ccM4y3ol.s 			page 2


  43 0034 230C0500 		sb	zero,24(a0)
  15:src/_sem.cpp  ****    *handle=semaphore;
  44              		.loc 1 15 4 is_stmt 1
  45              		.loc 1 15 11 is_stmt 0
  46 0038 23B0A400 		sd	a0,0(s1)
  16:src/_sem.cpp  **** 
  17:src/_sem.cpp  ****    if (*handle == nullptr) {
  47              		.loc 1 17 4 is_stmt 1
  48 003c 63040502 		beqz	a0,.L4
  18:src/_sem.cpp  ****     return -2;
  19:src/_sem.cpp  ****    }
  20:src/_sem.cpp  ****    return 0;
  49              		.loc 1 20 11 is_stmt 0
  50 0040 13050000 		li	a0,0
  51              	.LVL3:
  52              	.L2:
  21:src/_sem.cpp  ****   }
  53              		.loc 1 21 3
  54 0044 83308101 		ld	ra,24(sp)
  55              		.cfi_restore 1
  56 0048 03340101 		ld	s0,16(sp)
  57              		.cfi_restore 8
  58              		.cfi_def_cfa 2, 32
  59 004c 83348100 		ld	s1,8(sp)
  60              		.cfi_restore 9
  61              	.LVL4:
  62 0050 03390100 		ld	s2,0(sp)
  63              		.cfi_restore 18
  64 0054 13010102 		addi	sp,sp,32
  65              		.cfi_def_cfa_offset 0
  66 0058 67800000 		jr	ra
  67              	.LVL5:
  68              	.L3:
  10:src/_sem.cpp  ****    }
  69              		.loc 1 10 13
  70 005c 1305F0FF 		li	a0,-1
  71              	.LVL6:
  72              		.loc 1 21 3
  73 0060 67800000 		ret
  74              	.LVL7:
  75              	.L4:
  76              		.cfi_def_cfa_register 8
  77              		.cfi_offset 1, -8
  78              		.cfi_offset 8, -16
  79              		.cfi_offset 9, -24
  80              		.cfi_offset 18, -32
  18:src/_sem.cpp  ****     return -2;
  81              		.loc 1 18 13
  82 0064 1305E0FF 		li	a0,-2
  83              	.LVL8:
  84 0068 6FF0DFFD 		j	.L2
  85              		.cfi_endproc
  86              	.LFE41:
  88              		.align	2
  89              		.globl	_ZN4_sem9sem_closeEPS_
  91              	_ZN4_sem9sem_closeEPS_:
  92              	.LFB42:
GAS LISTING /tmp/ccM4y3ol.s 			page 3


  22:src/_sem.cpp  **** 
  23:src/_sem.cpp  **** 
  24:src/_sem.cpp  **** int _sem::sem_close(sem_t handle){
  93              		.loc 1 24 34 is_stmt 1
  94              		.cfi_startproc
  95              	.LVL9:
  25:src/_sem.cpp  ****   if (handle == nullptr || handle->closed) {
  96              		.loc 1 25 3
  97 006c 6300050A 		beqz	a0,.L16
  24:src/_sem.cpp  ****   if (handle == nullptr || handle->closed) {
  98              		.loc 1 24 34 is_stmt 0 discriminator 1
  99 0070 130101FE 		addi	sp,sp,-32
 100              		.cfi_def_cfa_offset 32
 101 0074 233C1100 		sd	ra,24(sp)
 102 0078 23388100 		sd	s0,16(sp)
 103 007c 23349100 		sd	s1,8(sp)
 104              		.cfi_offset 1, -8
 105              		.cfi_offset 8, -16
 106              		.cfi_offset 9, -24
 107 0080 13040102 		addi	s0,sp,32
 108              		.cfi_def_cfa 8, 0
 109 0084 93040500 		mv	s1,a0
 110              		.loc 1 25 36 discriminator 1
 111 0088 83478501 		lbu	a5,24(a0)
 112              		.loc 1 25 25 discriminator 1
 113 008c 63940708 		bnez	a5,.L17
  26:src/_sem.cpp  ****    return -1;
  27:src/_sem.cpp  ****   }
  28:src/_sem.cpp  **** 
  29:src/_sem.cpp  ****   handle->closed = true;
 114              		.loc 1 29 3 is_stmt 1
 115              		.loc 1 29 18 is_stmt 0
 116 0090 93071000 		li	a5,1
 117 0094 230CF500 		sb	a5,24(a0)
  30:src/_sem.cpp  ****   for (TCB* thread = handle->blokiraneNiti.peekFirst(); thread != nullptr; thread = handle->blokira
 118              		.loc 1 30 3 is_stmt 1
 119              	.LVL10:
 120              	.LBB26:
 121              	.LBB27:
 122              	.LBB28:
 123              		.file 2 "src/../h/list.hpp"
   1:src/../h/list.hpp **** //
   2:src/../h/list.hpp **** // Created by os on 9/13/24.
   3:src/../h/list.hpp **** //
   4:src/../h/list.hpp **** 
   5:src/../h/list.hpp **** #ifndef LIST_HPP
   6:src/../h/list.hpp **** #define LIST_HPP
   7:src/../h/list.hpp **** 
   8:src/../h/list.hpp **** #include "../lib/mem.h"
   9:src/../h/list.hpp **** #include "MemoryAllocator.hpp"
  10:src/../h/list.hpp **** template<typename T>
  11:src/../h/list.hpp **** class List{
  12:src/../h/list.hpp ****         private:
  13:src/../h/list.hpp ****         struct Elem
  14:src/../h/list.hpp ****         {
  15:src/../h/list.hpp ****             T *data;
  16:src/../h/list.hpp ****             Elem *next;
GAS LISTING /tmp/ccM4y3ol.s 			page 4


  17:src/../h/list.hpp **** 
  18:src/../h/list.hpp ****             Elem(T *data, Elem *next) : data(data), next(next) {}
  19:src/../h/list.hpp **** 
  20:src/../h/list.hpp ****         };
  21:src/../h/list.hpp **** 
  22:src/../h/list.hpp ****         public:
  23:src/../h/list.hpp **** 
  24:src/../h/list.hpp ****         Elem *head, *tail;
  25:src/../h/list.hpp ****         List() : head(0), tail(0) {}
  26:src/../h/list.hpp **** 
  27:src/../h/list.hpp ****         List(const List<T> &) = delete;
  28:src/../h/list.hpp **** 
  29:src/../h/list.hpp **** 
  30:src/../h/list.hpp ****         List<T> &operator=(const List<T> &) = delete;
  31:src/../h/list.hpp **** 
  32:src/../h/list.hpp ****         void addFirst(T *data)
  33:src/../h/list.hpp ****         {
  34:src/../h/list.hpp ****             Elem *elem = new Elem(data, head);
  35:src/../h/list.hpp ****             head = elem;
  36:src/../h/list.hpp ****             if (!tail) { tail = head; }
  37:src/../h/list.hpp ****         }
  38:src/../h/list.hpp **** 
  39:src/../h/list.hpp ****         void addLast(T *data)
  40:src/../h/list.hpp ****         {
  41:src/../h/list.hpp ****             Elem *elem = new Elem(data, 0);
  42:src/../h/list.hpp ****             if (tail)
  43:src/../h/list.hpp ****             {
  44:src/../h/list.hpp ****                 tail->next = elem;
  45:src/../h/list.hpp ****                 tail = elem;
  46:src/../h/list.hpp ****             } else
  47:src/../h/list.hpp ****             {
  48:src/../h/list.hpp ****                 head = tail = elem;
  49:src/../h/list.hpp ****             }
  50:src/../h/list.hpp ****         }
  51:src/../h/list.hpp **** 
  52:src/../h/list.hpp ****         T *removeFirst()
  53:src/../h/list.hpp ****         {
  54:src/../h/list.hpp ****             if (!head) { return 0; }
  55:src/../h/list.hpp **** 
  56:src/../h/list.hpp ****             Elem *elem = head;
  57:src/../h/list.hpp ****             head = head->next;
  58:src/../h/list.hpp ****             if (!head) { tail = 0; }
  59:src/../h/list.hpp **** 
  60:src/../h/list.hpp ****             T *ret = elem->data;
  61:src/../h/list.hpp ****             delete elem;
  62:src/../h/list.hpp ****             return ret;
  63:src/../h/list.hpp ****         }
  64:src/../h/list.hpp **** 
  65:src/../h/list.hpp ****         T *peekFirst()
  66:src/../h/list.hpp ****         {
  67:src/../h/list.hpp ****             if (!head) { return 0; }
 124              		.loc 2 67 18 is_stmt 0
 125 0098 03350502 		ld	a0,32(a0)
 126              	.LVL11:
 127              		.loc 2 67 13
 128 009c 63020502 		beqz	a0,.L15
  68:src/../h/list.hpp ****             return head->data;
GAS LISTING /tmp/ccM4y3ol.s 			page 5


 129              		.loc 2 68 26
 130 00a0 03350500 		ld	a0,0(a0)
 131 00a4 6F00C001 		j	.L15
 132              	.LVL12:
 133              	.L23:
 134              	.LBE28:
 135              	.LBE27:
 136              	.LBB29:
 137              	.LBB30:
  58:src/../h/list.hpp **** 
 138              		.loc 2 58 26
 139 00a8 23B40402 		sd	zero,40(s1)
 140              	.L14:
 141              	.LVL13:
  61:src/../h/list.hpp ****             return ret;
 142              		.loc 2 61 13
 143 00ac 97000000 		call	_ZdlPv@plt
 143      E7800000 
 144              	.LVL14:
 145              	.L13:
 146              	.LBE30:
 147              	.LBE29:
 148              		.loc 1 30 3 is_stmt 1
 149              	.LBB32:
 150              	.LBB33:
  67:src/../h/list.hpp ****             return head->data;
 151              		.loc 2 67 18 is_stmt 0
 152 00b4 83B70402 		ld	a5,32(s1)
  67:src/../h/list.hpp ****             return head->data;
 153              		.loc 2 67 13
 154 00b8 63880702 		beqz	a5,.L12
 155              		.loc 2 68 26
 156 00bc 03B50700 		ld	a0,0(a5)
 157              	.LVL15:
 158              	.L15:
 159              	.LBE33:
 160              	.LBE32:
 161              		.loc 1 30 64 is_stmt 1 discriminator 3
 162 00c0 63040502 		beqz	a0,.L12
  31:src/_sem.cpp  ****    thread->setBlocked(false);  // Oznaci nit kao deblokiranu
 163              		.loc 1 31 4
 164              	.LVL16:
 165              	.LBB34:
 166              	.LBB35:
 167              		.file 3 "src/../h/TCB.hpp"
   1:src/../h/TCB.hpp **** //
   2:src/../h/TCB.hpp **** // Created by os on 9/13/24.
   3:src/../h/TCB.hpp **** //
   4:src/../h/TCB.hpp **** 
   5:src/../h/TCB.hpp **** #ifndef TCB_HPP
   6:src/../h/TCB.hpp **** #define TCB_HPP
   7:src/../h/TCB.hpp **** #include "../lib/hw.h"
   8:src/../h/TCB.hpp **** #include "scheduler.hpp"
   9:src/../h/TCB.hpp **** #include "../h/riscv.hpp"
  10:src/../h/TCB.hpp **** #include "../lib/mem.h"
  11:src/../h/TCB.hpp **** #include "syscall_c.hpp"
  12:src/../h/TCB.hpp **** 
GAS LISTING /tmp/ccM4y3ol.s 			page 6


  13:src/../h/TCB.hpp **** class TCB {
  14:src/../h/TCB.hpp ****   public:
  15:src/../h/TCB.hpp ****     using Body = void (*)(void*);
  16:src/../h/TCB.hpp ****     bool isFinished() const { return finished; }
  17:src/../h/TCB.hpp ****     void setFinished(bool value) { finished = value; }
  18:src/../h/TCB.hpp **** 
  19:src/../h/TCB.hpp ****     bool isBlocked() const { return blocked; }
  20:src/../h/TCB.hpp ****     void setBlocked(bool value) { blocked = value; }
 168              		.loc 3 20 35
 169              		.loc 3 20 43 is_stmt 0
 170 00c4 A3040502 		sb	zero,41(a0)
 171              	.LVL17:
 172              	.LBE35:
 173              	.LBE34:
  32:src/_sem.cpp  ****    Scheduler::put(thread);     //
 174              		.loc 1 32 4 is_stmt 1
 175              		.loc 1 32 18 is_stmt 0
 176 00c8 97000000 		call	_ZN9Scheduler3putEP3TCB@plt
 176      E7800000 
 177              	.LVL18:
  33:src/_sem.cpp  ****    handle->blokiraneNiti.removeFirst();  // ukloni  nit iz liste
 178              		.loc 1 33 4 is_stmt 1
 179              	.LBB36:
 180              	.LBB31:
  54:src/../h/list.hpp **** 
 181              		.loc 2 54 18 is_stmt 0
 182 00d0 03B50402 		ld	a0,32(s1)
  54:src/../h/list.hpp **** 
 183              		.loc 2 54 13
 184 00d4 E30005FE 		beqz	a0,.L13
 185              	.LVL19:
  57:src/../h/list.hpp ****             if (!head) { tail = 0; }
 186              		.loc 2 57 26
 187 00d8 83378500 		ld	a5,8(a0)
  57:src/../h/list.hpp ****             if (!head) { tail = 0; }
 188              		.loc 2 57 13
 189 00dc 23B0F402 		sd	a5,32(s1)
  58:src/../h/list.hpp **** 
 190              		.loc 2 58 13
 191 00e0 E39607FC 		bnez	a5,.L14
 192 00e4 6FF05FFC 		j	.L23
 193              	.LVL20:
 194              	.L12:
 195              	.LBE31:
 196              	.LBE36:
 197              	.LBE26:
  34:src/_sem.cpp  ****   }
  35:src/_sem.cpp  **** 
  36:src/_sem.cpp  ****   if (MemoryAllocator::mem_free(handle)) {
 198              		.loc 1 36 3 is_stmt 1
 199              		.loc 1 36 32 is_stmt 0
 200 00e8 13850400 		mv	a0,s1
 201 00ec 97000000 		call	_ZN15MemoryAllocator8mem_freeEPv@plt
 201      E7800000 
 202              	.LVL21:
 203              		.loc 1 36 3
 204 00f4 63140502 		bnez	a0,.L24
GAS LISTING /tmp/ccM4y3ol.s 			page 7


 205              	.L10:
  37:src/_sem.cpp  ****    return -2;
  38:src/_sem.cpp  ****   }
  39:src/_sem.cpp  **** 
  40:src/_sem.cpp  ****   return 0;
  41:src/_sem.cpp  ****  }
 206              		.loc 1 41 2
 207 00f8 83308101 		ld	ra,24(sp)
 208              		.cfi_restore 1
 209 00fc 03340101 		ld	s0,16(sp)
 210              		.cfi_restore 8
 211              		.cfi_def_cfa 2, 32
 212 0100 83348100 		ld	s1,8(sp)
 213              		.cfi_restore 9
 214              	.LVL22:
 215 0104 13010102 		addi	sp,sp,32
 216              		.cfi_def_cfa_offset 0
 217 0108 67800000 		jr	ra
 218              	.LVL23:
 219              	.L16:
  26:src/_sem.cpp  ****   }
 220              		.loc 1 26 12
 221 010c 1305F0FF 		li	a0,-1
 222              	.LVL24:
 223              		.loc 1 41 2
 224 0110 67800000 		ret
 225              	.LVL25:
 226              	.L17:
 227              		.cfi_def_cfa_register 8
 228              		.cfi_offset 1, -8
 229              		.cfi_offset 8, -16
 230              		.cfi_offset 9, -24
  26:src/_sem.cpp  ****   }
 231              		.loc 1 26 12
 232 0114 1305F0FF 		li	a0,-1
 233 0118 6FF01FFE 		j	.L10
 234              	.L24:
  37:src/_sem.cpp  ****    return -2;
 235              		.loc 1 37 12
 236 011c 1305E0FF 		li	a0,-2
 237 0120 6FF09FFD 		j	.L10
 238              		.cfi_endproc
 239              	.LFE42:
 241              		.align	2
 242              		.globl	_ZN4_sem8sem_waitEPS_
 244              	_ZN4_sem8sem_waitEPS_:
 245              	.LFB43:
  42:src/_sem.cpp  **** 
  43:src/_sem.cpp  **** 
  44:src/_sem.cpp  **** int _sem::sem_wait(sem_t id){
 246              		.loc 1 44 29 is_stmt 1
 247              		.cfi_startproc
 248              	.LVL26:
 249 0124 130101FF 		addi	sp,sp,-16
 250              		.cfi_def_cfa_offset 16
 251 0128 23348100 		sd	s0,8(sp)
 252              		.cfi_offset 8, -8
GAS LISTING /tmp/ccM4y3ol.s 			page 8


 253 012c 13040101 		addi	s0,sp,16
 254              		.cfi_def_cfa 8, 0
  45:src/_sem.cpp  ****   if (id == nullptr || id->closed) {
 255              		.loc 1 45 3
 256 0130 63040502 		beqz	a0,.L27
 257              		.loc 1 45 28 is_stmt 0 discriminator 1
 258 0134 83478501 		lbu	a5,24(a0)
 259              		.loc 1 45 21 discriminator 1
 260 0138 63940702 		bnez	a5,.L28
  46:src/_sem.cpp  ****    return -1;
  47:src/_sem.cpp  ****   }
  48:src/_sem.cpp  **** 
  49:src/_sem.cpp  ****   if (id->value < 0) {//ako je semafor nula ili manji, blokiraj nit
 261              		.loc 1 49 3 is_stmt 1
 262              	.LBB37:
  50:src/_sem.cpp  ****    TCB* currentThread = Scheduler::get();  //  trenutna nit
  51:src/_sem.cpp  ****    currentThread->setBlocked(true);  //  nit blokirana
  52:src/_sem.cpp  ****    id->blokiraneNiti.addLast(currentThread);  // Dodaj nit na listu blokiranih
  53:src/_sem.cpp  ****    TCB::yield();
  54:src/_sem.cpp  **** 
  55:src/_sem.cpp  ****    return 0;
  56:src/_sem.cpp  ****   } else  {
  57:src/_sem.cpp  ****    id->value--;
 263              		.loc 1 57 4
 264              		.loc 1 57 8 is_stmt 0
 265 013c 83278500 		lw	a5,8(a0)
 266              		.loc 1 57 13
 267 0140 9B87F7FF 		addiw	a5,a5,-1
 268 0144 2324F500 		sw	a5,8(a0)
  58:src/_sem.cpp  ****    return 0;
 269              		.loc 1 58 4 is_stmt 1
 270              		.loc 1 58 11 is_stmt 0
 271 0148 13050000 		li	a0,0
 272              	.LVL27:
 273              	.L26:
 274              	.LBE37:
  59:src/_sem.cpp  ****   }
  60:src/_sem.cpp  ****  }
 275              		.loc 1 60 2
 276 014c 03348100 		ld	s0,8(sp)
 277              		.cfi_remember_state
 278              		.cfi_restore 8
 279              		.cfi_def_cfa 2, 16
 280 0150 13010101 		addi	sp,sp,16
 281              		.cfi_def_cfa_offset 0
 282 0154 67800000 		jr	ra
 283              	.LVL28:
 284              	.L27:
 285              		.cfi_restore_state
  46:src/_sem.cpp  ****   }
 286              		.loc 1 46 12
 287 0158 1305F0FF 		li	a0,-1
 288              	.LVL29:
 289 015c 6FF01FFF 		j	.L26
 290              	.LVL30:
 291              	.L28:
 292 0160 1305F0FF 		li	a0,-1
GAS LISTING /tmp/ccM4y3ol.s 			page 9


 293              	.LVL31:
 294 0164 6FF09FFE 		j	.L26
 295              		.cfi_endproc
 296              	.LFE43:
 298              		.align	2
 299              		.globl	_ZN4_sem10sem_signalEPS_
 301              	_ZN4_sem10sem_signalEPS_:
 302              	.LFB44:
  61:src/_sem.cpp  **** 
  62:src/_sem.cpp  **** 
  63:src/_sem.cpp  **** int _sem::sem_signal(sem_t id) {
 303              		.loc 1 63 32 is_stmt 1
 304              		.cfi_startproc
 305              	.LVL32:
  64:src/_sem.cpp  ****   if (id == nullptr) {
 306              		.loc 1 64 3
 307 0168 63080508 		beqz	a0,.L34
 308 016c 93070500 		mv	a5,a0
  65:src/_sem.cpp  ****    return -1;
  66:src/_sem.cpp  ****   }
  67:src/_sem.cpp  **** 
  68:src/_sem.cpp  ****   if (id->closed) {
 309              		.loc 1 68 3
 310              		.loc 1 68 11 is_stmt 0
 311 0170 03478501 		lbu	a4,24(a0)
 312              		.loc 1 68 3
 313 0174 63160708 		bnez	a4,.L35
  69:src/_sem.cpp  ****    return -2;
  70:src/_sem.cpp  ****   }
  71:src/_sem.cpp  **** 
  72:src/_sem.cpp  ****   // da li postoji neka blokirana nit
  73:src/_sem.cpp  ****   if (!id->blokiraneNiti.isEmpty()) {
 314              		.loc 1 73 3 is_stmt 1
 315              	.LVL33:
 316              	.LBB38:
 317              	.LBB39:
 318              	.LBB40:
  69:src/../h/list.hpp ****         }
  70:src/../h/list.hpp **** 
  71:src/../h/list.hpp ****         T *removeLast()
  72:src/../h/list.hpp ****         {
  73:src/../h/list.hpp ****             if (!head) { return 0; }
  74:src/../h/list.hpp **** 
  75:src/../h/list.hpp ****             Elem *prev = 0;
  76:src/../h/list.hpp ****             for (Elem *curr = head; curr && curr != tail; curr = curr->next)
  77:src/../h/list.hpp ****             {
  78:src/../h/list.hpp ****                 prev = curr;
  79:src/../h/list.hpp ****             }
  80:src/../h/list.hpp **** 
  81:src/../h/list.hpp ****             Elem *elem = tail;
  82:src/../h/list.hpp ****             if (prev) { prev->next = 0; }
  83:src/../h/list.hpp ****             else { head = 0; }
  84:src/../h/list.hpp ****             tail = prev;
  85:src/../h/list.hpp **** 
  86:src/../h/list.hpp ****             T *ret = elem->data;
  87:src/../h/list.hpp ****             delete elem;
  88:src/../h/list.hpp ****             return ret;
GAS LISTING /tmp/ccM4y3ol.s 			page 10


  89:src/../h/list.hpp ****         }
  90:src/../h/list.hpp **** 
  91:src/../h/list.hpp ****         T *peekLast()
  92:src/../h/list.hpp ****         {
  93:src/../h/list.hpp ****             if (!tail) { return 0; }
  94:src/../h/list.hpp ****             return tail->data;
  95:src/../h/list.hpp ****         }
  96:src/../h/list.hpp **** 
  97:src/../h/list.hpp ****         bool isEmpty() const {
  98:src/../h/list.hpp ****             return head == nullptr;
 319              		.loc 2 98 20 is_stmt 0
 320 0178 03350502 		ld	a0,32(a0)
 321              	.LVL34:
 322              	.LBE40:
 323              	.LBE39:
 324              		.loc 1 73 3
 325 017c 63040506 		beqz	a0,.L32
 326              	.LBB41:
  74:src/_sem.cpp  ****    TCB* thread = id->blokiraneNiti.removeFirst();  // ako da  deblokiraj prvu
 327              		.loc 1 74 4 is_stmt 1
 328              	.LVL35:
 329              	.LBB42:
 330              	.LBB43:
  54:src/../h/list.hpp **** 
 331              		.loc 2 54 13 is_stmt 0
 332 0180 63040508 		beqz	a0,.L36
 333              	.LBE43:
 334              	.LBE42:
 335              	.LBE41:
 336              	.LBE38:
  63:src/_sem.cpp  ****   if (id == nullptr) {
 337              		.loc 1 63 32
 338 0184 130101FE 		addi	sp,sp,-32
 339              		.cfi_def_cfa_offset 32
 340 0188 233C1100 		sd	ra,24(sp)
 341 018c 23388100 		sd	s0,16(sp)
 342 0190 23349100 		sd	s1,8(sp)
 343              		.cfi_offset 1, -8
 344              		.cfi_offset 8, -16
 345              		.cfi_offset 9, -24
 346 0194 13040102 		addi	s0,sp,32
 347              		.cfi_def_cfa 8, 0
 348              	.LVL36:
 349              	.LBB52:
 350              	.LBB50:
 351              	.LBB46:
 352              	.LBB44:
  57:src/../h/list.hpp ****             if (!head) { tail = 0; }
 353              		.loc 2 57 26
 354 0198 03378500 		ld	a4,8(a0)
  57:src/../h/list.hpp ****             if (!head) { tail = 0; }
 355              		.loc 2 57 13
 356 019c 23B0E702 		sd	a4,32(a5)
  58:src/../h/list.hpp **** 
 357              		.loc 2 58 13
 358 01a0 630E0702 		beqz	a4,.L42
 359              	.L33:
GAS LISTING /tmp/ccM4y3ol.s 			page 11


  60:src/../h/list.hpp ****             delete elem;
 360              		.loc 2 60 16
 361 01a4 83340500 		ld	s1,0(a0)
 362              	.LVL37:
  61:src/../h/list.hpp ****             return ret;
 363              		.loc 2 61 13
 364 01a8 97000000 		call	_ZdlPv@plt
 364      E7800000 
 365              	.LVL38:
 366              	.LBE44:
 367              	.LBE46:
  75:src/_sem.cpp  ****    if (thread != nullptr) {
 368              		.loc 1 75 4 is_stmt 1
 369 01b0 63800406 		beqz	s1,.L37
  76:src/_sem.cpp  ****     thread->setBlocked(false);  // nije blokirana
 370              		.loc 1 76 5
 371              	.LVL39:
 372              	.LBB47:
 373              	.LBB48:
 374              		.loc 3 20 35
 375              		.loc 3 20 43 is_stmt 0
 376 01b4 A3840402 		sb	zero,41(s1)
 377              	.LVL40:
 378              	.LBE48:
 379              	.LBE47:
  77:src/_sem.cpp  ****     Scheduler::put(thread);  // ubaci
 380              		.loc 1 77 5 is_stmt 1
 381              		.loc 1 77 19 is_stmt 0
 382 01b8 13850400 		mv	a0,s1
 383 01bc 97000000 		call	_ZN9Scheduler3putEP3TCB@plt
 383      E7800000 
 384              	.LVL41:
 385              	.LBE50:
 386              	.LBE52:
  78:src/_sem.cpp  ****    }
  79:src/_sem.cpp  ****   } else {   /// nema blokiranih niti, samo povecaj vrednost semafora
  80:src/_sem.cpp  ****    id->value++;
  81:src/_sem.cpp  ****   }
  82:src/_sem.cpp  **** 
  83:src/_sem.cpp  ****   return 0;
 387              		.loc 1 83 10
 388 01c4 13050000 		li	a0,0
 389              	.L31:
 390              	.LVL42:
  84:src/_sem.cpp  ****  }
 391              		.loc 1 84 2
 392 01c8 83308101 		ld	ra,24(sp)
 393              		.cfi_remember_state
 394              		.cfi_restore 1
 395 01cc 03340101 		ld	s0,16(sp)
 396              		.cfi_restore 8
 397              		.cfi_def_cfa 2, 32
 398 01d0 83348100 		ld	s1,8(sp)
 399              		.cfi_restore 9
 400 01d4 13010102 		addi	sp,sp,32
 401              		.cfi_def_cfa_offset 0
 402 01d8 67800000 		jr	ra
GAS LISTING /tmp/ccM4y3ol.s 			page 12


 403              	.LVL43:
 404              	.L42:
 405              		.cfi_restore_state
 406              	.LBB53:
 407              	.LBB51:
 408              	.LBB49:
 409              	.LBB45:
  58:src/../h/list.hpp **** 
 410              		.loc 2 58 26
 411 01dc 23B40702 		sd	zero,40(a5)
 412 01e0 6FF05FFC 		j	.L33
 413              	.LVL44:
 414              	.L32:
 415              		.cfi_def_cfa_register 2
 416              		.cfi_restore 1
 417              		.cfi_restore 8
 418              		.cfi_restore 9
 419              	.LBE45:
 420              	.LBE49:
 421              	.LBE51:
  80:src/_sem.cpp  ****   }
 422              		.loc 1 80 4 is_stmt 1
  80:src/_sem.cpp  ****   }
 423              		.loc 1 80 8 is_stmt 0
 424 01e4 03A78700 		lw	a4,8(a5)
  80:src/_sem.cpp  ****   }
 425              		.loc 1 80 13
 426 01e8 1B071700 		addiw	a4,a4,1
 427 01ec 23A4E700 		sw	a4,8(a5)
 428              	.LBE53:
  83:src/_sem.cpp  ****  }
 429              		.loc 1 83 10
 430 01f0 13050000 		li	a0,0
 431 01f4 67800000 		ret
 432              	.LVL45:
 433              	.L34:
  65:src/_sem.cpp  ****   }
 434              		.loc 1 65 12
 435 01f8 1305F0FF 		li	a0,-1
 436              	.LVL46:
 437 01fc 67800000 		ret
 438              	.LVL47:
 439              	.L35:
  69:src/_sem.cpp  ****   }
 440              		.loc 1 69 12
 441 0200 1305E0FF 		li	a0,-2
 442              	.LVL48:
 443 0204 67800000 		ret
 444              	.LVL49:
 445              	.L36:
  83:src/_sem.cpp  ****  }
 446              		.loc 1 83 10
 447 0208 13050000 		li	a0,0
 448              	.LVL50:
 449              		.loc 1 84 2
 450 020c 67800000 		ret
 451              	.LVL51:
GAS LISTING /tmp/ccM4y3ol.s 			page 13


 452              	.L37:
 453              		.cfi_def_cfa_register 8
 454              		.cfi_offset 1, -8
 455              		.cfi_offset 8, -16
 456              		.cfi_offset 9, -24
  83:src/_sem.cpp  ****  }
 457              		.loc 1 83 10
 458 0210 13050000 		li	a0,0
 459 0214 6FF05FFB 		j	.L31
 460              		.cfi_endproc
 461              	.LFE44:
 463              		.align	2
 464              		.globl	_ZN4_sem11sem_trywaitEPS_
 466              	_ZN4_sem11sem_trywaitEPS_:
 467              	.LFB45:
  85:src/_sem.cpp  **** 
  86:src/_sem.cpp  **** int _sem::sem_trywait(sem_t id) {
 468              		.loc 1 86 33 is_stmt 1
 469              		.cfi_startproc
 470              	.LVL52:
 471 0218 130101FF 		addi	sp,sp,-16
 472              		.cfi_def_cfa_offset 16
 473 021c 23348100 		sd	s0,8(sp)
 474              		.cfi_offset 8, -8
 475 0220 13040101 		addi	s0,sp,16
 476              		.cfi_def_cfa 8, 0
  87:src/_sem.cpp  ****   if (id == nullptr) return -1;
 477              		.loc 1 87 3
 478 0224 63020502 		beqz	a0,.L45
  88:src/_sem.cpp  ****   if (id->value == 0) { // Ako je semafor vec zaključan, vraca 1
 479              		.loc 1 88 3
 480              		.loc 1 88 11 is_stmt 0
 481 0228 83278500 		lw	a5,8(a0)
 482              		.loc 1 88 3
 483 022c 63820702 		beqz	a5,.L46
  89:src/_sem.cpp  ****    return 1;
  90:src/_sem.cpp  ****   }
  91:src/_sem.cpp  ****   id->value--; // semafor nije zaključan, smanji vrednost semafora i vrati 0
 484              		.loc 1 91 3 is_stmt 1
 485              		.loc 1 91 12 is_stmt 0
 486 0230 9B87F7FF 		addiw	a5,a5,-1
 487 0234 2324F500 		sw	a5,8(a0)
  92:src/_sem.cpp  ****   return 0;
 488              		.loc 1 92 3 is_stmt 1
 489              		.loc 1 92 10 is_stmt 0
 490 0238 13050000 		li	a0,0
 491              	.LVL53:
 492              	.L44:
  93:src/_sem.cpp  ****  }
 493              		.loc 1 93 2
 494 023c 03348100 		ld	s0,8(sp)
 495              		.cfi_remember_state
 496              		.cfi_restore 8
 497              		.cfi_def_cfa 2, 16
 498 0240 13010101 		addi	sp,sp,16
 499              		.cfi_def_cfa_offset 0
 500 0244 67800000 		jr	ra
GAS LISTING /tmp/ccM4y3ol.s 			page 14


 501              	.LVL54:
 502              	.L45:
 503              		.cfi_restore_state
  87:src/_sem.cpp  ****   if (id->value == 0) { // Ako je semafor vec zaključan, vraca 1
 504              		.loc 1 87 30
 505 0248 1305F0FF 		li	a0,-1
 506              	.LVL55:
 507 024c 6FF01FFF 		j	.L44
 508              	.LVL56:
 509              	.L46:
  89:src/_sem.cpp  ****   }
 510              		.loc 1 89 11
 511 0250 13051000 		li	a0,1
 512              	.LVL57:
 513 0254 6FF09FFE 		j	.L44
 514              		.cfi_endproc
 515              	.LFE45:
 517              	.Letext0:
 518              		.file 4 "src/../h/../lib/hw.h"
 519              		.file 5 "src/../h/MemoryAllocator.hpp"
 520              		.file 6 "src/../h/scheduler.hpp"
 521              		.file 7 "src/../h/syscall_c.hpp"
 522              		.file 8 "src/../h/_sem.hpp"
GAS LISTING /tmp/ccM4y3ol.s 			page 15


DEFINED SYMBOLS
                            *ABS*:0000000000000000 _sem.cpp
     /tmp/ccM4y3ol.s:9      .text:0000000000000000 _ZN4_sem8sem_openEPPS_j
     /tmp/ccM4y3ol.s:13     .text:0000000000000000 .L0 
     /tmp/ccM4y3ol.s:15     .text:0000000000000000 .L0 
     /tmp/ccM4y3ol.s:16     .text:0000000000000000 .L0 
     /tmp/ccM4y3ol.s:18     .text:0000000000000004 .L0 
     /tmp/ccM4y3ol.s:19     .text:0000000000000008 .L0 
     /tmp/ccM4y3ol.s:24     .text:0000000000000018 .L0 
     /tmp/ccM4y3ol.s:25     .text:0000000000000018 .L0 
     /tmp/ccM4y3ol.s:26     .text:0000000000000018 .L0 
     /tmp/ccM4y3ol.s:27     .text:0000000000000018 .L0 
     /tmp/ccM4y3ol.s:29     .text:000000000000001c .L0 
     /tmp/ccM4y3ol.s:33     .text:0000000000000024 .L0 
     /tmp/ccM4y3ol.s:34     .text:0000000000000024 .L0 
     /tmp/ccM4y3ol.s:39     .text:0000000000000030 .L0 
     /tmp/ccM4y3ol.s:40     .text:0000000000000030 .L0 
     /tmp/ccM4y3ol.s:42     .text:0000000000000034 .L0 
     /tmp/ccM4y3ol.s:43     .text:0000000000000034 .L0 
     /tmp/ccM4y3ol.s:45     .text:0000000000000038 .L0 
     /tmp/ccM4y3ol.s:46     .text:0000000000000038 .L0 
     /tmp/ccM4y3ol.s:48     .text:000000000000003c .L0 
     /tmp/ccM4y3ol.s:50     .text:0000000000000040 .L0 
     /tmp/ccM4y3ol.s:54     .text:0000000000000044 .L0 
     /tmp/ccM4y3ol.s:55     .text:0000000000000048 .L0 
     /tmp/ccM4y3ol.s:57     .text:000000000000004c .L0 
     /tmp/ccM4y3ol.s:58     .text:000000000000004c .L0 
     /tmp/ccM4y3ol.s:60     .text:0000000000000050 .L0 
     /tmp/ccM4y3ol.s:63     .text:0000000000000054 .L0 
     /tmp/ccM4y3ol.s:65     .text:0000000000000058 .L0 
     /tmp/ccM4y3ol.s:70     .text:000000000000005c .L0 
     /tmp/ccM4y3ol.s:73     .text:0000000000000060 .L0 
     /tmp/ccM4y3ol.s:76     .text:0000000000000064 .L0 
     /tmp/ccM4y3ol.s:77     .text:0000000000000064 .L0 
     /tmp/ccM4y3ol.s:78     .text:0000000000000064 .L0 
     /tmp/ccM4y3ol.s:79     .text:0000000000000064 .L0 
     /tmp/ccM4y3ol.s:80     .text:0000000000000064 .L0 
     /tmp/ccM4y3ol.s:82     .text:0000000000000064 .L0 
     /tmp/ccM4y3ol.s:85     .text:000000000000006c .L0 
     /tmp/ccM4y3ol.s:91     .text:000000000000006c _ZN4_sem9sem_closeEPS_
     /tmp/ccM4y3ol.s:94     .text:000000000000006c .L0 
     /tmp/ccM4y3ol.s:96     .text:000000000000006c .L0 
     /tmp/ccM4y3ol.s:97     .text:000000000000006c .L0 
     /tmp/ccM4y3ol.s:99     .text:0000000000000070 .L0 
     /tmp/ccM4y3ol.s:100    .text:0000000000000074 .L0 
     /tmp/ccM4y3ol.s:104    .text:0000000000000080 .L0 
     /tmp/ccM4y3ol.s:105    .text:0000000000000080 .L0 
     /tmp/ccM4y3ol.s:106    .text:0000000000000080 .L0 
     /tmp/ccM4y3ol.s:108    .text:0000000000000084 .L0 
     /tmp/ccM4y3ol.s:111    .text:0000000000000088 .L0 
     /tmp/ccM4y3ol.s:113    .text:000000000000008c .L0 
     /tmp/ccM4y3ol.s:115    .text:0000000000000090 .L0 
     /tmp/ccM4y3ol.s:116    .text:0000000000000090 .L0 
     /tmp/ccM4y3ol.s:124    .text:0000000000000098 .L0 
     /tmp/ccM4y3ol.s:125    .text:0000000000000098 .L0 
     /tmp/ccM4y3ol.s:128    .text:000000000000009c .L0 
     /tmp/ccM4y3ol.s:130    .text:00000000000000a0 .L0 
GAS LISTING /tmp/ccM4y3ol.s 			page 16


     /tmp/ccM4y3ol.s:139    .text:00000000000000a8 .L0 
     /tmp/ccM4y3ol.s:143    .text:00000000000000ac .L0 
     /tmp/ccM4y3ol.s:151    .text:00000000000000b4 .L0 
     /tmp/ccM4y3ol.s:152    .text:00000000000000b4 .L0 
     /tmp/ccM4y3ol.s:154    .text:00000000000000b8 .L0 
     /tmp/ccM4y3ol.s:156    .text:00000000000000bc .L0 
     /tmp/ccM4y3ol.s:162    .text:00000000000000c0 .L0 
     /tmp/ccM4y3ol.s:168    .text:00000000000000c4 .L0 
     /tmp/ccM4y3ol.s:169    .text:00000000000000c4 .L0 
     /tmp/ccM4y3ol.s:170    .text:00000000000000c4 .L0 
     /tmp/ccM4y3ol.s:175    .text:00000000000000c8 .L0 
     /tmp/ccM4y3ol.s:176    .text:00000000000000c8 .L0 
     /tmp/ccM4y3ol.s:181    .text:00000000000000d0 .L0 
     /tmp/ccM4y3ol.s:182    .text:00000000000000d0 .L0 
     /tmp/ccM4y3ol.s:184    .text:00000000000000d4 .L0 
     /tmp/ccM4y3ol.s:187    .text:00000000000000d8 .L0 
     /tmp/ccM4y3ol.s:189    .text:00000000000000dc .L0 
     /tmp/ccM4y3ol.s:191    .text:00000000000000e0 .L0 
     /tmp/ccM4y3ol.s:199    .text:00000000000000e8 .L0 
     /tmp/ccM4y3ol.s:200    .text:00000000000000e8 .L0 
     /tmp/ccM4y3ol.s:204    .text:00000000000000f4 .L0 
     /tmp/ccM4y3ol.s:207    .text:00000000000000f8 .L0 
     /tmp/ccM4y3ol.s:208    .text:00000000000000fc .L0 
     /tmp/ccM4y3ol.s:210    .text:0000000000000100 .L0 
     /tmp/ccM4y3ol.s:211    .text:0000000000000100 .L0 
     /tmp/ccM4y3ol.s:213    .text:0000000000000104 .L0 
     /tmp/ccM4y3ol.s:216    .text:0000000000000108 .L0 
     /tmp/ccM4y3ol.s:221    .text:000000000000010c .L0 
     /tmp/ccM4y3ol.s:224    .text:0000000000000110 .L0 
     /tmp/ccM4y3ol.s:227    .text:0000000000000114 .L0 
     /tmp/ccM4y3ol.s:228    .text:0000000000000114 .L0 
     /tmp/ccM4y3ol.s:229    .text:0000000000000114 .L0 
     /tmp/ccM4y3ol.s:230    .text:0000000000000114 .L0 
     /tmp/ccM4y3ol.s:232    .text:0000000000000114 .L0 
     /tmp/ccM4y3ol.s:236    .text:000000000000011c .L0 
     /tmp/ccM4y3ol.s:238    .text:0000000000000124 .L0 
     /tmp/ccM4y3ol.s:244    .text:0000000000000124 _ZN4_sem8sem_waitEPS_
     /tmp/ccM4y3ol.s:247    .text:0000000000000124 .L0 
     /tmp/ccM4y3ol.s:249    .text:0000000000000124 .L0 
     /tmp/ccM4y3ol.s:250    .text:0000000000000128 .L0 
     /tmp/ccM4y3ol.s:252    .text:000000000000012c .L0 
     /tmp/ccM4y3ol.s:254    .text:0000000000000130 .L0 
     /tmp/ccM4y3ol.s:256    .text:0000000000000130 .L0 
     /tmp/ccM4y3ol.s:258    .text:0000000000000134 .L0 
     /tmp/ccM4y3ol.s:260    .text:0000000000000138 .L0 
     /tmp/ccM4y3ol.s:263    .text:000000000000013c .L0 
     /tmp/ccM4y3ol.s:264    .text:000000000000013c .L0 
     /tmp/ccM4y3ol.s:265    .text:000000000000013c .L0 
     /tmp/ccM4y3ol.s:267    .text:0000000000000140 .L0 
     /tmp/ccM4y3ol.s:270    .text:0000000000000148 .L0 
     /tmp/ccM4y3ol.s:271    .text:0000000000000148 .L0 
     /tmp/ccM4y3ol.s:276    .text:000000000000014c .L0 
     /tmp/ccM4y3ol.s:277    .text:0000000000000150 .L0 
     /tmp/ccM4y3ol.s:278    .text:0000000000000150 .L0 
     /tmp/ccM4y3ol.s:279    .text:0000000000000150 .L0 
     /tmp/ccM4y3ol.s:281    .text:0000000000000154 .L0 
     /tmp/ccM4y3ol.s:285    .text:0000000000000158 .L0 
GAS LISTING /tmp/ccM4y3ol.s 			page 17


     /tmp/ccM4y3ol.s:287    .text:0000000000000158 .L0 
     /tmp/ccM4y3ol.s:295    .text:0000000000000168 .L0 
     /tmp/ccM4y3ol.s:301    .text:0000000000000168 _ZN4_sem10sem_signalEPS_
     /tmp/ccM4y3ol.s:304    .text:0000000000000168 .L0 
     /tmp/ccM4y3ol.s:306    .text:0000000000000168 .L0 
     /tmp/ccM4y3ol.s:307    .text:0000000000000168 .L0 
     /tmp/ccM4y3ol.s:310    .text:0000000000000170 .L0 
     /tmp/ccM4y3ol.s:311    .text:0000000000000170 .L0 
     /tmp/ccM4y3ol.s:313    .text:0000000000000174 .L0 
     /tmp/ccM4y3ol.s:319    .text:0000000000000178 .L0 
     /tmp/ccM4y3ol.s:320    .text:0000000000000178 .L0 
     /tmp/ccM4y3ol.s:325    .text:000000000000017c .L0 
     /tmp/ccM4y3ol.s:331    .text:0000000000000180 .L0 
     /tmp/ccM4y3ol.s:332    .text:0000000000000180 .L0 
     /tmp/ccM4y3ol.s:338    .text:0000000000000184 .L0 
     /tmp/ccM4y3ol.s:339    .text:0000000000000188 .L0 
     /tmp/ccM4y3ol.s:343    .text:0000000000000194 .L0 
     /tmp/ccM4y3ol.s:344    .text:0000000000000194 .L0 
     /tmp/ccM4y3ol.s:345    .text:0000000000000194 .L0 
     /tmp/ccM4y3ol.s:347    .text:0000000000000198 .L0 
     /tmp/ccM4y3ol.s:354    .text:0000000000000198 .L0 
     /tmp/ccM4y3ol.s:356    .text:000000000000019c .L0 
     /tmp/ccM4y3ol.s:358    .text:00000000000001a0 .L0 
     /tmp/ccM4y3ol.s:361    .text:00000000000001a4 .L0 
     /tmp/ccM4y3ol.s:364    .text:00000000000001a8 .L0 
     /tmp/ccM4y3ol.s:369    .text:00000000000001b0 .L0 
     /tmp/ccM4y3ol.s:374    .text:00000000000001b4 .L0 
     /tmp/ccM4y3ol.s:375    .text:00000000000001b4 .L0 
     /tmp/ccM4y3ol.s:376    .text:00000000000001b4 .L0 
     /tmp/ccM4y3ol.s:381    .text:00000000000001b8 .L0 
     /tmp/ccM4y3ol.s:382    .text:00000000000001b8 .L0 
     /tmp/ccM4y3ol.s:388    .text:00000000000001c4 .L0 
     /tmp/ccM4y3ol.s:392    .text:00000000000001c8 .L0 
     /tmp/ccM4y3ol.s:393    .text:00000000000001cc .L0 
     /tmp/ccM4y3ol.s:394    .text:00000000000001cc .L0 
     /tmp/ccM4y3ol.s:396    .text:00000000000001d0 .L0 
     /tmp/ccM4y3ol.s:397    .text:00000000000001d0 .L0 
     /tmp/ccM4y3ol.s:399    .text:00000000000001d4 .L0 
     /tmp/ccM4y3ol.s:401    .text:00000000000001d8 .L0 
     /tmp/ccM4y3ol.s:405    .text:00000000000001dc .L0 
     /tmp/ccM4y3ol.s:411    .text:00000000000001dc .L0 
     /tmp/ccM4y3ol.s:415    .text:00000000000001e4 .L0 
     /tmp/ccM4y3ol.s:416    .text:00000000000001e4 .L0 
     /tmp/ccM4y3ol.s:417    .text:00000000000001e4 .L0 
     /tmp/ccM4y3ol.s:418    .text:00000000000001e4 .L0 
     /tmp/ccM4y3ol.s:423    .text:00000000000001e4 .L0 
     /tmp/ccM4y3ol.s:424    .text:00000000000001e4 .L0 
     /tmp/ccM4y3ol.s:426    .text:00000000000001e8 .L0 
     /tmp/ccM4y3ol.s:430    .text:00000000000001f0 .L0 
     /tmp/ccM4y3ol.s:435    .text:00000000000001f8 .L0 
     /tmp/ccM4y3ol.s:441    .text:0000000000000200 .L0 
     /tmp/ccM4y3ol.s:447    .text:0000000000000208 .L0 
     /tmp/ccM4y3ol.s:450    .text:000000000000020c .L0 
     /tmp/ccM4y3ol.s:453    .text:0000000000000210 .L0 
     /tmp/ccM4y3ol.s:454    .text:0000000000000210 .L0 
     /tmp/ccM4y3ol.s:455    .text:0000000000000210 .L0 
     /tmp/ccM4y3ol.s:456    .text:0000000000000210 .L0 
GAS LISTING /tmp/ccM4y3ol.s 			page 18


     /tmp/ccM4y3ol.s:458    .text:0000000000000210 .L0 
     /tmp/ccM4y3ol.s:460    .text:0000000000000218 .L0 
     /tmp/ccM4y3ol.s:466    .text:0000000000000218 _ZN4_sem11sem_trywaitEPS_
     /tmp/ccM4y3ol.s:469    .text:0000000000000218 .L0 
     /tmp/ccM4y3ol.s:471    .text:0000000000000218 .L0 
     /tmp/ccM4y3ol.s:472    .text:000000000000021c .L0 
     /tmp/ccM4y3ol.s:474    .text:0000000000000220 .L0 
     /tmp/ccM4y3ol.s:476    .text:0000000000000224 .L0 
     /tmp/ccM4y3ol.s:478    .text:0000000000000224 .L0 
     /tmp/ccM4y3ol.s:480    .text:0000000000000228 .L0 
     /tmp/ccM4y3ol.s:481    .text:0000000000000228 .L0 
     /tmp/ccM4y3ol.s:483    .text:000000000000022c .L0 
     /tmp/ccM4y3ol.s:485    .text:0000000000000230 .L0 
     /tmp/ccM4y3ol.s:486    .text:0000000000000230 .L0 
     /tmp/ccM4y3ol.s:489    .text:0000000000000238 .L0 
     /tmp/ccM4y3ol.s:490    .text:0000000000000238 .L0 
     /tmp/ccM4y3ol.s:494    .text:000000000000023c .L0 
     /tmp/ccM4y3ol.s:495    .text:0000000000000240 .L0 
     /tmp/ccM4y3ol.s:496    .text:0000000000000240 .L0 
     /tmp/ccM4y3ol.s:497    .text:0000000000000240 .L0 
     /tmp/ccM4y3ol.s:499    .text:0000000000000244 .L0 
     /tmp/ccM4y3ol.s:503    .text:0000000000000248 .L0 
     /tmp/ccM4y3ol.s:505    .text:0000000000000248 .L0 
     /tmp/ccM4y3ol.s:511    .text:0000000000000250 .L0 
     /tmp/ccM4y3ol.s:514    .text:0000000000000258 .L0 
     /tmp/ccM4y3ol.s:523    .text:0000000000000258 .L0 
     /tmp/ccM4y3ol.s:68     .text:000000000000005c .L3
     /tmp/ccM4y3ol.s:75     .text:0000000000000064 .L4
     /tmp/ccM4y3ol.s:52     .text:0000000000000044 .L2
     /tmp/ccM4y3ol.s:219    .text:000000000000010c .L16
     /tmp/ccM4y3ol.s:226    .text:0000000000000114 .L17
     /tmp/ccM4y3ol.s:158    .text:00000000000000c0 .L15
     /tmp/ccM4y3ol.s:194    .text:00000000000000e8 .L12
     /tmp/ccM4y3ol.s:145    .text:00000000000000b4 .L13
     /tmp/ccM4y3ol.s:140    .text:00000000000000ac .L14
     /tmp/ccM4y3ol.s:133    .text:00000000000000a8 .L23
     /tmp/ccM4y3ol.s:234    .text:000000000000011c .L24
     /tmp/ccM4y3ol.s:205    .text:00000000000000f8 .L10
     /tmp/ccM4y3ol.s:284    .text:0000000000000158 .L27
     /tmp/ccM4y3ol.s:291    .text:0000000000000160 .L28
     /tmp/ccM4y3ol.s:273    .text:000000000000014c .L26
     /tmp/ccM4y3ol.s:433    .text:00000000000001f8 .L34
     /tmp/ccM4y3ol.s:439    .text:0000000000000200 .L35
     /tmp/ccM4y3ol.s:414    .text:00000000000001e4 .L32
     /tmp/ccM4y3ol.s:445    .text:0000000000000208 .L36
     /tmp/ccM4y3ol.s:404    .text:00000000000001dc .L42
     /tmp/ccM4y3ol.s:452    .text:0000000000000210 .L37
     /tmp/ccM4y3ol.s:359    .text:00000000000001a4 .L33
     /tmp/ccM4y3ol.s:389    .text:00000000000001c8 .L31
     /tmp/ccM4y3ol.s:502    .text:0000000000000248 .L45
     /tmp/ccM4y3ol.s:509    .text:0000000000000250 .L46
     /tmp/ccM4y3ol.s:492    .text:000000000000023c .L44
     /tmp/ccM4y3ol.s:1767   .debug_abbrev:0000000000000000 .Ldebug_abbrev0
     /tmp/ccM4y3ol.s:3471   .debug_str:0000000000000600 .LASF111
     /tmp/ccM4y3ol.s:3271   .debug_str:000000000000004d .LASF112
     /tmp/ccM4y3ol.s:3357   .debug_str:0000000000000300 .LASF113
     /tmp/ccM4y3ol.s:5      .text:0000000000000000 .Ltext0
GAS LISTING /tmp/ccM4y3ol.s 			page 19


     /tmp/ccM4y3ol.s:517    .text:0000000000000258 .Letext0
     /tmp/ccM4y3ol.s:3261   .debug_line:0000000000000000 .Ldebug_line0
     /tmp/ccM4y3ol.s:3353   .debug_str:00000000000002e3 .LASF0
     /tmp/ccM4y3ol.s:3373   .debug_str:000000000000037e .LASF1
     /tmp/ccM4y3ol.s:3435   .debug_str:000000000000052a .LASF2
     /tmp/ccM4y3ol.s:3339   .debug_str:0000000000000287 .LASF3
     /tmp/ccM4y3ol.s:3439   .debug_str:0000000000000542 .LASF4
     /tmp/ccM4y3ol.s:3361   .debug_str:000000000000032c .LASF5
     /tmp/ccM4y3ol.s:3273   .debug_str:000000000000005a .LASF6
     /tmp/ccM4y3ol.s:3417   .debug_str:00000000000004b1 .LASF7
     /tmp/ccM4y3ol.s:3367   .debug_str:0000000000000361 .LASF8
     /tmp/ccM4y3ol.s:3337   .debug_str:0000000000000277 .LASF9
     /tmp/ccM4y3ol.s:3341   .debug_str:000000000000028e .LASF10
     /tmp/ccM4y3ol.s:3295   .debug_str:0000000000000128 .LASF11
     /tmp/ccM4y3ol.s:3329   .debug_str:000000000000024f .LASF12
     /tmp/ccM4y3ol.s:3305   .debug_str:000000000000016d .LASF13
     /tmp/ccM4y3ol.s:3293   .debug_str:0000000000000118 .LASF14
     /tmp/ccM4y3ol.s:3461   .debug_str:00000000000005cd .LASF15
     /tmp/ccM4y3ol.s:3319   .debug_str:00000000000001d7 .LASF16
     /tmp/ccM4y3ol.s:3451   .debug_str:000000000000058d .LASF17
     /tmp/ccM4y3ol.s:3363   .debug_str:000000000000033e .LASF36
     /tmp/ccM4y3ol.s:3297   .debug_str:0000000000000137 .LASF18
     /tmp/ccM4y3ol.s:3279   .debug_str:0000000000000099 .LASF19
     /tmp/ccM4y3ol.s:3371   .debug_str:0000000000000379 .LASF20
     /tmp/ccM4y3ol.s:3479   .debug_str:00000000000006e8 .LASF21
     /tmp/ccM4y3ol.s:3379   .debug_str:000000000000039f .LASF22
     /tmp/ccM4y3ol.s:3413   .debug_str:0000000000000495 .LASF31
     /tmp/ccM4y3ol.s:3455   .debug_str:00000000000005b6 .LASF33
     /tmp/ccM4y3ol.s:3281   .debug_str:000000000000009e .LASF27
     /tmp/ccM4y3ol.s:3509   .debug_str:00000000000007ca .LASF29
     /tmp/ccM4y3ol.s:3393   .debug_str:000000000000040e .LASF23
     /tmp/ccM4y3ol.s:3275   .debug_str:0000000000000061 .LASF25
     /tmp/ccM4y3ol.s:3463   .debug_str:00000000000005d9 .LASF24
     /tmp/ccM4y3ol.s:3395   .debug_str:0000000000000418 .LASF26
     /tmp/ccM4y3ol.s:3511   .debug_str:00000000000007e6 .LASF114
     /tmp/ccM4y3ol.s:3307   .debug_str:000000000000017d .LASF115
     /tmp/ccM4y3ol.s:3265   .debug_str:0000000000000005 .LASF28
     /tmp/ccM4y3ol.s:3285   .debug_str:00000000000000af .LASF30
     /tmp/ccM4y3ol.s:3335   .debug_str:000000000000026d .LASF32
     /tmp/ccM4y3ol.s:3447   .debug_str:0000000000000573 .LASF34
     /tmp/ccM4y3ol.s:3503   .debug_str:000000000000077c .LASF116
     /tmp/ccM4y3ol.s:3349   .debug_str:00000000000002bb .LASF117
     /tmp/ccM4y3ol.s:3489   .debug_str:000000000000071d .LASF35
     /tmp/ccM4y3ol.s:3483   .debug_str:0000000000000704 .LASF37
     /tmp/ccM4y3ol.s:3369   .debug_str:0000000000000374 .LASF38
     /tmp/ccM4y3ol.s:3507   .debug_str:00000000000007ab .LASF82
     /tmp/ccM4y3ol.s:3403   .debug_str:000000000000046f .LASF39
     /tmp/ccM4y3ol.s:3399   .debug_str:0000000000000453 .LASF40
     /tmp/ccM4y3ol.s:3453   .debug_str:00000000000005a3 .LASF41
     /tmp/ccM4y3ol.s:3325   .debug_str:0000000000000221 .LASF47
     /tmp/ccM4y3ol.s:3437   .debug_str:0000000000000538 .LASF98
     /tmp/ccM4y3ol.s:3429   .debug_str:0000000000000503 .LASF100
     /tmp/ccM4y3ol.s:3433   .debug_str:0000000000000521 .LASF42
     /tmp/ccM4y3ol.s:3287   .debug_str:00000000000000cc .LASF43
     /tmp/ccM4y3ol.s:3377   .debug_str:0000000000000397 .LASF44
     /tmp/ccM4y3ol.s:3321   .debug_str:00000000000001ed .LASF45
     /tmp/ccM4y3ol.s:3415   .debug_str:00000000000004a5 .LASF46
GAS LISTING /tmp/ccM4y3ol.s 			page 20


     /tmp/ccM4y3ol.s:3491   .debug_str:0000000000000727 .LASF48
     /tmp/ccM4y3ol.s:3515   .debug_str:00000000000007f5 .LASF49
     /tmp/ccM4y3ol.s:3505   .debug_str:0000000000000790 .LASF50
     /tmp/ccM4y3ol.s:3445   .debug_str:0000000000000568 .LASF51
     /tmp/ccM4y3ol.s:3365   .debug_str:0000000000000344 .LASF52
     /tmp/ccM4y3ol.s:3425   .debug_str:00000000000004f1 .LASF53
     /tmp/ccM4y3ol.s:3267   .debug_str:000000000000000b .LASF54
     /tmp/ccM4y3ol.s:3315   .debug_str:00000000000001c9 .LASF55
     /tmp/ccM4y3ol.s:3443   .debug_str:000000000000054e .LASF56
     /tmp/ccM4y3ol.s:3299   .debug_str:000000000000013c .LASF57
     /tmp/ccM4y3ol.s:3465   .debug_str:00000000000005e2 .LASF58
     /tmp/ccM4y3ol.s:3401   .debug_str:0000000000000458 .LASF59
     /tmp/ccM4y3ol.s:3283   .debug_str:00000000000000a3 .LASF60
     /tmp/ccM4y3ol.s:3481   .debug_str:00000000000006ed .LASF61
     /tmp/ccM4y3ol.s:3495   .debug_str:000000000000074c .LASF62
     /tmp/ccM4y3ol.s:3289   .debug_str:00000000000000e9 .LASF63
     /tmp/ccM4y3ol.s:3467   .debug_str:00000000000005ed .LASF64
     /tmp/ccM4y3ol.s:3303   .debug_str:0000000000000157 .LASF65
     /tmp/ccM4y3ol.s:3375   .debug_str:0000000000000391 .LASF66
     /tmp/ccM4y3ol.s:3473   .debug_str:00000000000006c4 .LASF67
     /tmp/ccM4y3ol.s:3311   .debug_str:00000000000001b1 .LASF68
     /tmp/ccM4y3ol.s:3301   .debug_str:0000000000000144 .LASF69
     /tmp/ccM4y3ol.s:3469   .debug_str:00000000000005f8 .LASF70
     /tmp/ccM4y3ol.s:3459   .debug_str:00000000000005c0 .LASF71
     /tmp/ccM4y3ol.s:3387   .debug_str:00000000000003c3 .LASF72
     /tmp/ccM4y3ol.s:3409   .debug_str:0000000000000483 .LASF118
     /tmp/ccM4y3ol.s:3383   .debug_str:00000000000003aa .LASF73
     /tmp/ccM4y3ol.s:3327   .debug_str:0000000000000238 .LASF119
     /tmp/ccM4y3ol.s:3421   .debug_str:00000000000004d0 .LASF120
     /tmp/ccM4y3ol.s:3441   .debug_str:0000000000000549 .LASF74
     /tmp/ccM4y3ol.s:3475   .debug_str:00000000000006d4 .LASF75
     /tmp/ccM4y3ol.s:3263   .debug_str:0000000000000000 .LASF76
     /tmp/ccM4y3ol.s:3381   .debug_str:00000000000003a4 .LASF77
     /tmp/ccM4y3ol.s:3477   .debug_str:00000000000006e0 .LASF78
     /tmp/ccM4y3ol.s:3449   .debug_str:0000000000000584 .LASF79
     /tmp/ccM4y3ol.s:3405   .debug_str:0000000000000474 .LASF80
     /tmp/ccM4y3ol.s:3313   .debug_str:00000000000001ba .LASF121
     /tmp/ccM4y3ol.s:3397   .debug_str:0000000000000439 .LASF122
     /tmp/ccM4y3ol.s:3309   .debug_str:00000000000001a3 .LASF81
     /tmp/ccM4y3ol.s:3269   .debug_str:0000000000000025 .LASF83
     /tmp/ccM4y3ol.s:3487   .debug_str:0000000000000714 .LASF84
     /tmp/ccM4y3ol.s:3501   .debug_str:0000000000000776 .LASF85
     /tmp/ccM4y3ol.s:3457   .debug_str:00000000000005bb .LASF86
     /tmp/ccM4y3ol.s:3485   .debug_str:0000000000000709 .LASF123
     /tmp/ccM4y3ol.s:3411   .debug_str:0000000000000488 .LASF87
     /tmp/ccM4y3ol.s:3427   .debug_str:00000000000004fa .LASF88
     /tmp/ccM4y3ol.s:3323   .debug_str:0000000000000209 .LASF89
     /tmp/ccM4y3ol.s:3423   .debug_str:00000000000004e7 .LASF90
     /tmp/ccM4y3ol.s:3277   .debug_str:0000000000000082 .LASF91
     /tmp/ccM4y3ol.s:3513   .debug_str:00000000000007ec .LASF92
     /tmp/ccM4y3ol.s:3391   .debug_str:00000000000003f8 .LASF93
     /tmp/ccM4y3ol.s:3343   .debug_str:000000000000029c .LASF94
     /tmp/ccM4y3ol.s:3497   .debug_str:0000000000000756 .LASF95
     /tmp/ccM4y3ol.s:3419   .debug_str:00000000000004c4 .LASF96
     /tmp/ccM4y3ol.s:3291   .debug_str:00000000000000fe .LASF97
     /tmp/ccM4y3ol.s:3317   .debug_str:00000000000001d1 .LASF99
     /tmp/ccM4y3ol.s:3385   .debug_str:00000000000003b6 .LASF101
GAS LISTING /tmp/ccM4y3ol.s 			page 21


     /tmp/ccM4y3ol.s:3347   .debug_str:00000000000002b5 .LASF102
     /tmp/ccM4y3ol.s:3499   .debug_str:000000000000076f .LASF103
     /tmp/ccM4y3ol.s:3493   .debug_str:0000000000000745 .LASF104
     /tmp/ccM4y3ol.s:3389   .debug_str:00000000000003ea .LASF105
     /tmp/ccM4y3ol.s:3351   .debug_str:00000000000002d3 .LASF124
     /tmp/ccM4y3ol.s:3333   .debug_str:0000000000000268 .LASF106
     /tmp/ccM4y3ol.s:3359   .debug_str:0000000000000327 .LASF107
     /tmp/ccM4y3ol.s:467    .text:0000000000000218 .LFB45
     /tmp/ccM4y3ol.s:515    .text:0000000000000258 .LFE45
     /tmp/ccM4y3ol.s:2838   .debug_loc:0000000000000000 .LLST20
     /tmp/ccM4y3ol.s:302    .text:0000000000000168 .LFB44
     /tmp/ccM4y3ol.s:461    .text:0000000000000218 .LFE44
     /tmp/ccM4y3ol.s:2874   .debug_loc:000000000000008b .LLST12
     /tmp/ccM4y3ol.s:3237   .debug_ranges:0000000000000000 .Ldebug_ranges0
     /tmp/ccM4y3ol.s:3431   .debug_str:000000000000051a .LASF108
     /tmp/ccM4y3ol.s:2922   .debug_loc:000000000000014f .LLST14
     /tmp/ccM4y3ol.s:329    .text:0000000000000180 .LBB42
     /tmp/ccM4y3ol.s:2933   .debug_loc:0000000000000185 .LLST15
     /tmp/ccM4y3ol.s:2963   .debug_loc:00000000000001ec .LLST16
     /tmp/ccM4y3ol.s:2974   .debug_loc:0000000000000222 .LLST17
     /tmp/ccM4y3ol.s:365    .text:00000000000001b0 .LVL38
     /tmp/ccM4y3ol.s:372    .text:00000000000001b4 .LBB47
     /tmp/ccM4y3ol.s:379    .text:00000000000001b8 .LBE47
     /tmp/ccM4y3ol.s:2981   .debug_loc:0000000000000245 .LLST18
     /tmp/ccM4y3ol.s:2989   .debug_loc:0000000000000269 .LLST19
     /tmp/ccM4y3ol.s:384    .text:00000000000001c4 .LVL41
     /tmp/ccM4y3ol.s:317    .text:0000000000000178 .LBB39
     /tmp/ccM4y3ol.s:323    .text:000000000000017c .LBE39
     /tmp/ccM4y3ol.s:2996   .debug_loc:000000000000028c .LLST13
     /tmp/ccM4y3ol.s:245    .text:0000000000000124 .LFB43
     /tmp/ccM4y3ol.s:296    .text:0000000000000168 .LFE43
     /tmp/ccM4y3ol.s:3005   .debug_loc:00000000000002b1 .LLST11
     /tmp/ccM4y3ol.s:3345   .debug_str:00000000000002a7 .LASF109
     /tmp/ccM4y3ol.s:92     .text:000000000000006c .LFB42
     /tmp/ccM4y3ol.s:239    .text:0000000000000124 .LFE42
     /tmp/ccM4y3ol.s:3041   .debug_loc:000000000000033c .LLST3
     /tmp/ccM4y3ol.s:120    .text:0000000000000098 .LBB26
     /tmp/ccM4y3ol.s:197    .text:00000000000000e8 .LBE26
     /tmp/ccM4y3ol.s:3074   .debug_loc:00000000000003c4 .LLST4
     /tmp/ccM4y3ol.s:121    .text:0000000000000098 .LBB27
     /tmp/ccM4y3ol.s:135    .text:00000000000000a8 .LBE27
     /tmp/ccM4y3ol.s:3081   .debug_loc:00000000000003e7 .LLST5
     /tmp/ccM4y3ol.s:136    .text:00000000000000a8 .LBB29
     /tmp/ccM4y3ol.s:3096   .debug_loc:0000000000000421 .LLST6
     /tmp/ccM4y3ol.s:3107   .debug_loc:0000000000000457 .LLST7
     /tmp/ccM4y3ol.s:144    .text:00000000000000b4 .LVL14
     /tmp/ccM4y3ol.s:149    .text:00000000000000b4 .LBB32
     /tmp/ccM4y3ol.s:160    .text:00000000000000c0 .LBE32
     /tmp/ccM4y3ol.s:3115   .debug_loc:000000000000047b .LLST8
     /tmp/ccM4y3ol.s:165    .text:00000000000000c4 .LBB34
     /tmp/ccM4y3ol.s:173    .text:00000000000000c8 .LBE34
     /tmp/ccM4y3ol.s:3124   .debug_loc:00000000000004a0 .LLST9
     /tmp/ccM4y3ol.s:3132   .debug_loc:00000000000004c4 .LLST10
     /tmp/ccM4y3ol.s:177    .text:00000000000000d0 .LVL18
     /tmp/ccM4y3ol.s:202    .text:00000000000000f4 .LVL21
     /tmp/ccM4y3ol.s:10     .text:0000000000000000 .LFB41
     /tmp/ccM4y3ol.s:86     .text:000000000000006c .LFE41
GAS LISTING /tmp/ccM4y3ol.s 			page 22


     /tmp/ccM4y3ol.s:3139   .debug_loc:00000000000004e7 .LLST0
     /tmp/ccM4y3ol.s:3172   .debug_loc:000000000000056f .LLST1
     /tmp/ccM4y3ol.s:3331   .debug_str:000000000000025e .LASF110
     /tmp/ccM4y3ol.s:3197   .debug_loc:00000000000005d1 .LLST2
     /tmp/ccM4y3ol.s:37     .text:0000000000000030 .LVL2
     /tmp/ccM4y3ol.s:3407   .debug_str:000000000000047c .LASF125
     /tmp/ccM4y3ol.s:3355   .debug_str:00000000000002f0 .LASF126
     /tmp/ccM4y3ol.s:470    .text:0000000000000218 .LVL52
     /tmp/ccM4y3ol.s:491    .text:000000000000023c .LVL53
     /tmp/ccM4y3ol.s:501    .text:0000000000000248 .LVL54
     /tmp/ccM4y3ol.s:506    .text:000000000000024c .LVL55
     /tmp/ccM4y3ol.s:508    .text:0000000000000250 .LVL56
     /tmp/ccM4y3ol.s:512    .text:0000000000000254 .LVL57
     /tmp/ccM4y3ol.s:305    .text:0000000000000168 .LVL32
     /tmp/ccM4y3ol.s:321    .text:000000000000017c .LVL34
     /tmp/ccM4y3ol.s:403    .text:00000000000001dc .LVL43
     /tmp/ccM4y3ol.s:432    .text:00000000000001f8 .LVL45
     /tmp/ccM4y3ol.s:436    .text:00000000000001fc .LVL46
     /tmp/ccM4y3ol.s:438    .text:0000000000000200 .LVL47
     /tmp/ccM4y3ol.s:442    .text:0000000000000204 .LVL48
     /tmp/ccM4y3ol.s:451    .text:0000000000000210 .LVL51
     /tmp/ccM4y3ol.s:390    .text:00000000000001c8 .LVL42
     /tmp/ccM4y3ol.s:328    .text:0000000000000180 .LVL35
     /tmp/ccM4y3ol.s:413    .text:00000000000001e4 .LVL44
     /tmp/ccM4y3ol.s:444    .text:0000000000000208 .LVL49
     /tmp/ccM4y3ol.s:448    .text:000000000000020c .LVL50
     /tmp/ccM4y3ol.s:348    .text:0000000000000198 .LVL36
     /tmp/ccM4y3ol.s:362    .text:00000000000001a8 .LVL37
     /tmp/ccM4y3ol.s:371    .text:00000000000001b4 .LVL39
     /tmp/ccM4y3ol.s:377    .text:00000000000001b8 .LVL40
     /tmp/ccM4y3ol.s:315    .text:0000000000000178 .LVL33
     /tmp/ccM4y3ol.s:248    .text:0000000000000124 .LVL26
     /tmp/ccM4y3ol.s:272    .text:000000000000014c .LVL27
     /tmp/ccM4y3ol.s:283    .text:0000000000000158 .LVL28
     /tmp/ccM4y3ol.s:288    .text:000000000000015c .LVL29
     /tmp/ccM4y3ol.s:290    .text:0000000000000160 .LVL30
     /tmp/ccM4y3ol.s:293    .text:0000000000000164 .LVL31
     /tmp/ccM4y3ol.s:95     .text:000000000000006c .LVL9
     /tmp/ccM4y3ol.s:126    .text:000000000000009c .LVL11
     /tmp/ccM4y3ol.s:214    .text:0000000000000104 .LVL22
     /tmp/ccM4y3ol.s:218    .text:000000000000010c .LVL23
     /tmp/ccM4y3ol.s:222    .text:0000000000000110 .LVL24
     /tmp/ccM4y3ol.s:225    .text:0000000000000114 .LVL25
     /tmp/ccM4y3ol.s:157    .text:00000000000000c0 .LVL15
     /tmp/ccM4y3ol.s:119    .text:0000000000000098 .LVL10
     /tmp/ccM4y3ol.s:132    .text:00000000000000a8 .LVL12
     /tmp/ccM4y3ol.s:185    .text:00000000000000d8 .LVL19
     /tmp/ccM4y3ol.s:193    .text:00000000000000e8 .LVL20
     /tmp/ccM4y3ol.s:141    .text:00000000000000ac .LVL13
     /tmp/ccM4y3ol.s:164    .text:00000000000000c4 .LVL16
     /tmp/ccM4y3ol.s:171    .text:00000000000000c8 .LVL17
     /tmp/ccM4y3ol.s:14     .text:0000000000000000 .LVL0
     /tmp/ccM4y3ol.s:35     .text:0000000000000028 .LVL1
     /tmp/ccM4y3ol.s:61     .text:0000000000000050 .LVL4
     /tmp/ccM4y3ol.s:67     .text:000000000000005c .LVL5
     /tmp/ccM4y3ol.s:71     .text:0000000000000060 .LVL6
     /tmp/ccM4y3ol.s:74     .text:0000000000000064 .LVL7
GAS LISTING /tmp/ccM4y3ol.s 			page 23


     /tmp/ccM4y3ol.s:51     .text:0000000000000044 .LVL3
     /tmp/ccM4y3ol.s:83     .text:0000000000000068 .LVL8
     /tmp/ccM4y3ol.s:524    .debug_info:0000000000000000 .Ldebug_info0
     /tmp/ccM4y3ol.s:147    .text:00000000000000b4 .LBE29
     /tmp/ccM4y3ol.s:179    .text:00000000000000d0 .LBB36
     /tmp/ccM4y3ol.s:196    .text:00000000000000e8 .LBE36
     /tmp/ccM4y3ol.s:326    .text:0000000000000180 .LBB41
     /tmp/ccM4y3ol.s:335    .text:0000000000000184 .LBE41
     /tmp/ccM4y3ol.s:350    .text:0000000000000198 .LBB50
     /tmp/ccM4y3ol.s:385    .text:00000000000001c4 .LBE50
     /tmp/ccM4y3ol.s:407    .text:00000000000001dc .LBB51
     /tmp/ccM4y3ol.s:421    .text:00000000000001e4 .LBE51
     /tmp/ccM4y3ol.s:334    .text:0000000000000184 .LBE42
     /tmp/ccM4y3ol.s:351    .text:0000000000000198 .LBB46
     /tmp/ccM4y3ol.s:367    .text:00000000000001b0 .LBE46
     /tmp/ccM4y3ol.s:408    .text:00000000000001dc .LBB49
     /tmp/ccM4y3ol.s:420    .text:00000000000001e4 .LBE49

UNDEFINED SYMBOLS
_ZN15MemoryAllocator9mem_allocEm
_ZdlPv
_ZN9Scheduler3putEP3TCB
_ZN15MemoryAllocator8mem_freeEPv
