GAS LISTING /tmp/ccKlSPQC.s 			page 1


   1              		.file	"_sem.cpp"
   2              		.option pic
   3              		.option norelax
   4              		.text
   5              	.Ltext0:
   6              		.section	.text._ZN4_semD2Ev,"axG",@progbits,_ZN4_semD5Ev,comdat
   7              		.align	2
   8              		.weak	_ZN4_semD2Ev
  10              	_ZN4_semD2Ev:
  11              	.LFB39:
  12              		.file 1 "src/../h/_sem.hpp"
   1:src/../h/_sem.hpp **** //
   2:src/../h/_sem.hpp **** // Created by os on 9/13/24.
   3:src/../h/_sem.hpp **** //
   4:src/../h/_sem.hpp **** 
   5:src/../h/_sem.hpp **** #ifndef SEMAPHORE_HPP
   6:src/../h/_sem.hpp **** #define SEMAPHORE_HPP
   7:src/../h/_sem.hpp **** 
   8:src/../h/_sem.hpp **** #include "../lib/hw.h"
   9:src/../h/_sem.hpp **** #include "list.hpp"
  10:src/../h/_sem.hpp **** #include "TCB.hpp"
  11:src/../h/_sem.hpp **** 
  12:src/../h/_sem.hpp **** class _sem;
  13:src/../h/_sem.hpp **** 
  14:src/../h/_sem.hpp **** typedef _sem *sem_t;
  15:src/../h/_sem.hpp **** 
  16:src/../h/_sem.hpp **** class TCB;
  17:src/../h/_sem.hpp **** 
  18:src/../h/_sem.hpp **** typedef TCB *thread_t;
  19:src/../h/_sem.hpp **** 
  20:src/../h/_sem.hpp **** class _sem {
  21:src/../h/_sem.hpp **** public:
  22:src/../h/_sem.hpp ****     _sem(long init = 1) : value(init), closed(false) {}
  23:src/../h/_sem.hpp **** 
  24:src/../h/_sem.hpp ****     static int sem_open(sem_t *handle, long init);
  25:src/../h/_sem.hpp **** 
  26:src/../h/_sem.hpp ****     static int sem_close(sem_t handle);
  27:src/../h/_sem.hpp **** 
  28:src/../h/_sem.hpp ****     static int sem_wait(sem_t id);
  29:src/../h/_sem.hpp **** 
  30:src/../h/_sem.hpp ****     static int sem_signal(sem_t id);
  31:src/../h/_sem.hpp **** 
  32:src/../h/_sem.hpp ****     static int sem_trywait(sem_t id);
  33:src/../h/_sem.hpp **** 
  34:src/../h/_sem.hpp ****     virtual ~_sem() {}
  13              		.loc 1 34 13
  14              		.cfi_startproc
  15              	.LVL0:
  16 0000 130101FF 		addi	sp,sp,-16
  17              		.cfi_def_cfa_offset 16
  18 0004 23348100 		sd	s0,8(sp)
  19              		.cfi_offset 8, -8
  20 0008 13040101 		addi	s0,sp,16
  21              		.cfi_def_cfa 8, 0
  22              		.loc 1 34 22 is_stmt 0
  23 000c 03348100 		ld	s0,8(sp)
  24              		.cfi_restore 8
GAS LISTING /tmp/ccKlSPQC.s 			page 2


  25              		.cfi_def_cfa 2, 16
  26 0010 13010101 		addi	sp,sp,16
  27              		.cfi_def_cfa_offset 0
  28 0014 67800000 		jr	ra
  29              		.cfi_endproc
  30              	.LFE39:
  32              		.weak	_ZN4_semD1Ev
  33              		.set	_ZN4_semD1Ev,_ZN4_semD2Ev
  34              		.section	.text._ZN4_semD0Ev,"axG",@progbits,_ZN4_semD5Ev,comdat
  35              		.align	2
  36              		.weak	_ZN4_semD0Ev
  38              	_ZN4_semD0Ev:
  39              	.LFB41:
  40              		.loc 1 34 13 is_stmt 1
  41              		.cfi_startproc
  42              	.LVL1:
  43 0000 130101FF 		addi	sp,sp,-16
  44              		.cfi_def_cfa_offset 16
  45 0004 23341100 		sd	ra,8(sp)
  46 0008 23308100 		sd	s0,0(sp)
  47              		.cfi_offset 1, -8
  48              		.cfi_offset 8, -16
  49 000c 13040101 		addi	s0,sp,16
  50              		.cfi_def_cfa 8, 0
  51              		.loc 1 34 22 is_stmt 0
  52 0010 97000000 		call	_ZdlPv@plt
  52      E7800000 
  53              	.LVL2:
  54 0018 83308100 		ld	ra,8(sp)
  55              		.cfi_restore 1
  56 001c 03340100 		ld	s0,0(sp)
  57              		.cfi_restore 8
  58              		.cfi_def_cfa 2, 16
  59 0020 13010101 		addi	sp,sp,16
  60              		.cfi_def_cfa_offset 0
  61 0024 67800000 		jr	ra
  62              		.cfi_endproc
  63              	.LFE41:
  65              		.text
  66              		.align	2
  67              		.globl	_ZN4_sem8sem_openEPPS_l
  69              	_ZN4_sem8sem_openEPPS_l:
  70              	.LFB42:
  71              		.file 2 "src/_sem.cpp"
   1:src/_sem.cpp  **** //
   2:src/_sem.cpp  **** // Created by os on 9/13/24.
   3:src/_sem.cpp  **** //
   4:src/_sem.cpp  **** 
   5:src/_sem.cpp  **** #include "../h/_sem.hpp"
   6:src/_sem.cpp  **** #include "../h/scheduler.hpp"
   7:src/_sem.cpp  **** #include "../test/printing.hpp"
   8:src/_sem.cpp  **** 
   9:src/_sem.cpp  **** int _sem::sem_open(sem_t *handle, long init) {
  72              		.loc 2 9 46 is_stmt 1
  73              		.cfi_startproc
  74              	.LVL3:
  10:src/_sem.cpp  ****     if (handle == nullptr) {
GAS LISTING /tmp/ccKlSPQC.s 			page 3


  75              		.loc 2 10 5
  76 0000 63080506 		beqz	a0,.L7
   9:src/_sem.cpp  ****     if (handle == nullptr) {
  77              		.loc 2 9 46 is_stmt 0
  78 0004 130101FE 		addi	sp,sp,-32
  79              		.cfi_def_cfa_offset 32
  80 0008 233C1100 		sd	ra,24(sp)
  81 000c 23388100 		sd	s0,16(sp)
  82 0010 23349100 		sd	s1,8(sp)
  83 0014 23302101 		sd	s2,0(sp)
  84              		.cfi_offset 1, -8
  85              		.cfi_offset 8, -16
  86              		.cfi_offset 9, -24
  87              		.cfi_offset 18, -32
  88 0018 13040102 		addi	s0,sp,32
  89              		.cfi_def_cfa 8, 0
  90 001c 93040500 		mv	s1,a0
  91 0020 13890500 		mv	s2,a1
  11:src/_sem.cpp  ****         return -1;
  12:src/_sem.cpp  ****     }
  13:src/_sem.cpp  ****     sem_t semaphore = new _sem();
  92              		.loc 2 13 5 is_stmt 1
  93              		.loc 2 13 32 is_stmt 0
  94 0024 13058002 		li	a0,40
  95              	.LVL4:
  96 0028 97000000 		call	_Znwm@plt
  96      E7800000 
  97              	.LVL5:
  98              	.LBB40:
  99              	.LBB41:
  22:src/../h/_sem.hpp **** 
 100              		.loc 1 22 52
 101 0030 97070000 		lla	a5,_ZTV4_sem+16
 101      93870700 
 102 0038 2330F500 		sd	a5,0(a0)
 103 003c 23080500 		sb	zero,16(a0)
 104              	.LVL6:
 105              	.LBB42:
 106              	.LBB43:
 107              		.file 3 "src/../h/list.hpp"
   1:src/../h/list.hpp **** //
   2:src/../h/list.hpp **** // Created by os on 9/13/24.
   3:src/../h/list.hpp **** //
   4:src/../h/list.hpp **** 
   5:src/../h/list.hpp **** #ifndef LIST_HPP
   6:src/../h/list.hpp **** #define LIST_HPP
   7:src/../h/list.hpp **** 
   8:src/../h/list.hpp **** #include "../lib/mem.h"
   9:src/../h/list.hpp **** #include "MemoryAllocator.hpp"
  10:src/../h/list.hpp **** template<typename T>
  11:src/../h/list.hpp **** class List{
  12:src/../h/list.hpp ****         private:
  13:src/../h/list.hpp ****         struct Elem
  14:src/../h/list.hpp ****         {
  15:src/../h/list.hpp ****             T *data;
  16:src/../h/list.hpp ****             Elem *next;
  17:src/../h/list.hpp **** 
GAS LISTING /tmp/ccKlSPQC.s 			page 4


  18:src/../h/list.hpp ****             Elem(T *data, Elem *next) : data(data), next(next) {}
  19:src/../h/list.hpp **** 
  20:src/../h/list.hpp ****         };
  21:src/../h/list.hpp **** 
  22:src/../h/list.hpp ****         public:
  23:src/../h/list.hpp **** 
  24:src/../h/list.hpp ****         Elem *head, *tail;
  25:src/../h/list.hpp ****         List() : head(0), tail(0) {}
 108              		.loc 3 25 33
 109 0040 233C0500 		sd	zero,24(a0)
 110 0044 23300502 		sd	zero,32(a0)
 111              	.LVL7:
 112              	.LBE43:
 113              	.LBE42:
 114              	.LBE41:
 115              	.LBE40:
  14:src/_sem.cpp  ****     semaphore->value = init;
 116              		.loc 2 14 5 is_stmt 1
 117              		.loc 2 14 22 is_stmt 0
 118 0048 23342501 		sd	s2,8(a0)
  15:src/_sem.cpp  ****     semaphore->closed = false;
 119              		.loc 2 15 5 is_stmt 1
  16:src/_sem.cpp  ****     *handle = semaphore;
 120              		.loc 2 16 5
 121              		.loc 2 16 13 is_stmt 0
 122 004c 23B0A400 		sd	a0,0(s1)
  17:src/_sem.cpp  **** 
  18:src/_sem.cpp  ****     if (*handle == nullptr) {
 123              		.loc 2 18 5 is_stmt 1
 124 0050 63040502 		beqz	a0,.L8
  19:src/_sem.cpp  ****         return -2;
  20:src/_sem.cpp  ****     }
  21:src/_sem.cpp  ****     return 0;
 125              		.loc 2 21 12 is_stmt 0
 126 0054 13050000 		li	a0,0
 127              	.LVL8:
 128              	.L6:
  22:src/_sem.cpp  **** }
 129              		.loc 2 22 1
 130 0058 83308101 		ld	ra,24(sp)
 131              		.cfi_restore 1
 132 005c 03340101 		ld	s0,16(sp)
 133              		.cfi_restore 8
 134              		.cfi_def_cfa 2, 32
 135 0060 83348100 		ld	s1,8(sp)
 136              		.cfi_restore 9
 137              	.LVL9:
 138 0064 03390100 		ld	s2,0(sp)
 139              		.cfi_restore 18
 140              	.LVL10:
 141 0068 13010102 		addi	sp,sp,32
 142              		.cfi_def_cfa_offset 0
 143 006c 67800000 		jr	ra
 144              	.LVL11:
 145              	.L7:
  11:src/_sem.cpp  ****     }
 146              		.loc 2 11 17
GAS LISTING /tmp/ccKlSPQC.s 			page 5


 147 0070 1305F0FF 		li	a0,-1
 148              	.LVL12:
 149              		.loc 2 22 1
 150 0074 67800000 		ret
 151              	.LVL13:
 152              	.L8:
 153              		.cfi_def_cfa_register 8
 154              		.cfi_offset 1, -8
 155              		.cfi_offset 8, -16
 156              		.cfi_offset 9, -24
 157              		.cfi_offset 18, -32
  19:src/_sem.cpp  ****         return -2;
 158              		.loc 2 19 17
 159 0078 1305E0FF 		li	a0,-2
 160              	.LVL14:
 161 007c 6FF0DFFD 		j	.L6
 162              		.cfi_endproc
 163              	.LFE42:
 165              		.align	2
 166              		.globl	_ZN4_sem9sem_closeEPS_
 168              	_ZN4_sem9sem_closeEPS_:
 169              	.LFB43:
  23:src/_sem.cpp  **** 
  24:src/_sem.cpp  **** 
  25:src/_sem.cpp  **** int _sem::sem_close(sem_t handle) {
 170              		.loc 2 25 35 is_stmt 1
 171              		.cfi_startproc
 172              	.LVL15:
  26:src/_sem.cpp  ****     if (handle == nullptr || handle->closed) {
 173              		.loc 2 26 5
 174 0080 6300050A 		beqz	a0,.L20
  25:src/_sem.cpp  ****     if (handle == nullptr || handle->closed) {
 175              		.loc 2 25 35 is_stmt 0 discriminator 1
 176 0084 130101FE 		addi	sp,sp,-32
 177              		.cfi_def_cfa_offset 32
 178 0088 233C1100 		sd	ra,24(sp)
 179 008c 23388100 		sd	s0,16(sp)
 180 0090 23349100 		sd	s1,8(sp)
 181              		.cfi_offset 1, -8
 182              		.cfi_offset 8, -16
 183              		.cfi_offset 9, -24
 184 0094 13040102 		addi	s0,sp,32
 185              		.cfi_def_cfa 8, 0
 186 0098 93040500 		mv	s1,a0
 187              		.loc 2 26 38 discriminator 1
 188 009c 83470501 		lbu	a5,16(a0)
 189              		.loc 2 26 27 discriminator 1
 190 00a0 63940708 		bnez	a5,.L21
  27:src/_sem.cpp  ****         return -1;
  28:src/_sem.cpp  ****     }
  29:src/_sem.cpp  ****     handle->closed = true;
 191              		.loc 2 29 5 is_stmt 1
 192              		.loc 2 29 20 is_stmt 0
 193 00a4 93071000 		li	a5,1
 194 00a8 2308F500 		sb	a5,16(a0)
  30:src/_sem.cpp  ****     for (TCB *thread = handle->blokiraneNiti.peekFirst();
 195              		.loc 2 30 5 is_stmt 1
GAS LISTING /tmp/ccKlSPQC.s 			page 6


 196              	.LVL16:
 197              	.LBB53:
 198              	.LBB54:
 199              	.LBB55:
  26:src/../h/list.hpp **** 
  27:src/../h/list.hpp ****         List(const List<T> &) = delete;
  28:src/../h/list.hpp **** 
  29:src/../h/list.hpp **** 
  30:src/../h/list.hpp ****         List<T> &operator=(const List<T> &) = delete;
  31:src/../h/list.hpp **** 
  32:src/../h/list.hpp ****         void addFirst(T *data)
  33:src/../h/list.hpp ****         {
  34:src/../h/list.hpp ****             Elem *elem = new Elem(data, head);
  35:src/../h/list.hpp ****             head = elem;
  36:src/../h/list.hpp ****             if (!tail) { tail = head; }
  37:src/../h/list.hpp ****         }
  38:src/../h/list.hpp **** 
  39:src/../h/list.hpp ****         void addLast(T *data)
  40:src/../h/list.hpp ****         {
  41:src/../h/list.hpp ****             Elem *elem = new Elem(data, 0);
  42:src/../h/list.hpp ****             if (tail)
  43:src/../h/list.hpp ****             {
  44:src/../h/list.hpp ****                 tail->next = elem;
  45:src/../h/list.hpp ****                 tail = elem;
  46:src/../h/list.hpp ****             } else
  47:src/../h/list.hpp ****             {
  48:src/../h/list.hpp ****                 head = tail = elem;
  49:src/../h/list.hpp ****             }
  50:src/../h/list.hpp ****         }
  51:src/../h/list.hpp **** 
  52:src/../h/list.hpp ****         T *removeFirst()
  53:src/../h/list.hpp ****         {
  54:src/../h/list.hpp ****             if (!head) { return 0; }
  55:src/../h/list.hpp **** 
  56:src/../h/list.hpp ****             Elem *elem = head;
  57:src/../h/list.hpp ****             head = head->next;
  58:src/../h/list.hpp ****             if (!head) { tail = 0; }
  59:src/../h/list.hpp **** 
  60:src/../h/list.hpp ****             T *ret = elem->data;
  61:src/../h/list.hpp ****             delete elem;
  62:src/../h/list.hpp ****             return ret;
  63:src/../h/list.hpp ****         }
  64:src/../h/list.hpp **** 
  65:src/../h/list.hpp ****         T *peekFirst()
  66:src/../h/list.hpp ****         {
  67:src/../h/list.hpp ****             if (!head) { return 0; }
 200              		.loc 3 67 18 is_stmt 0
 201 00ac 03358501 		ld	a0,24(a0)
 202              	.LVL17:
 203              		.loc 3 67 13
 204 00b0 63020502 		beqz	a0,.L19
  68:src/../h/list.hpp ****             return head->data;
 205              		.loc 3 68 26
 206 00b4 03350500 		ld	a0,0(a0)
 207 00b8 6F00C001 		j	.L19
 208              	.LVL18:
 209              	.L27:
GAS LISTING /tmp/ccKlSPQC.s 			page 7


 210              	.LBE55:
 211              	.LBE54:
 212              	.LBB56:
 213              	.LBB57:
  58:src/../h/list.hpp **** 
 214              		.loc 3 58 26
 215 00bc 23B00402 		sd	zero,32(s1)
 216              	.L18:
 217              	.LVL19:
  61:src/../h/list.hpp ****             return ret;
 218              		.loc 3 61 13
 219 00c0 97000000 		call	_ZdlPv@plt
 219      E7800000 
 220              	.LVL20:
 221              	.L17:
 222              	.LBE57:
 223              	.LBE56:
 224              		.loc 2 30 5 is_stmt 1
 225              	.LBB59:
 226              	.LBB60:
  67:src/../h/list.hpp ****             return head->data;
 227              		.loc 3 67 18 is_stmt 0
 228 00c8 83B78401 		ld	a5,24(s1)
  67:src/../h/list.hpp ****             return head->data;
 229              		.loc 3 67 13
 230 00cc 63880702 		beqz	a5,.L16
 231              		.loc 3 68 26
 232 00d0 03B50700 		ld	a0,0(a5)
 233              	.LVL21:
 234              	.L19:
 235              	.LBE60:
 236              	.LBE59:
  31:src/_sem.cpp  ****          thread != nullptr; thread = handle->blokiraneNiti.peekFirst()) {
 237              		.loc 2 31 17 is_stmt 1 discriminator 2
 238 00d4 63040502 		beqz	a0,.L16
  32:src/_sem.cpp  ****         thread->setBlocked(false);  // Oznaci nit kao deblokiranu
 239              		.loc 2 32 9
 240              	.LVL22:
 241              	.LBB61:
 242              	.LBB62:
 243              		.file 4 "src/../h/TCB.hpp"
   1:src/../h/TCB.hpp **** //
   2:src/../h/TCB.hpp **** // Created by os on 9/13/24.
   3:src/../h/TCB.hpp **** //
   4:src/../h/TCB.hpp **** 
   5:src/../h/TCB.hpp **** #ifndef TCB_HPP
   6:src/../h/TCB.hpp **** #define TCB_HPP
   7:src/../h/TCB.hpp **** 
   8:src/../h/TCB.hpp **** #include "../lib/hw.h"
   9:src/../h/TCB.hpp **** #include "scheduler.hpp"
  10:src/../h/TCB.hpp **** #include "../h/riscv.hpp"
  11:src/../h/TCB.hpp **** #include "../lib/mem.h"
  12:src/../h/TCB.hpp **** #include "syscall_c.hpp"
  13:src/../h/TCB.hpp **** #include "../h/list.hpp"
  14:src/../h/TCB.hpp **** #include "syscall_cpp.hpp"
  15:src/../h/TCB.hpp **** 
  16:src/../h/TCB.hpp **** class TCB {
GAS LISTING /tmp/ccKlSPQC.s 			page 8


  17:src/../h/TCB.hpp **** public:
  18:src/../h/TCB.hpp ****     using Body = void (*)(void *);
  19:src/../h/TCB.hpp **** 
  20:src/../h/TCB.hpp ****     bool isFinished() const { return finished; }
  21:src/../h/TCB.hpp **** 
  22:src/../h/TCB.hpp ****     void setFinished(bool value) { finished = value; }
  23:src/../h/TCB.hpp **** 
  24:src/../h/TCB.hpp ****     bool isBlocked() const { return blocked; }
  25:src/../h/TCB.hpp **** 
  26:src/../h/TCB.hpp ****     void setBlocked(bool value) { blocked = value; }
 244              		.loc 4 26 35
 245              		.loc 4 26 43 is_stmt 0
 246 00d8 A30C0502 		sb	zero,57(a0)
 247              	.LVL23:
 248              	.LBE62:
 249              	.LBE61:
  33:src/_sem.cpp  ****         Scheduler::put(thread);     //
 250              		.loc 2 33 9 is_stmt 1
 251              		.loc 2 33 23 is_stmt 0
 252 00dc 97000000 		call	_ZN9Scheduler3putEP3TCB@plt
 252      E7800000 
 253              	.LVL24:
  34:src/_sem.cpp  ****         handle->blokiraneNiti.removeFirst();  // ukloni  nit iz liste
 254              		.loc 2 34 9 is_stmt 1
 255              	.LBB63:
 256              	.LBB58:
  54:src/../h/list.hpp **** 
 257              		.loc 3 54 18 is_stmt 0
 258 00e4 03B58401 		ld	a0,24(s1)
  54:src/../h/list.hpp **** 
 259              		.loc 3 54 13
 260 00e8 E30005FE 		beqz	a0,.L17
 261              	.LVL25:
  57:src/../h/list.hpp ****             if (!head) { tail = 0; }
 262              		.loc 3 57 26
 263 00ec 83378500 		ld	a5,8(a0)
  57:src/../h/list.hpp ****             if (!head) { tail = 0; }
 264              		.loc 3 57 13
 265 00f0 23BCF400 		sd	a5,24(s1)
  58:src/../h/list.hpp **** 
 266              		.loc 3 58 13
 267 00f4 E39607FC 		bnez	a5,.L18
 268 00f8 6FF05FFC 		j	.L27
 269              	.LVL26:
 270              	.L16:
 271              	.LBE58:
 272              	.LBE63:
 273              	.LBE53:
  35:src/_sem.cpp  ****     }
  36:src/_sem.cpp  **** 
  37:src/_sem.cpp  ****     if (MemoryAllocator::mem_free(handle)) {
 274              		.loc 2 37 5 is_stmt 1
 275              		.loc 2 37 34 is_stmt 0
 276 00fc 13850400 		mv	a0,s1
 277 0100 97000000 		call	_ZN15MemoryAllocator8mem_freeEPv@plt
 277      E7800000 
 278              	.LVL27:
GAS LISTING /tmp/ccKlSPQC.s 			page 9


 279              		.loc 2 37 5
 280 0108 63140502 		bnez	a0,.L28
 281              	.L14:
  38:src/_sem.cpp  ****         return -2;
  39:src/_sem.cpp  ****     }
  40:src/_sem.cpp  **** 
  41:src/_sem.cpp  ****     return 0;
  42:src/_sem.cpp  **** }
 282              		.loc 2 42 1
 283 010c 83308101 		ld	ra,24(sp)
 284              		.cfi_restore 1
 285 0110 03340101 		ld	s0,16(sp)
 286              		.cfi_restore 8
 287              		.cfi_def_cfa 2, 32
 288 0114 83348100 		ld	s1,8(sp)
 289              		.cfi_restore 9
 290              	.LVL28:
 291 0118 13010102 		addi	sp,sp,32
 292              		.cfi_def_cfa_offset 0
 293 011c 67800000 		jr	ra
 294              	.LVL29:
 295              	.L20:
  27:src/_sem.cpp  ****     }
 296              		.loc 2 27 17
 297 0120 1305F0FF 		li	a0,-1
 298              	.LVL30:
 299              		.loc 2 42 1
 300 0124 67800000 		ret
 301              	.LVL31:
 302              	.L21:
 303              		.cfi_def_cfa_register 8
 304              		.cfi_offset 1, -8
 305              		.cfi_offset 8, -16
 306              		.cfi_offset 9, -24
  27:src/_sem.cpp  ****     }
 307              		.loc 2 27 17
 308 0128 1305F0FF 		li	a0,-1
 309 012c 6FF01FFE 		j	.L14
 310              	.L28:
  38:src/_sem.cpp  ****         return -2;
 311              		.loc 2 38 17
 312 0130 1305E0FF 		li	a0,-2
 313 0134 6FF09FFD 		j	.L14
 314              		.cfi_endproc
 315              	.LFE43:
 317              		.align	2
 318              		.globl	_ZN4_sem8sem_waitEPS_
 320              	_ZN4_sem8sem_waitEPS_:
 321              	.LFB44:
  43:src/_sem.cpp  **** 
  44:src/_sem.cpp  **** 
  45:src/_sem.cpp  **** int _sem::sem_wait(sem_t id) {
 322              		.loc 2 45 30 is_stmt 1
 323              		.cfi_startproc
 324              	.LVL32:
  46:src/_sem.cpp  ****     if (id == nullptr || id->closed) {
 325              		.loc 2 46 5
GAS LISTING /tmp/ccKlSPQC.s 			page 10


 326 0138 630A050A 		beqz	a0,.L35
  45:src/_sem.cpp  ****     if (id == nullptr || id->closed) {
 327              		.loc 2 45 30 is_stmt 0 discriminator 1
 328 013c 130101FE 		addi	sp,sp,-32
 329              		.cfi_def_cfa_offset 32
 330 0140 233C1100 		sd	ra,24(sp)
 331 0144 23388100 		sd	s0,16(sp)
 332 0148 23349100 		sd	s1,8(sp)
 333 014c 23302101 		sd	s2,0(sp)
 334              		.cfi_offset 1, -8
 335              		.cfi_offset 8, -16
 336              		.cfi_offset 9, -24
 337              		.cfi_offset 18, -32
 338 0150 13040102 		addi	s0,sp,32
 339              		.cfi_def_cfa 8, 0
 340 0154 93040500 		mv	s1,a0
 341              		.loc 2 46 30 discriminator 1
 342 0158 83470501 		lbu	a5,16(a0)
 343              		.loc 2 46 23 discriminator 1
 344 015c 639C0708 		bnez	a5,.L36
  47:src/_sem.cpp  ****         return -1;
  48:src/_sem.cpp  ****     }
  49:src/_sem.cpp  ****     if (id->value == 0) {//ako je semafor nula ili manji, blokiraj nit
 345              		.loc 2 49 5 is_stmt 1
 346              		.loc 2 49 13 is_stmt 0
 347 0160 83378500 		ld	a5,8(a0)
 348              		.loc 2 49 5
 349 0164 63880702 		beqz	a5,.L42
  50:src/_sem.cpp  ****         TCB::running->setBlocked(true);  //  nit blokirana
  51:src/_sem.cpp  ****         id->blokiraneNiti.addLast(TCB::running);  // Dodaj nit na listu blokiranih
  52:src/_sem.cpp  ****         TCB::yield();
  53:src/_sem.cpp  ****     } else {
  54:src/_sem.cpp  ****         id->value--;
 350              		.loc 2 54 9 is_stmt 1
 351              		.loc 2 54 18 is_stmt 0
 352 0168 9387F7FF 		addi	a5,a5,-1
 353 016c 2334F500 		sd	a5,8(a0)
 354              	.LVL33:
 355              	.L34:
  55:src/_sem.cpp  ****     }
  56:src/_sem.cpp  ****     if (id->closed)
 356              		.loc 2 56 5 is_stmt 1
 357              		.loc 2 56 13 is_stmt 0
 358 0170 83C70401 		lbu	a5,16(s1)
 359              		.loc 2 56 5
 360 0174 63980706 		bnez	a5,.L43
  57:src/_sem.cpp  ****         return -1;
  58:src/_sem.cpp  ****     else
  59:src/_sem.cpp  ****         return 0;
 361              		.loc 2 59 16
 362 0178 13050000 		li	a0,0
 363              	.L30:
  60:src/_sem.cpp  **** }
 364              		.loc 2 60 1
 365 017c 83308101 		ld	ra,24(sp)
 366              		.cfi_remember_state
 367              		.cfi_restore 1
GAS LISTING /tmp/ccKlSPQC.s 			page 11


 368 0180 03340101 		ld	s0,16(sp)
 369              		.cfi_restore 8
 370              		.cfi_def_cfa 2, 32
 371 0184 83348100 		ld	s1,8(sp)
 372              		.cfi_restore 9
 373              	.LVL34:
 374 0188 03390100 		ld	s2,0(sp)
 375              		.cfi_restore 18
 376 018c 13010102 		addi	sp,sp,32
 377              		.cfi_def_cfa_offset 0
 378 0190 67800000 		jr	ra
 379              	.LVL35:
 380              	.L42:
 381              		.cfi_restore_state
  50:src/_sem.cpp  ****         id->blokiraneNiti.addLast(TCB::running);  // Dodaj nit na listu blokiranih
 382              		.loc 2 50 9 is_stmt 1
  50:src/_sem.cpp  ****         id->blokiraneNiti.addLast(TCB::running);  // Dodaj nit na listu blokiranih
 383              		.loc 2 50 33 is_stmt 0
 384 0194 97070000 		la	a5,_ZN3TCB7runningE
 384      83B70700 
 385 019c 03B90700 		ld	s2,0(a5)
 386              	.LVL36:
 387              	.LBB64:
 388              	.LBB65:
 389              		.loc 4 26 35 is_stmt 1
 390              		.loc 4 26 43 is_stmt 0
 391 01a0 93071000 		li	a5,1
 392 01a4 A30CF902 		sb	a5,57(s2)
 393              	.LVL37:
 394              	.LBE65:
 395              	.LBE64:
  51:src/_sem.cpp  ****         TCB::yield();
 396              		.loc 2 51 9 is_stmt 1
 397              	.LBB66:
 398              	.LBB67:
  41:src/../h/list.hpp ****             if (tail)
 399              		.loc 3 41 26 is_stmt 0
 400 01a8 13050001 		li	a0,16
 401 01ac 97000000 		call	_Znwm@plt
 401      E7800000 
 402              	.LVL38:
 403              	.LBB68:
 404              	.LBB69:
  18:src/../h/list.hpp **** 
 405              		.loc 3 18 62
 406 01b4 23302501 		sd	s2,0(a0)
 407 01b8 23340500 		sd	zero,8(a0)
 408              	.LVL39:
 409              	.LBE69:
 410              	.LBE68:
  42:src/../h/list.hpp ****             {
 411              		.loc 3 42 17
 412 01bc 83B70402 		ld	a5,32(s1)
  42:src/../h/list.hpp ****             {
 413              		.loc 3 42 13
 414 01c0 638C0700 		beqz	a5,.L32
  44:src/../h/list.hpp ****                 tail = elem;
GAS LISTING /tmp/ccKlSPQC.s 			page 12


 415              		.loc 3 44 17
 416 01c4 23B4A700 		sd	a0,8(a5)
  45:src/../h/list.hpp ****             } else
 417              		.loc 3 45 17
 418 01c8 23B0A402 		sd	a0,32(s1)
 419              	.L33:
 420              	.LVL40:
 421              	.LBE67:
 422              	.LBE66:
  52:src/_sem.cpp  ****     } else {
 423              		.loc 2 52 9 is_stmt 1
  52:src/_sem.cpp  ****     } else {
 424              		.loc 2 52 19 is_stmt 0
 425 01cc 97000000 		call	_ZN3TCB5yieldEv@plt
 425      E7800000 
 426              	.LVL41:
 427 01d4 6FF0DFF9 		j	.L34
 428              	.LVL42:
 429              	.L32:
 430              	.LBB71:
 431              	.LBB70:
  48:src/../h/list.hpp ****             }
 432              		.loc 3 48 17
 433 01d8 23B0A402 		sd	a0,32(s1)
 434 01dc 23BCA400 		sd	a0,24(s1)
 435 01e0 6FF0DFFE 		j	.L33
 436              	.LVL43:
 437              	.L43:
 438              	.LBE70:
 439              	.LBE71:
  57:src/_sem.cpp  ****     else
 440              		.loc 2 57 17
 441 01e4 1305F0FF 		li	a0,-1
 442 01e8 6FF05FF9 		j	.L30
 443              	.LVL44:
 444              	.L35:
 445              		.cfi_def_cfa_register 2
 446              		.cfi_restore 1
 447              		.cfi_restore 8
 448              		.cfi_restore 9
 449              		.cfi_restore 18
  47:src/_sem.cpp  ****     }
 450              		.loc 2 47 17
 451 01ec 1305F0FF 		li	a0,-1
 452              	.LVL45:
 453              		.loc 2 60 1
 454 01f0 67800000 		ret
 455              	.LVL46:
 456              	.L36:
 457              		.cfi_def_cfa_register 8
 458              		.cfi_offset 1, -8
 459              		.cfi_offset 8, -16
 460              		.cfi_offset 9, -24
 461              		.cfi_offset 18, -32
  47:src/_sem.cpp  ****     }
 462              		.loc 2 47 17
 463 01f4 1305F0FF 		li	a0,-1
GAS LISTING /tmp/ccKlSPQC.s 			page 13


 464 01f8 6FF05FF8 		j	.L30
 465              		.cfi_endproc
 466              	.LFE44:
 468              		.align	2
 469              		.globl	_ZN4_sem10sem_signalEPS_
 471              	_ZN4_sem10sem_signalEPS_:
 472              	.LFB45:
  61:src/_sem.cpp  **** 
  62:src/_sem.cpp  **** 
  63:src/_sem.cpp  **** int _sem::sem_signal(sem_t id) {
 473              		.loc 2 63 32 is_stmt 1
 474              		.cfi_startproc
 475              	.LVL47:
  64:src/_sem.cpp  ****     if (id == nullptr) {
 476              		.loc 2 64 5
 477 01fc 630A0508 		beqz	a0,.L48
 478 0200 93070500 		mv	a5,a0
  65:src/_sem.cpp  ****         return -1;
  66:src/_sem.cpp  ****     }
  67:src/_sem.cpp  **** 
  68:src/_sem.cpp  ****     if (id->closed) {
 479              		.loc 2 68 5
 480              		.loc 2 68 13 is_stmt 0
 481 0204 03470501 		lbu	a4,16(a0)
 482              		.loc 2 68 5
 483 0208 63180708 		bnez	a4,.L49
  69:src/_sem.cpp  ****         return -2;
  70:src/_sem.cpp  ****     }
  71:src/_sem.cpp  **** 
  72:src/_sem.cpp  ****     // da li postoji neka blokirana nit
  73:src/_sem.cpp  **** 
  74:src/_sem.cpp  ****     if (!id->blokiraneNiti.isEmpty()) {
 484              		.loc 2 74 5 is_stmt 1
 485              	.LVL48:
 486              	.LBB72:
 487              	.LBB73:
 488              	.LBB74:
  69:src/../h/list.hpp ****         }
  70:src/../h/list.hpp **** 
  71:src/../h/list.hpp ****         T *removeLast()
  72:src/../h/list.hpp ****         {
  73:src/../h/list.hpp ****             if (!head) { return 0; }
  74:src/../h/list.hpp **** 
  75:src/../h/list.hpp ****             Elem *prev = 0;
  76:src/../h/list.hpp ****             for (Elem *curr = head; curr && curr != tail; curr = curr->next)
  77:src/../h/list.hpp ****             {
  78:src/../h/list.hpp ****                 prev = curr;
  79:src/../h/list.hpp ****             }
  80:src/../h/list.hpp **** 
  81:src/../h/list.hpp ****             Elem *elem = tail;
  82:src/../h/list.hpp ****             if (prev) { prev->next = 0; }
  83:src/../h/list.hpp ****             else { head = 0; }
  84:src/../h/list.hpp ****             tail = prev;
  85:src/../h/list.hpp **** 
  86:src/../h/list.hpp ****             T *ret = elem->data;
  87:src/../h/list.hpp ****             delete elem;
  88:src/../h/list.hpp ****             return ret;
GAS LISTING /tmp/ccKlSPQC.s 			page 14


  89:src/../h/list.hpp ****         }
  90:src/../h/list.hpp **** 
  91:src/../h/list.hpp ****         T *peekLast()
  92:src/../h/list.hpp ****         {
  93:src/../h/list.hpp ****             if (!tail) { return 0; }
  94:src/../h/list.hpp ****             return tail->data;
  95:src/../h/list.hpp ****         }
  96:src/../h/list.hpp **** 
  97:src/../h/list.hpp ****         bool isEmpty() const {
  98:src/../h/list.hpp ****             return head == nullptr or tail == nullptr;
 489              		.loc 3 98 20 is_stmt 0
 490 020c 03358501 		ld	a0,24(a0)
 491              	.LVL49:
 492              		.loc 3 98 36
 493 0210 63060506 		beqz	a0,.L46
 494              		.loc 3 98 39
 495 0214 03B70702 		ld	a4,32(a5)
 496              		.loc 3 98 36
 497 0218 63020706 		beqz	a4,.L46
 498              	.LBE74:
 499              	.LBE73:
 500              	.LBE72:
  63:src/_sem.cpp  ****     if (id == nullptr) {
 501              		.loc 2 63 32
 502 021c 130101FE 		addi	sp,sp,-32
 503              		.cfi_def_cfa_offset 32
 504 0220 233C1100 		sd	ra,24(sp)
 505 0224 23388100 		sd	s0,16(sp)
 506 0228 23349100 		sd	s1,8(sp)
 507              		.cfi_offset 1, -8
 508              		.cfi_offset 8, -16
 509              		.cfi_offset 9, -24
 510 022c 13040102 		addi	s0,sp,32
 511              		.cfi_def_cfa 8, 0
 512              	.LVL50:
 513              	.LBB83:
 514              	.LBB75:
  75:src/_sem.cpp  ****         TCB *thread = id->blokiraneNiti.removeFirst();  // ako da  deblokiraj prvu
 515              		.loc 2 75 9 is_stmt 1
 516              	.LBB76:
 517              	.LBB77:
  57:src/../h/list.hpp ****             if (!head) { tail = 0; }
 518              		.loc 3 57 26 is_stmt 0
 519 0230 03378500 		ld	a4,8(a0)
  57:src/../h/list.hpp ****             if (!head) { tail = 0; }
 520              		.loc 3 57 13
 521 0234 23BCE700 		sd	a4,24(a5)
  58:src/../h/list.hpp **** 
 522              		.loc 3 58 13
 523 0238 630E0702 		beqz	a4,.L55
 524              	.L47:
  60:src/../h/list.hpp ****             delete elem;
 525              		.loc 3 60 16
 526 023c 83340500 		ld	s1,0(a0)
 527              	.LVL51:
  61:src/../h/list.hpp ****             return ret;
 528              		.loc 3 61 13
GAS LISTING /tmp/ccKlSPQC.s 			page 15


 529 0240 97000000 		call	_ZdlPv@plt
 529      E7800000 
 530              	.LVL52:
 531              	.LBE77:
 532              	.LBE76:
  76:src/_sem.cpp  ****         if (thread != nullptr) {
 533              		.loc 2 76 9 is_stmt 1
 534 0248 638C0404 		beqz	s1,.L50
  77:src/_sem.cpp  **** 
  78:src/_sem.cpp  ****             thread->setBlocked(false);  // nije blokirana
 535              		.loc 2 78 13
 536              	.LVL53:
 537              	.LBB79:
 538              	.LBB80:
 539              		.loc 4 26 35
 540              		.loc 4 26 43 is_stmt 0
 541 024c A38C0402 		sb	zero,57(s1)
 542              	.LVL54:
 543              	.LBE80:
 544              	.LBE79:
  79:src/_sem.cpp  ****             Scheduler::put(thread);  // ubaci
 545              		.loc 2 79 13 is_stmt 1
 546              		.loc 2 79 27 is_stmt 0
 547 0250 13850400 		mv	a0,s1
 548 0254 97000000 		call	_ZN9Scheduler3putEP3TCB@plt
 548      E7800000 
 549              	.LVL55:
 550              	.LBE75:
 551              	.LBE83:
  80:src/_sem.cpp  ****         }
  81:src/_sem.cpp  ****     } else {
  82:src/_sem.cpp  ****         id->value++;
  83:src/_sem.cpp  ****     }
  84:src/_sem.cpp  ****     return 0;
 552              		.loc 2 84 12
 553 025c 13050000 		li	a0,0
 554              	.L45:
  85:src/_sem.cpp  **** }
 555              		.loc 2 85 1
 556 0260 83308101 		ld	ra,24(sp)
 557              		.cfi_remember_state
 558              		.cfi_restore 1
 559 0264 03340101 		ld	s0,16(sp)
 560              		.cfi_restore 8
 561              		.cfi_def_cfa 2, 32
 562 0268 83348100 		ld	s1,8(sp)
 563              		.cfi_restore 9
 564              	.LVL56:
 565 026c 13010102 		addi	sp,sp,32
 566              		.cfi_def_cfa_offset 0
 567 0270 67800000 		jr	ra
 568              	.LVL57:
 569              	.L55:
 570              		.cfi_restore_state
 571              	.LBB84:
 572              	.LBB82:
 573              	.LBB81:
GAS LISTING /tmp/ccKlSPQC.s 			page 16


 574              	.LBB78:
  58:src/../h/list.hpp **** 
 575              		.loc 3 58 26
 576 0274 23B00702 		sd	zero,32(a5)
 577 0278 6FF05FFC 		j	.L47
 578              	.LVL58:
 579              	.L46:
 580              		.cfi_def_cfa_register 2
 581              		.cfi_restore 1
 582              		.cfi_restore 8
 583              		.cfi_restore 9
 584              	.LBE78:
 585              	.LBE81:
 586              	.LBE82:
  82:src/_sem.cpp  ****     }
 587              		.loc 2 82 9 is_stmt 1
  82:src/_sem.cpp  ****     }
 588              		.loc 2 82 13 is_stmt 0
 589 027c 03B78700 		ld	a4,8(a5)
  82:src/_sem.cpp  ****     }
 590              		.loc 2 82 18
 591 0280 13071700 		addi	a4,a4,1
 592 0284 23B4E700 		sd	a4,8(a5)
 593              	.LBE84:
  84:src/_sem.cpp  **** }
 594              		.loc 2 84 12
 595 0288 13050000 		li	a0,0
 596 028c 67800000 		ret
 597              	.LVL59:
 598              	.L48:
  65:src/_sem.cpp  ****     }
 599              		.loc 2 65 17
 600 0290 1305F0FF 		li	a0,-1
 601              	.LVL60:
 602 0294 67800000 		ret
 603              	.LVL61:
 604              	.L49:
  69:src/_sem.cpp  ****     }
 605              		.loc 2 69 17
 606 0298 1305E0FF 		li	a0,-2
 607              	.LVL62:
 608              		.loc 2 85 1
 609 029c 67800000 		ret
 610              	.LVL63:
 611              	.L50:
 612              		.cfi_def_cfa_register 8
 613              		.cfi_offset 1, -8
 614              		.cfi_offset 8, -16
 615              		.cfi_offset 9, -24
  84:src/_sem.cpp  **** }
 616              		.loc 2 84 12
 617 02a0 13050000 		li	a0,0
 618 02a4 6FF0DFFB 		j	.L45
 619              		.cfi_endproc
 620              	.LFE45:
 622              		.align	2
 623              		.globl	_ZN4_sem11sem_trywaitEPS_
GAS LISTING /tmp/ccKlSPQC.s 			page 17


 625              	_ZN4_sem11sem_trywaitEPS_:
 626              	.LFB46:
  86:src/_sem.cpp  **** 
  87:src/_sem.cpp  **** int _sem::sem_trywait(sem_t id) {
 627              		.loc 2 87 33 is_stmt 1
 628              		.cfi_startproc
 629              	.LVL64:
 630 02a8 130101FF 		addi	sp,sp,-16
 631              		.cfi_def_cfa_offset 16
 632 02ac 23348100 		sd	s0,8(sp)
 633              		.cfi_offset 8, -8
 634 02b0 13040101 		addi	s0,sp,16
 635              		.cfi_def_cfa 8, 0
  88:src/_sem.cpp  ****     if (id == nullptr) return -1;
 636              		.loc 2 88 5
 637 02b4 63020502 		beqz	a0,.L58
  89:src/_sem.cpp  ****     if (id->value <= 0) { // Ako je semafor vec zaključan, vraca 1
 638              		.loc 2 89 5
 639              		.loc 2 89 13 is_stmt 0
 640 02b8 83378500 		ld	a5,8(a0)
 641              		.loc 2 89 5
 642 02bc 6352F002 		blez	a5,.L59
  90:src/_sem.cpp  ****         return 1;
  91:src/_sem.cpp  ****     }
  92:src/_sem.cpp  ****     id->value--; // semafor nije zaključan, smanji vrednost semafora i vrati 0
 643              		.loc 2 92 5 is_stmt 1
 644              		.loc 2 92 14 is_stmt 0
 645 02c0 9387F7FF 		addi	a5,a5,-1
 646 02c4 2334F500 		sd	a5,8(a0)
  93:src/_sem.cpp  ****     return 0;
 647              		.loc 2 93 5 is_stmt 1
 648              		.loc 2 93 12 is_stmt 0
 649 02c8 13050000 		li	a0,0
 650              	.LVL65:
 651              	.L57:
  94:src/_sem.cpp  **** }
 652              		.loc 2 94 1
 653 02cc 03348100 		ld	s0,8(sp)
 654              		.cfi_remember_state
 655              		.cfi_restore 8
 656              		.cfi_def_cfa 2, 16
 657 02d0 13010101 		addi	sp,sp,16
 658              		.cfi_def_cfa_offset 0
 659 02d4 67800000 		jr	ra
 660              	.LVL66:
 661              	.L58:
 662              		.cfi_restore_state
  88:src/_sem.cpp  ****     if (id->value <= 0) { // Ako je semafor vec zaključan, vraca 1
 663              		.loc 2 88 32
 664 02d8 1305F0FF 		li	a0,-1
 665              	.LVL67:
 666 02dc 6FF01FFF 		j	.L57
 667              	.LVL68:
 668              	.L59:
  90:src/_sem.cpp  ****     }
 669              		.loc 2 90 16
 670 02e0 13051000 		li	a0,1
GAS LISTING /tmp/ccKlSPQC.s 			page 18


 671              	.LVL69:
 672 02e4 6FF09FFE 		j	.L57
 673              		.cfi_endproc
 674              	.LFE46:
 676              		.weak	_ZTV4_sem
 677              		.section	.data.rel.ro.local._ZTV4_sem,"awG",@progbits,_ZTV4_sem,comdat
 678              		.align	3
 681              	_ZTV4_sem:
 682 0000 00000000 		.dword	0
 682      00000000 
 683 0008 00000000 		.dword	0
 683      00000000 
 684 0010 00000000 		.dword	_ZN4_semD1Ev
 684      00000000 
 685 0018 00000000 		.dword	_ZN4_semD0Ev
 685      00000000 
 686              		.text
 687              	.Letext0:
 688              		.file 5 "src/../h/../lib/hw.h"
 689              		.file 6 "src/../h/MemoryAllocator.hpp"
 690              		.file 7 "src/../h/scheduler.hpp"
 691              		.file 8 "src/../h/syscall_c.hpp"
 692              		.file 9 "src/../h/syscall_cpp.hpp"
GAS LISTING /tmp/ccKlSPQC.s 			page 19


DEFINED SYMBOLS
                            *ABS*:0000000000000000 _sem.cpp
     /tmp/ccKlSPQC.s:10     .text._ZN4_semD2Ev:0000000000000000 _ZN4_semD2Ev
     /tmp/ccKlSPQC.s:14     .text._ZN4_semD2Ev:0000000000000000 .L0 
     /tmp/ccKlSPQC.s:16     .text._ZN4_semD2Ev:0000000000000000 .L0 
     /tmp/ccKlSPQC.s:17     .text._ZN4_semD2Ev:0000000000000004 .L0 
     /tmp/ccKlSPQC.s:19     .text._ZN4_semD2Ev:0000000000000008 .L0 
     /tmp/ccKlSPQC.s:21     .text._ZN4_semD2Ev:000000000000000c .L0 
     /tmp/ccKlSPQC.s:23     .text._ZN4_semD2Ev:000000000000000c .L0 
     /tmp/ccKlSPQC.s:24     .text._ZN4_semD2Ev:0000000000000010 .L0 
     /tmp/ccKlSPQC.s:25     .text._ZN4_semD2Ev:0000000000000010 .L0 
     /tmp/ccKlSPQC.s:27     .text._ZN4_semD2Ev:0000000000000014 .L0 
     /tmp/ccKlSPQC.s:29     .text._ZN4_semD2Ev:0000000000000018 .L0 
     /tmp/ccKlSPQC.s:10     .text._ZN4_semD2Ev:0000000000000000 _ZN4_semD1Ev
     /tmp/ccKlSPQC.s:38     .text._ZN4_semD0Ev:0000000000000000 _ZN4_semD0Ev
     /tmp/ccKlSPQC.s:41     .text._ZN4_semD0Ev:0000000000000000 .L0 
     /tmp/ccKlSPQC.s:43     .text._ZN4_semD0Ev:0000000000000000 .L0 
     /tmp/ccKlSPQC.s:44     .text._ZN4_semD0Ev:0000000000000004 .L0 
     /tmp/ccKlSPQC.s:47     .text._ZN4_semD0Ev:000000000000000c .L0 
     /tmp/ccKlSPQC.s:48     .text._ZN4_semD0Ev:000000000000000c .L0 
     /tmp/ccKlSPQC.s:50     .text._ZN4_semD0Ev:0000000000000010 .L0 
     /tmp/ccKlSPQC.s:52     .text._ZN4_semD0Ev:0000000000000010 .L0 
     /tmp/ccKlSPQC.s:55     .text._ZN4_semD0Ev:000000000000001c .L0 
     /tmp/ccKlSPQC.s:57     .text._ZN4_semD0Ev:0000000000000020 .L0 
     /tmp/ccKlSPQC.s:58     .text._ZN4_semD0Ev:0000000000000020 .L0 
     /tmp/ccKlSPQC.s:60     .text._ZN4_semD0Ev:0000000000000024 .L0 
     /tmp/ccKlSPQC.s:62     .text._ZN4_semD0Ev:0000000000000028 .L0 
     /tmp/ccKlSPQC.s:69     .text:0000000000000000 _ZN4_sem8sem_openEPPS_l
     /tmp/ccKlSPQC.s:73     .text:0000000000000000 .L0 
     /tmp/ccKlSPQC.s:75     .text:0000000000000000 .L0 
     /tmp/ccKlSPQC.s:76     .text:0000000000000000 .L0 
     /tmp/ccKlSPQC.s:78     .text:0000000000000004 .L0 
     /tmp/ccKlSPQC.s:79     .text:0000000000000008 .L0 
     /tmp/ccKlSPQC.s:84     .text:0000000000000018 .L0 
     /tmp/ccKlSPQC.s:85     .text:0000000000000018 .L0 
     /tmp/ccKlSPQC.s:86     .text:0000000000000018 .L0 
     /tmp/ccKlSPQC.s:87     .text:0000000000000018 .L0 
     /tmp/ccKlSPQC.s:89     .text:000000000000001c .L0 
     /tmp/ccKlSPQC.s:93     .text:0000000000000024 .L0 
     /tmp/ccKlSPQC.s:94     .text:0000000000000024 .L0 
     /tmp/ccKlSPQC.s:681    .data.rel.ro.local._ZTV4_sem:0000000000000000 _ZTV4_sem
     /tmp/ccKlSPQC.s:101    .text:0000000000000030 .L0 
     /tmp/ccKlSPQC.s:109    .text:0000000000000040 .L0 
     /tmp/ccKlSPQC.s:117    .text:0000000000000048 .L0 
     /tmp/ccKlSPQC.s:118    .text:0000000000000048 .L0 
     /tmp/ccKlSPQC.s:120    .text:000000000000004c .L0 
     /tmp/ccKlSPQC.s:121    .text:000000000000004c .L0 
     /tmp/ccKlSPQC.s:122    .text:000000000000004c .L0 
     /tmp/ccKlSPQC.s:124    .text:0000000000000050 .L0 
     /tmp/ccKlSPQC.s:126    .text:0000000000000054 .L0 
     /tmp/ccKlSPQC.s:130    .text:0000000000000058 .L0 
     /tmp/ccKlSPQC.s:131    .text:000000000000005c .L0 
     /tmp/ccKlSPQC.s:133    .text:0000000000000060 .L0 
     /tmp/ccKlSPQC.s:134    .text:0000000000000060 .L0 
     /tmp/ccKlSPQC.s:136    .text:0000000000000064 .L0 
     /tmp/ccKlSPQC.s:139    .text:0000000000000068 .L0 
     /tmp/ccKlSPQC.s:142    .text:000000000000006c .L0 
GAS LISTING /tmp/ccKlSPQC.s 			page 20


     /tmp/ccKlSPQC.s:147    .text:0000000000000070 .L0 
     /tmp/ccKlSPQC.s:150    .text:0000000000000074 .L0 
     /tmp/ccKlSPQC.s:153    .text:0000000000000078 .L0 
     /tmp/ccKlSPQC.s:154    .text:0000000000000078 .L0 
     /tmp/ccKlSPQC.s:155    .text:0000000000000078 .L0 
     /tmp/ccKlSPQC.s:156    .text:0000000000000078 .L0 
     /tmp/ccKlSPQC.s:157    .text:0000000000000078 .L0 
     /tmp/ccKlSPQC.s:159    .text:0000000000000078 .L0 
     /tmp/ccKlSPQC.s:162    .text:0000000000000080 .L0 
     /tmp/ccKlSPQC.s:168    .text:0000000000000080 _ZN4_sem9sem_closeEPS_
     /tmp/ccKlSPQC.s:171    .text:0000000000000080 .L0 
     /tmp/ccKlSPQC.s:173    .text:0000000000000080 .L0 
     /tmp/ccKlSPQC.s:174    .text:0000000000000080 .L0 
     /tmp/ccKlSPQC.s:176    .text:0000000000000084 .L0 
     /tmp/ccKlSPQC.s:177    .text:0000000000000088 .L0 
     /tmp/ccKlSPQC.s:181    .text:0000000000000094 .L0 
     /tmp/ccKlSPQC.s:182    .text:0000000000000094 .L0 
     /tmp/ccKlSPQC.s:183    .text:0000000000000094 .L0 
     /tmp/ccKlSPQC.s:185    .text:0000000000000098 .L0 
     /tmp/ccKlSPQC.s:188    .text:000000000000009c .L0 
     /tmp/ccKlSPQC.s:190    .text:00000000000000a0 .L0 
     /tmp/ccKlSPQC.s:192    .text:00000000000000a4 .L0 
     /tmp/ccKlSPQC.s:193    .text:00000000000000a4 .L0 
     /tmp/ccKlSPQC.s:200    .text:00000000000000ac .L0 
     /tmp/ccKlSPQC.s:201    .text:00000000000000ac .L0 
     /tmp/ccKlSPQC.s:204    .text:00000000000000b0 .L0 
     /tmp/ccKlSPQC.s:206    .text:00000000000000b4 .L0 
     /tmp/ccKlSPQC.s:215    .text:00000000000000bc .L0 
     /tmp/ccKlSPQC.s:219    .text:00000000000000c0 .L0 
     /tmp/ccKlSPQC.s:227    .text:00000000000000c8 .L0 
     /tmp/ccKlSPQC.s:228    .text:00000000000000c8 .L0 
     /tmp/ccKlSPQC.s:230    .text:00000000000000cc .L0 
     /tmp/ccKlSPQC.s:232    .text:00000000000000d0 .L0 
     /tmp/ccKlSPQC.s:238    .text:00000000000000d4 .L0 
     /tmp/ccKlSPQC.s:244    .text:00000000000000d8 .L0 
     /tmp/ccKlSPQC.s:245    .text:00000000000000d8 .L0 
     /tmp/ccKlSPQC.s:246    .text:00000000000000d8 .L0 
     /tmp/ccKlSPQC.s:251    .text:00000000000000dc .L0 
     /tmp/ccKlSPQC.s:252    .text:00000000000000dc .L0 
     /tmp/ccKlSPQC.s:257    .text:00000000000000e4 .L0 
     /tmp/ccKlSPQC.s:258    .text:00000000000000e4 .L0 
     /tmp/ccKlSPQC.s:260    .text:00000000000000e8 .L0 
     /tmp/ccKlSPQC.s:263    .text:00000000000000ec .L0 
     /tmp/ccKlSPQC.s:265    .text:00000000000000f0 .L0 
     /tmp/ccKlSPQC.s:267    .text:00000000000000f4 .L0 
     /tmp/ccKlSPQC.s:275    .text:00000000000000fc .L0 
     /tmp/ccKlSPQC.s:276    .text:00000000000000fc .L0 
     /tmp/ccKlSPQC.s:280    .text:0000000000000108 .L0 
     /tmp/ccKlSPQC.s:283    .text:000000000000010c .L0 
     /tmp/ccKlSPQC.s:284    .text:0000000000000110 .L0 
     /tmp/ccKlSPQC.s:286    .text:0000000000000114 .L0 
     /tmp/ccKlSPQC.s:287    .text:0000000000000114 .L0 
     /tmp/ccKlSPQC.s:289    .text:0000000000000118 .L0 
     /tmp/ccKlSPQC.s:292    .text:000000000000011c .L0 
     /tmp/ccKlSPQC.s:297    .text:0000000000000120 .L0 
     /tmp/ccKlSPQC.s:300    .text:0000000000000124 .L0 
     /tmp/ccKlSPQC.s:303    .text:0000000000000128 .L0 
GAS LISTING /tmp/ccKlSPQC.s 			page 21


     /tmp/ccKlSPQC.s:304    .text:0000000000000128 .L0 
     /tmp/ccKlSPQC.s:305    .text:0000000000000128 .L0 
     /tmp/ccKlSPQC.s:306    .text:0000000000000128 .L0 
     /tmp/ccKlSPQC.s:308    .text:0000000000000128 .L0 
     /tmp/ccKlSPQC.s:312    .text:0000000000000130 .L0 
     /tmp/ccKlSPQC.s:314    .text:0000000000000138 .L0 
     /tmp/ccKlSPQC.s:320    .text:0000000000000138 _ZN4_sem8sem_waitEPS_
     /tmp/ccKlSPQC.s:323    .text:0000000000000138 .L0 
     /tmp/ccKlSPQC.s:325    .text:0000000000000138 .L0 
     /tmp/ccKlSPQC.s:326    .text:0000000000000138 .L0 
     /tmp/ccKlSPQC.s:328    .text:000000000000013c .L0 
     /tmp/ccKlSPQC.s:329    .text:0000000000000140 .L0 
     /tmp/ccKlSPQC.s:334    .text:0000000000000150 .L0 
     /tmp/ccKlSPQC.s:335    .text:0000000000000150 .L0 
     /tmp/ccKlSPQC.s:336    .text:0000000000000150 .L0 
     /tmp/ccKlSPQC.s:337    .text:0000000000000150 .L0 
     /tmp/ccKlSPQC.s:339    .text:0000000000000154 .L0 
     /tmp/ccKlSPQC.s:342    .text:0000000000000158 .L0 
     /tmp/ccKlSPQC.s:344    .text:000000000000015c .L0 
     /tmp/ccKlSPQC.s:346    .text:0000000000000160 .L0 
     /tmp/ccKlSPQC.s:347    .text:0000000000000160 .L0 
     /tmp/ccKlSPQC.s:349    .text:0000000000000164 .L0 
     /tmp/ccKlSPQC.s:351    .text:0000000000000168 .L0 
     /tmp/ccKlSPQC.s:352    .text:0000000000000168 .L0 
     /tmp/ccKlSPQC.s:357    .text:0000000000000170 .L0 
     /tmp/ccKlSPQC.s:358    .text:0000000000000170 .L0 
     /tmp/ccKlSPQC.s:360    .text:0000000000000174 .L0 
     /tmp/ccKlSPQC.s:362    .text:0000000000000178 .L0 
     /tmp/ccKlSPQC.s:365    .text:000000000000017c .L0 
     /tmp/ccKlSPQC.s:366    .text:0000000000000180 .L0 
     /tmp/ccKlSPQC.s:367    .text:0000000000000180 .L0 
     /tmp/ccKlSPQC.s:369    .text:0000000000000184 .L0 
     /tmp/ccKlSPQC.s:370    .text:0000000000000184 .L0 
     /tmp/ccKlSPQC.s:372    .text:0000000000000188 .L0 
     /tmp/ccKlSPQC.s:375    .text:000000000000018c .L0 
     /tmp/ccKlSPQC.s:377    .text:0000000000000190 .L0 
     /tmp/ccKlSPQC.s:381    .text:0000000000000194 .L0 
     /tmp/ccKlSPQC.s:383    .text:0000000000000194 .L0 
     /tmp/ccKlSPQC.s:384    .text:0000000000000194 .L0 
     /tmp/ccKlSPQC.s:390    .text:00000000000001a0 .L0 
     /tmp/ccKlSPQC.s:391    .text:00000000000001a0 .L0 
     /tmp/ccKlSPQC.s:399    .text:00000000000001a8 .L0 
     /tmp/ccKlSPQC.s:400    .text:00000000000001a8 .L0 
     /tmp/ccKlSPQC.s:406    .text:00000000000001b4 .L0 
     /tmp/ccKlSPQC.s:412    .text:00000000000001bc .L0 
     /tmp/ccKlSPQC.s:414    .text:00000000000001c0 .L0 
     /tmp/ccKlSPQC.s:416    .text:00000000000001c4 .L0 
     /tmp/ccKlSPQC.s:418    .text:00000000000001c8 .L0 
     /tmp/ccKlSPQC.s:424    .text:00000000000001cc .L0 
     /tmp/ccKlSPQC.s:425    .text:00000000000001cc .L0 
     /tmp/ccKlSPQC.s:433    .text:00000000000001d8 .L0 
     /tmp/ccKlSPQC.s:441    .text:00000000000001e4 .L0 
     /tmp/ccKlSPQC.s:445    .text:00000000000001ec .L0 
     /tmp/ccKlSPQC.s:446    .text:00000000000001ec .L0 
     /tmp/ccKlSPQC.s:447    .text:00000000000001ec .L0 
     /tmp/ccKlSPQC.s:448    .text:00000000000001ec .L0 
     /tmp/ccKlSPQC.s:449    .text:00000000000001ec .L0 
GAS LISTING /tmp/ccKlSPQC.s 			page 22


     /tmp/ccKlSPQC.s:451    .text:00000000000001ec .L0 
     /tmp/ccKlSPQC.s:454    .text:00000000000001f0 .L0 
     /tmp/ccKlSPQC.s:457    .text:00000000000001f4 .L0 
     /tmp/ccKlSPQC.s:458    .text:00000000000001f4 .L0 
     /tmp/ccKlSPQC.s:459    .text:00000000000001f4 .L0 
     /tmp/ccKlSPQC.s:460    .text:00000000000001f4 .L0 
     /tmp/ccKlSPQC.s:461    .text:00000000000001f4 .L0 
     /tmp/ccKlSPQC.s:463    .text:00000000000001f4 .L0 
     /tmp/ccKlSPQC.s:465    .text:00000000000001fc .L0 
     /tmp/ccKlSPQC.s:471    .text:00000000000001fc _ZN4_sem10sem_signalEPS_
     /tmp/ccKlSPQC.s:474    .text:00000000000001fc .L0 
     /tmp/ccKlSPQC.s:476    .text:00000000000001fc .L0 
     /tmp/ccKlSPQC.s:477    .text:00000000000001fc .L0 
     /tmp/ccKlSPQC.s:480    .text:0000000000000204 .L0 
     /tmp/ccKlSPQC.s:481    .text:0000000000000204 .L0 
     /tmp/ccKlSPQC.s:483    .text:0000000000000208 .L0 
     /tmp/ccKlSPQC.s:489    .text:000000000000020c .L0 
     /tmp/ccKlSPQC.s:490    .text:000000000000020c .L0 
     /tmp/ccKlSPQC.s:493    .text:0000000000000210 .L0 
     /tmp/ccKlSPQC.s:495    .text:0000000000000214 .L0 
     /tmp/ccKlSPQC.s:497    .text:0000000000000218 .L0 
     /tmp/ccKlSPQC.s:502    .text:000000000000021c .L0 
     /tmp/ccKlSPQC.s:503    .text:0000000000000220 .L0 
     /tmp/ccKlSPQC.s:507    .text:000000000000022c .L0 
     /tmp/ccKlSPQC.s:508    .text:000000000000022c .L0 
     /tmp/ccKlSPQC.s:509    .text:000000000000022c .L0 
     /tmp/ccKlSPQC.s:511    .text:0000000000000230 .L0 
     /tmp/ccKlSPQC.s:518    .text:0000000000000230 .L0 
     /tmp/ccKlSPQC.s:519    .text:0000000000000230 .L0 
     /tmp/ccKlSPQC.s:521    .text:0000000000000234 .L0 
     /tmp/ccKlSPQC.s:523    .text:0000000000000238 .L0 
     /tmp/ccKlSPQC.s:526    .text:000000000000023c .L0 
     /tmp/ccKlSPQC.s:529    .text:0000000000000240 .L0 
     /tmp/ccKlSPQC.s:534    .text:0000000000000248 .L0 
     /tmp/ccKlSPQC.s:539    .text:000000000000024c .L0 
     /tmp/ccKlSPQC.s:540    .text:000000000000024c .L0 
     /tmp/ccKlSPQC.s:541    .text:000000000000024c .L0 
     /tmp/ccKlSPQC.s:546    .text:0000000000000250 .L0 
     /tmp/ccKlSPQC.s:547    .text:0000000000000250 .L0 
     /tmp/ccKlSPQC.s:553    .text:000000000000025c .L0 
     /tmp/ccKlSPQC.s:556    .text:0000000000000260 .L0 
     /tmp/ccKlSPQC.s:557    .text:0000000000000264 .L0 
     /tmp/ccKlSPQC.s:558    .text:0000000000000264 .L0 
     /tmp/ccKlSPQC.s:560    .text:0000000000000268 .L0 
     /tmp/ccKlSPQC.s:561    .text:0000000000000268 .L0 
     /tmp/ccKlSPQC.s:563    .text:000000000000026c .L0 
     /tmp/ccKlSPQC.s:566    .text:0000000000000270 .L0 
     /tmp/ccKlSPQC.s:570    .text:0000000000000274 .L0 
     /tmp/ccKlSPQC.s:576    .text:0000000000000274 .L0 
     /tmp/ccKlSPQC.s:580    .text:000000000000027c .L0 
     /tmp/ccKlSPQC.s:581    .text:000000000000027c .L0 
     /tmp/ccKlSPQC.s:582    .text:000000000000027c .L0 
     /tmp/ccKlSPQC.s:583    .text:000000000000027c .L0 
     /tmp/ccKlSPQC.s:588    .text:000000000000027c .L0 
     /tmp/ccKlSPQC.s:589    .text:000000000000027c .L0 
     /tmp/ccKlSPQC.s:591    .text:0000000000000280 .L0 
     /tmp/ccKlSPQC.s:595    .text:0000000000000288 .L0 
GAS LISTING /tmp/ccKlSPQC.s 			page 23


     /tmp/ccKlSPQC.s:600    .text:0000000000000290 .L0 
     /tmp/ccKlSPQC.s:606    .text:0000000000000298 .L0 
     /tmp/ccKlSPQC.s:609    .text:000000000000029c .L0 
     /tmp/ccKlSPQC.s:612    .text:00000000000002a0 .L0 
     /tmp/ccKlSPQC.s:613    .text:00000000000002a0 .L0 
     /tmp/ccKlSPQC.s:614    .text:00000000000002a0 .L0 
     /tmp/ccKlSPQC.s:615    .text:00000000000002a0 .L0 
     /tmp/ccKlSPQC.s:617    .text:00000000000002a0 .L0 
     /tmp/ccKlSPQC.s:619    .text:00000000000002a8 .L0 
     /tmp/ccKlSPQC.s:625    .text:00000000000002a8 _ZN4_sem11sem_trywaitEPS_
     /tmp/ccKlSPQC.s:628    .text:00000000000002a8 .L0 
     /tmp/ccKlSPQC.s:630    .text:00000000000002a8 .L0 
     /tmp/ccKlSPQC.s:631    .text:00000000000002ac .L0 
     /tmp/ccKlSPQC.s:633    .text:00000000000002b0 .L0 
     /tmp/ccKlSPQC.s:635    .text:00000000000002b4 .L0 
     /tmp/ccKlSPQC.s:637    .text:00000000000002b4 .L0 
     /tmp/ccKlSPQC.s:639    .text:00000000000002b8 .L0 
     /tmp/ccKlSPQC.s:640    .text:00000000000002b8 .L0 
     /tmp/ccKlSPQC.s:642    .text:00000000000002bc .L0 
     /tmp/ccKlSPQC.s:644    .text:00000000000002c0 .L0 
     /tmp/ccKlSPQC.s:645    .text:00000000000002c0 .L0 
     /tmp/ccKlSPQC.s:648    .text:00000000000002c8 .L0 
     /tmp/ccKlSPQC.s:649    .text:00000000000002c8 .L0 
     /tmp/ccKlSPQC.s:653    .text:00000000000002cc .L0 
     /tmp/ccKlSPQC.s:654    .text:00000000000002d0 .L0 
     /tmp/ccKlSPQC.s:655    .text:00000000000002d0 .L0 
     /tmp/ccKlSPQC.s:656    .text:00000000000002d0 .L0 
     /tmp/ccKlSPQC.s:658    .text:00000000000002d4 .L0 
     /tmp/ccKlSPQC.s:662    .text:00000000000002d8 .L0 
     /tmp/ccKlSPQC.s:664    .text:00000000000002d8 .L0 
     /tmp/ccKlSPQC.s:670    .text:00000000000002e0 .L0 
     /tmp/ccKlSPQC.s:673    .text:00000000000002e8 .L0 
     /tmp/ccKlSPQC.s:34     .text._ZN4_semD2Ev:0000000000000018 .L0 
     /tmp/ccKlSPQC.s:65     .text._ZN4_semD0Ev:0000000000000028 .L0 
     /tmp/ccKlSPQC.s:693    .text:00000000000002e8 .L0 
     /tmp/ccKlSPQC.s:101    .text:0000000000000030 .L0 
     /tmp/ccKlSPQC.s:384    .text:0000000000000194 .L0 
     /tmp/ccKlSPQC.s:145    .text:0000000000000070 .L7
     /tmp/ccKlSPQC.s:152    .text:0000000000000078 .L8
     /tmp/ccKlSPQC.s:128    .text:0000000000000058 .L6
     /tmp/ccKlSPQC.s:295    .text:0000000000000120 .L20
     /tmp/ccKlSPQC.s:302    .text:0000000000000128 .L21
     /tmp/ccKlSPQC.s:234    .text:00000000000000d4 .L19
     /tmp/ccKlSPQC.s:270    .text:00000000000000fc .L16
     /tmp/ccKlSPQC.s:221    .text:00000000000000c8 .L17
     /tmp/ccKlSPQC.s:216    .text:00000000000000c0 .L18
     /tmp/ccKlSPQC.s:209    .text:00000000000000bc .L27
     /tmp/ccKlSPQC.s:310    .text:0000000000000130 .L28
     /tmp/ccKlSPQC.s:281    .text:000000000000010c .L14
     /tmp/ccKlSPQC.s:444    .text:00000000000001ec .L35
     /tmp/ccKlSPQC.s:456    .text:00000000000001f4 .L36
     /tmp/ccKlSPQC.s:380    .text:0000000000000194 .L42
     /tmp/ccKlSPQC.s:437    .text:00000000000001e4 .L43
     /tmp/ccKlSPQC.s:429    .text:00000000000001d8 .L32
     /tmp/ccKlSPQC.s:355    .text:0000000000000170 .L34
     /tmp/ccKlSPQC.s:419    .text:00000000000001cc .L33
     /tmp/ccKlSPQC.s:363    .text:000000000000017c .L30
GAS LISTING /tmp/ccKlSPQC.s 			page 24


     /tmp/ccKlSPQC.s:598    .text:0000000000000290 .L48
     /tmp/ccKlSPQC.s:604    .text:0000000000000298 .L49
     /tmp/ccKlSPQC.s:579    .text:000000000000027c .L46
     /tmp/ccKlSPQC.s:569    .text:0000000000000274 .L55
     /tmp/ccKlSPQC.s:611    .text:00000000000002a0 .L50
     /tmp/ccKlSPQC.s:524    .text:000000000000023c .L47
     /tmp/ccKlSPQC.s:554    .text:0000000000000260 .L45
     /tmp/ccKlSPQC.s:661    .text:00000000000002d8 .L58
     /tmp/ccKlSPQC.s:668    .text:00000000000002e0 .L59
     /tmp/ccKlSPQC.s:651    .text:00000000000002cc .L57
     /tmp/ccKlSPQC.s:2305   .debug_abbrev:0000000000000000 .Ldebug_abbrev0
     /tmp/ccKlSPQC.s:4240   .debug_str:00000000000006c7 .LASF142
     /tmp/ccKlSPQC.s:4006   .debug_str:000000000000005c .LASF143
     /tmp/ccKlSPQC.s:4246   .debug_str:00000000000007a7 .LASF144
     /tmp/ccKlSPQC.s:3960   .debug_ranges:0000000000000000 .Ldebug_ranges0
     /tmp/ccKlSPQC.s:3994   .debug_line:0000000000000000 .Ldebug_line0
     /tmp/ccKlSPQC.s:4100   .debug_str:0000000000000333 .LASF0
     /tmp/ccKlSPQC.s:4118   .debug_str:00000000000003a7 .LASF1
     /tmp/ccKlSPQC.s:4192   .debug_str:0000000000000599 .LASF2
     /tmp/ccKlSPQC.s:4088   .debug_str:00000000000002e5 .LASF3
     /tmp/ccKlSPQC.s:4196   .debug_str:00000000000005b1 .LASF4
     /tmp/ccKlSPQC.s:4106   .debug_str:0000000000000355 .LASF5
     /tmp/ccKlSPQC.s:4010   .debug_str:0000000000000073 .LASF6
     /tmp/ccKlSPQC.s:4170   .debug_str:00000000000004f3 .LASF7
     /tmp/ccKlSPQC.s:4112   .debug_str:000000000000038a .LASF8
     /tmp/ccKlSPQC.s:4086   .debug_str:00000000000002d5 .LASF9
     /tmp/ccKlSPQC.s:4090   .debug_str:00000000000002ec .LASF10
     /tmp/ccKlSPQC.s:4036   .debug_str:000000000000015e .LASF11
     /tmp/ccKlSPQC.s:4076   .debug_str:0000000000000293 .LASF12
     /tmp/ccKlSPQC.s:4046   .debug_str:00000000000001a3 .LASF13
     /tmp/ccKlSPQC.s:4034   .debug_str:000000000000014e .LASF14
     /tmp/ccKlSPQC.s:4224   .debug_str:0000000000000674 .LASF15
     /tmp/ccKlSPQC.s:4066   .debug_str:000000000000022c .LASF16
     /tmp/ccKlSPQC.s:4214   .debug_str:0000000000000634 .LASF17
     /tmp/ccKlSPQC.s:4108   .debug_str:0000000000000367 .LASF36
     /tmp/ccKlSPQC.s:4038   .debug_str:000000000000016d .LASF18
     /tmp/ccKlSPQC.s:4018   .debug_str:00000000000000bc .LASF19
     /tmp/ccKlSPQC.s:4116   .debug_str:00000000000003a2 .LASF20
     /tmp/ccKlSPQC.s:4254   .debug_str:00000000000007f2 .LASF21
     /tmp/ccKlSPQC.s:4126   .debug_str:00000000000003d1 .LASF22
     /tmp/ccKlSPQC.s:4166   .debug_str:00000000000004d7 .LASF31
     /tmp/ccKlSPQC.s:4218   .debug_str:000000000000065d .LASF33
     /tmp/ccKlSPQC.s:4020   .debug_str:00000000000000c1 .LASF27
     /tmp/ccKlSPQC.s:4294   .debug_str:0000000000000918 .LASF29
     /tmp/ccKlSPQC.s:4144   .debug_str:0000000000000453 .LASF23
     /tmp/ccKlSPQC.s:4012   .debug_str:000000000000007a .LASF25
     /tmp/ccKlSPQC.s:4226   .debug_str:0000000000000680 .LASF24
     /tmp/ccKlSPQC.s:4146   .debug_str:000000000000045d .LASF26
     /tmp/ccKlSPQC.s:4298   .debug_str:0000000000000941 .LASF80
     /tmp/ccKlSPQC.s:4050   .debug_str:00000000000001bc .LASF82
     /tmp/ccKlSPQC.s:4000   .debug_str:0000000000000014 .LASF28
     /tmp/ccKlSPQC.s:4026   .debug_str:00000000000000e5 .LASF30
     /tmp/ccKlSPQC.s:4084   .debug_str:00000000000002cb .LASF32
     /tmp/ccKlSPQC.s:4208   .debug_str:000000000000060e .LASF34
     /tmp/ccKlSPQC.s:4286   .debug_str:00000000000008b2 .LASF145
     /tmp/ccKlSPQC.s:4096   .debug_str:000000000000030b .LASF146
     /tmp/ccKlSPQC.s:4270   .debug_str:0000000000000846 .LASF35
GAS LISTING /tmp/ccKlSPQC.s 			page 25


     /tmp/ccKlSPQC.s:4262   .debug_str:0000000000000824 .LASF37
     /tmp/ccKlSPQC.s:4114   .debug_str:000000000000039d .LASF38
     /tmp/ccKlSPQC.s:4292   .debug_str:00000000000008f9 .LASF102
     /tmp/ccKlSPQC.s:4154   .debug_str:00000000000004ac .LASF39
     /tmp/ccKlSPQC.s:4150   .debug_str:0000000000000490 .LASF40
     /tmp/ccKlSPQC.s:4216   .debug_str:000000000000064a .LASF41
     /tmp/ccKlSPQC.s:4072   .debug_str:0000000000000265 .LASF47
     /tmp/ccKlSPQC.s:4194   .debug_str:00000000000005a7 .LASF118
     /tmp/ccKlSPQC.s:4186   .debug_str:000000000000056c .LASF120
     /tmp/ccKlSPQC.s:4190   .debug_str:0000000000000590 .LASF42
     /tmp/ccKlSPQC.s:4028   .debug_str:0000000000000102 .LASF43
     /tmp/ccKlSPQC.s:4124   .debug_str:00000000000003c9 .LASF44
     /tmp/ccKlSPQC.s:4068   .debug_str:0000000000000242 .LASF45
     /tmp/ccKlSPQC.s:4168   .debug_str:00000000000004e7 .LASF46
     /tmp/ccKlSPQC.s:4272   .debug_str:0000000000000850 .LASF48
     /tmp/ccKlSPQC.s:4302   .debug_str:000000000000094e .LASF49
     /tmp/ccKlSPQC.s:4290   .debug_str:00000000000008de .LASF50
     /tmp/ccKlSPQC.s:4202   .debug_str:00000000000005d7 .LASF51
     /tmp/ccKlSPQC.s:4110   .debug_str:000000000000036d .LASF52
     /tmp/ccKlSPQC.s:4182   .debug_str:000000000000055a .LASF53
     /tmp/ccKlSPQC.s:4002   .debug_str:000000000000001a .LASF54
     /tmp/ccKlSPQC.s:4060   .debug_str:0000000000000215 .LASF55
     /tmp/ccKlSPQC.s:4200   .debug_str:00000000000005bd .LASF56
     /tmp/ccKlSPQC.s:4040   .debug_str:0000000000000172 .LASF57
     /tmp/ccKlSPQC.s:4228   .debug_str:0000000000000689 .LASF58
     /tmp/ccKlSPQC.s:4152   .debug_str:0000000000000495 .LASF59
     /tmp/ccKlSPQC.s:4024   .debug_str:00000000000000d9 .LASF60
     /tmp/ccKlSPQC.s:4258   .debug_str:0000000000000807 .LASF61
     /tmp/ccKlSPQC.s:4278   .debug_str:0000000000000882 .LASF62
     /tmp/ccKlSPQC.s:4030   .debug_str:000000000000011f .LASF63
     /tmp/ccKlSPQC.s:4230   .debug_str:0000000000000694 .LASF64
     /tmp/ccKlSPQC.s:4044   .debug_str:000000000000018d .LASF65
     /tmp/ccKlSPQC.s:4120   .debug_str:00000000000003ba .LASF66
     /tmp/ccKlSPQC.s:4244   .debug_str:0000000000000797 .LASF67
     /tmp/ccKlSPQC.s:4056   .debug_str:00000000000001fd .LASF68
     /tmp/ccKlSPQC.s:4042   .debug_str:000000000000017a .LASF69
     /tmp/ccKlSPQC.s:4238   .debug_str:00000000000006bf .LASF70
     /tmp/ccKlSPQC.s:4222   .debug_str:0000000000000667 .LASF71
     /tmp/ccKlSPQC.s:4136   .debug_str:00000000000003fd .LASF72
     /tmp/ccKlSPQC.s:4162   .debug_str:00000000000004c5 .LASF147
     /tmp/ccKlSPQC.s:4132   .debug_str:00000000000003e4 .LASF73
     /tmp/ccKlSPQC.s:4074   .debug_str:000000000000027c .LASF87
     /tmp/ccKlSPQC.s:4236   .debug_str:00000000000006ba .LASF74
     /tmp/ccKlSPQC.s:3996   .debug_str:0000000000000000 .LASF75
     /tmp/ccKlSPQC.s:4142   .debug_str:0000000000000448 .LASF76
     /tmp/ccKlSPQC.s:4234   .debug_str:00000000000006a4 .LASF77
     /tmp/ccKlSPQC.s:4176   .debug_str:0000000000000531 .LASF148
     /tmp/ccKlSPQC.s:4198   .debug_str:00000000000005b8 .LASF78
     /tmp/ccKlSPQC.s:4250   .debug_str:00000000000007de .LASF79
     /tmp/ccKlSPQC.s:4188   .debug_str:0000000000000583 .LASF81
     /tmp/ccKlSPQC.s:4204   .debug_str:00000000000005e2 .LASF83
     /tmp/ccKlSPQC.s:4158   .debug_str:00000000000004b9 .LASF84
     /tmp/ccKlSPQC.s:4206   .debug_str:00000000000005fa .LASF85
     /tmp/ccKlSPQC.s:4130   .debug_str:00000000000003dc .LASF86
     /tmp/ccKlSPQC.s:4148   .debug_str:000000000000047e .LASF88
     /tmp/ccKlSPQC.s:4266   .debug_str:0000000000000834 .LASF89
     /tmp/ccKlSPQC.s:4014   .debug_str:000000000000009b .LASF90
GAS LISTING /tmp/ccKlSPQC.s 			page 26


     /tmp/ccKlSPQC.s:3998   .debug_str:000000000000000f .LASF91
     /tmp/ccKlSPQC.s:4128   .debug_str:00000000000003d6 .LASF92
     /tmp/ccKlSPQC.s:4252   .debug_str:00000000000007ea .LASF93
     /tmp/ccKlSPQC.s:4212   .debug_str:000000000000062b .LASF94
     /tmp/ccKlSPQC.s:4156   .debug_str:00000000000004b1 .LASF95
     /tmp/ccKlSPQC.s:4300   .debug_str:0000000000000947 .LASF96
     /tmp/ccKlSPQC.s:4058   .debug_str:0000000000000206 .LASF149
     /tmp/ccKlSPQC.s:4082   .debug_str:00000000000002b1 .LASF150
     /tmp/ccKlSPQC.s:4048   .debug_str:00000000000001b3 .LASF97
     /tmp/ccKlSPQC.s:4210   .debug_str:000000000000061f .LASF98
     /tmp/ccKlSPQC.s:4180   .debug_str:0000000000000552 .LASF99
     /tmp/ccKlSPQC.s:4242   .debug_str:000000000000078b .LASF100
     /tmp/ccKlSPQC.s:4052   .debug_str:00000000000001e2 .LASF101
     /tmp/ccKlSPQC.s:4004   .debug_str:0000000000000034 .LASF103
     /tmp/ccKlSPQC.s:4268   .debug_str:000000000000083d .LASF104
     /tmp/ccKlSPQC.s:4284   .debug_str:00000000000008ac .LASF105
     /tmp/ccKlSPQC.s:4220   .debug_str:0000000000000662 .LASF106
     /tmp/ccKlSPQC.s:4256   .debug_str:00000000000007f7 .LASF151
     /tmp/ccKlSPQC.s:4264   .debug_str:0000000000000829 .LASF152
     /tmp/ccKlSPQC.s:4164   .debug_str:00000000000004ca .LASF107
     /tmp/ccKlSPQC.s:4184   .debug_str:0000000000000563 .LASF108
     /tmp/ccKlSPQC.s:4288   .debug_str:00000000000008c6 .LASF109
     /tmp/ccKlSPQC.s:4178   .debug_str:0000000000000548 .LASF110
     /tmp/ccKlSPQC.s:4016   .debug_str:00000000000000a5 .LASF111
     /tmp/ccKlSPQC.s:4122   .debug_str:00000000000003c0 .LASF112
     /tmp/ccKlSPQC.s:4140   .debug_str:0000000000000432 .LASF113
     /tmp/ccKlSPQC.s:4092   .debug_str:00000000000002fa .LASF114
     /tmp/ccKlSPQC.s:4280   .debug_str:000000000000088c .LASF115
     /tmp/ccKlSPQC.s:4172   .debug_str:0000000000000506 .LASF116
     /tmp/ccKlSPQC.s:4032   .debug_str:0000000000000134 .LASF117
     /tmp/ccKlSPQC.s:4064   .debug_str:0000000000000226 .LASF119
     /tmp/ccKlSPQC.s:4134   .debug_str:00000000000003f0 .LASF121
     /tmp/ccKlSPQC.s:4094   .debug_str:0000000000000305 .LASF122
     /tmp/ccKlSPQC.s:4274   .debug_str:000000000000086e .LASF123
     /tmp/ccKlSPQC.s:4138   .debug_str:0000000000000424 .LASF124
     /tmp/ccKlSPQC.s:4232   .debug_str:000000000000069f .LASF125
     /tmp/ccKlSPQC.s:4062   .debug_str:000000000000021d .LASF126
     /tmp/ccKlSPQC.s:4098   .debug_str:0000000000000323 .LASF153
     /tmp/ccKlSPQC.s:4080   .debug_str:00000000000002ac .LASF127
     /tmp/ccKlSPQC.s:4174   .debug_str:0000000000000512 .LASF129
     /tmp/ccKlSPQC.s:4104   .debug_str:0000000000000350 .LASF128
     /tmp/ccKlSPQC.s:4022   .debug_str:00000000000000c6 .LASF130
     /tmp/ccKlSPQC.s:626    .text:00000000000002a8 .LFB46
     /tmp/ccKlSPQC.s:674    .text:00000000000002e8 .LFE46
     /tmp/ccKlSPQC.s:3443   .debug_loc:0000000000000000 .LLST32
     /tmp/ccKlSPQC.s:472    .text:00000000000001fc .LFB45
     /tmp/ccKlSPQC.s:620    .text:00000000000002a8 .LFE45
     /tmp/ccKlSPQC.s:3479   .debug_loc:000000000000008b .LLST24
     /tmp/ccKlSPQC.s:4070   .debug_str:000000000000025e .LASF131
     /tmp/ccKlSPQC.s:3527   .debug_loc:000000000000014f .LLST26
     /tmp/ccKlSPQC.s:516    .text:0000000000000230 .LBB76
     /tmp/ccKlSPQC.s:3538   .debug_loc:0000000000000185 .LLST27
     /tmp/ccKlSPQC.s:3562   .debug_loc:00000000000001d7 .LLST28
     /tmp/ccKlSPQC.s:3573   .debug_loc:000000000000020d .LLST29
     /tmp/ccKlSPQC.s:530    .text:0000000000000248 .LVL52
     /tmp/ccKlSPQC.s:537    .text:000000000000024c .LBB79
     /tmp/ccKlSPQC.s:544    .text:0000000000000250 .LBE79
GAS LISTING /tmp/ccKlSPQC.s 			page 27


     /tmp/ccKlSPQC.s:3580   .debug_loc:0000000000000230 .LLST30
     /tmp/ccKlSPQC.s:3588   .debug_loc:0000000000000254 .LLST31
     /tmp/ccKlSPQC.s:549    .text:000000000000025c .LVL55
     /tmp/ccKlSPQC.s:487    .text:000000000000020c .LBB73
     /tmp/ccKlSPQC.s:499    .text:000000000000021c .LBE73
     /tmp/ccKlSPQC.s:3595   .debug_loc:0000000000000277 .LLST25
     /tmp/ccKlSPQC.s:321    .text:0000000000000138 .LFB44
     /tmp/ccKlSPQC.s:466    .text:00000000000001fc .LFE44
     /tmp/ccKlSPQC.s:3610   .debug_loc:00000000000002b1 .LLST15
     /tmp/ccKlSPQC.s:387    .text:00000000000001a0 .LBB64
     /tmp/ccKlSPQC.s:395    .text:00000000000001a8 .LBE64
     /tmp/ccKlSPQC.s:3647   .debug_loc:000000000000034c .LLST16
     /tmp/ccKlSPQC.s:3655   .debug_loc:0000000000000370 .LLST17
     /tmp/ccKlSPQC.s:397    .text:00000000000001a8 .LBB66
     /tmp/ccKlSPQC.s:3662   .debug_loc:0000000000000393 .LLST18
     /tmp/ccKlSPQC.s:3673   .debug_loc:00000000000003c9 .LLST19
     /tmp/ccKlSPQC.s:3688   .debug_loc:0000000000000403 .LLST20
     /tmp/ccKlSPQC.s:403    .text:00000000000001b4 .LBB68
     /tmp/ccKlSPQC.s:410    .text:00000000000001bc .LBE68
     /tmp/ccKlSPQC.s:3699   .debug_loc:0000000000000439 .LLST21
     /tmp/ccKlSPQC.s:3707   .debug_loc:000000000000045d .LLST22
     /tmp/ccKlSPQC.s:3714   .debug_loc:0000000000000480 .LLST23
     /tmp/ccKlSPQC.s:402    .text:00000000000001b4 .LVL38
     /tmp/ccKlSPQC.s:426    .text:00000000000001d4 .LVL41
     /tmp/ccKlSPQC.s:169    .text:0000000000000080 .LFB43
     /tmp/ccKlSPQC.s:315    .text:0000000000000138 .LFE43
     /tmp/ccKlSPQC.s:4282   .debug_str:00000000000008a5 .LASF132
     /tmp/ccKlSPQC.s:3721   .debug_loc:00000000000004a3 .LLST7
     /tmp/ccKlSPQC.s:197    .text:00000000000000ac .LBB53
     /tmp/ccKlSPQC.s:273    .text:00000000000000fc .LBE53
     /tmp/ccKlSPQC.s:3754   .debug_loc:000000000000052b .LLST8
     /tmp/ccKlSPQC.s:198    .text:00000000000000ac .LBB54
     /tmp/ccKlSPQC.s:211    .text:00000000000000bc .LBE54
     /tmp/ccKlSPQC.s:3761   .debug_loc:000000000000054e .LLST9
     /tmp/ccKlSPQC.s:212    .text:00000000000000bc .LBB56
     /tmp/ccKlSPQC.s:3776   .debug_loc:0000000000000588 .LLST10
     /tmp/ccKlSPQC.s:3787   .debug_loc:00000000000005be .LLST11
     /tmp/ccKlSPQC.s:220    .text:00000000000000c8 .LVL20
     /tmp/ccKlSPQC.s:225    .text:00000000000000c8 .LBB59
     /tmp/ccKlSPQC.s:236    .text:00000000000000d4 .LBE59
     /tmp/ccKlSPQC.s:3795   .debug_loc:00000000000005e2 .LLST12
     /tmp/ccKlSPQC.s:241    .text:00000000000000d8 .LBB61
     /tmp/ccKlSPQC.s:249    .text:00000000000000dc .LBE61
     /tmp/ccKlSPQC.s:3804   .debug_loc:0000000000000607 .LLST13
     /tmp/ccKlSPQC.s:3812   .debug_loc:000000000000062b .LLST14
     /tmp/ccKlSPQC.s:253    .text:00000000000000e4 .LVL24
     /tmp/ccKlSPQC.s:278    .text:0000000000000108 .LVL27
     /tmp/ccKlSPQC.s:70     .text:0000000000000000 .LFB42
     /tmp/ccKlSPQC.s:163    .text:0000000000000080 .LFE42
     /tmp/ccKlSPQC.s:3819   .debug_loc:000000000000064e .LLST1
     /tmp/ccKlSPQC.s:3852   .debug_loc:00000000000006d6 .LLST2
     /tmp/ccKlSPQC.s:4078   .debug_str:00000000000002a2 .LASF133
     /tmp/ccKlSPQC.s:3878   .debug_loc:0000000000000748 .LLST3
     /tmp/ccKlSPQC.s:98     .text:0000000000000030 .LBB40
     /tmp/ccKlSPQC.s:115    .text:0000000000000048 .LBE40
     /tmp/ccKlSPQC.s:3905   .debug_loc:00000000000007bb .LLST4
     /tmp/ccKlSPQC.s:3913   .debug_loc:00000000000007df .LLST5
GAS LISTING /tmp/ccKlSPQC.s 			page 28


     /tmp/ccKlSPQC.s:105    .text:0000000000000040 .LBB42
     /tmp/ccKlSPQC.s:113    .text:0000000000000048 .LBE42
     /tmp/ccKlSPQC.s:3920   .debug_loc:0000000000000802 .LLST6
     /tmp/ccKlSPQC.s:97     .text:0000000000000030 .LVL5
     /tmp/ccKlSPQC.s:4008   .debug_str:0000000000000069 .LASF134
     /tmp/ccKlSPQC.s:4054   .debug_str:00000000000001f0 .LASF135
     /tmp/ccKlSPQC.s:39     .text._ZN4_semD0Ev:0000000000000000 .LFB41
     /tmp/ccKlSPQC.s:63     .text._ZN4_semD0Ev:0000000000000028 .LFE41
     /tmp/ccKlSPQC.s:3929   .debug_loc:0000000000000827 .LLST0
     /tmp/ccKlSPQC.s:53     .text._ZN4_semD0Ev:0000000000000018 .LVL2
     /tmp/ccKlSPQC.s:4248   .debug_str:00000000000007d1 .LASF136
     /tmp/ccKlSPQC.s:11     .text._ZN4_semD2Ev:0000000000000000 .LFB39
     /tmp/ccKlSPQC.s:30     .text._ZN4_semD2Ev:0000000000000018 .LFE39
     /tmp/ccKlSPQC.s:4276   .debug_str:0000000000000875 .LASF137
     /tmp/ccKlSPQC.s:4160   .debug_str:00000000000004be .LASF138
     /tmp/ccKlSPQC.s:4102   .debug_str:0000000000000340 .LASF140
     /tmp/ccKlSPQC.s:4260   .debug_str:000000000000081e .LASF139
     /tmp/ccKlSPQC.s:4296   .debug_str:0000000000000934 .LASF141
     /tmp/ccKlSPQC.s:629    .text:00000000000002a8 .LVL64
     /tmp/ccKlSPQC.s:650    .text:00000000000002cc .LVL65
     /tmp/ccKlSPQC.s:660    .text:00000000000002d8 .LVL66
     /tmp/ccKlSPQC.s:665    .text:00000000000002dc .LVL67
     /tmp/ccKlSPQC.s:667    .text:00000000000002e0 .LVL68
     /tmp/ccKlSPQC.s:671    .text:00000000000002e4 .LVL69
     /tmp/ccKlSPQC.s:475    .text:00000000000001fc .LVL47
     /tmp/ccKlSPQC.s:491    .text:0000000000000210 .LVL49
     /tmp/ccKlSPQC.s:568    .text:0000000000000274 .LVL57
     /tmp/ccKlSPQC.s:597    .text:0000000000000290 .LVL59
     /tmp/ccKlSPQC.s:601    .text:0000000000000294 .LVL60
     /tmp/ccKlSPQC.s:603    .text:0000000000000298 .LVL61
     /tmp/ccKlSPQC.s:607    .text:000000000000029c .LVL62
     /tmp/ccKlSPQC.s:610    .text:00000000000002a0 .LVL63
     /tmp/ccKlSPQC.s:564    .text:000000000000026c .LVL56
     /tmp/ccKlSPQC.s:512    .text:0000000000000230 .LVL50
     /tmp/ccKlSPQC.s:578    .text:000000000000027c .LVL58
     /tmp/ccKlSPQC.s:527    .text:0000000000000240 .LVL51
     /tmp/ccKlSPQC.s:536    .text:000000000000024c .LVL53
     /tmp/ccKlSPQC.s:542    .text:0000000000000250 .LVL54
     /tmp/ccKlSPQC.s:485    .text:000000000000020c .LVL48
     /tmp/ccKlSPQC.s:324    .text:0000000000000138 .LVL32
     /tmp/ccKlSPQC.s:354    .text:0000000000000170 .LVL33
     /tmp/ccKlSPQC.s:373    .text:0000000000000188 .LVL34
     /tmp/ccKlSPQC.s:379    .text:0000000000000194 .LVL35
     /tmp/ccKlSPQC.s:443    .text:00000000000001ec .LVL44
     /tmp/ccKlSPQC.s:452    .text:00000000000001f0 .LVL45
     /tmp/ccKlSPQC.s:455    .text:00000000000001f4 .LVL46
     /tmp/ccKlSPQC.s:386    .text:00000000000001a0 .LVL36
     /tmp/ccKlSPQC.s:393    .text:00000000000001a8 .LVL37
     /tmp/ccKlSPQC.s:420    .text:00000000000001cc .LVL40
     /tmp/ccKlSPQC.s:428    .text:00000000000001d8 .LVL42
     /tmp/ccKlSPQC.s:436    .text:00000000000001e4 .LVL43
     /tmp/ccKlSPQC.s:408    .text:00000000000001bc .LVL39
     /tmp/ccKlSPQC.s:172    .text:0000000000000080 .LVL15
     /tmp/ccKlSPQC.s:202    .text:00000000000000b0 .LVL17
     /tmp/ccKlSPQC.s:290    .text:0000000000000118 .LVL28
     /tmp/ccKlSPQC.s:294    .text:0000000000000120 .LVL29
     /tmp/ccKlSPQC.s:298    .text:0000000000000124 .LVL30
GAS LISTING /tmp/ccKlSPQC.s 			page 29


     /tmp/ccKlSPQC.s:301    .text:0000000000000128 .LVL31
     /tmp/ccKlSPQC.s:233    .text:00000000000000d4 .LVL21
     /tmp/ccKlSPQC.s:196    .text:00000000000000ac .LVL16
     /tmp/ccKlSPQC.s:208    .text:00000000000000bc .LVL18
     /tmp/ccKlSPQC.s:261    .text:00000000000000ec .LVL25
     /tmp/ccKlSPQC.s:269    .text:00000000000000fc .LVL26
     /tmp/ccKlSPQC.s:217    .text:00000000000000c0 .LVL19
     /tmp/ccKlSPQC.s:240    .text:00000000000000d8 .LVL22
     /tmp/ccKlSPQC.s:247    .text:00000000000000dc .LVL23
     /tmp/ccKlSPQC.s:74     .text:0000000000000000 .LVL3
     /tmp/ccKlSPQC.s:95     .text:0000000000000028 .LVL4
     /tmp/ccKlSPQC.s:137    .text:0000000000000064 .LVL9
     /tmp/ccKlSPQC.s:144    .text:0000000000000070 .LVL11
     /tmp/ccKlSPQC.s:148    .text:0000000000000074 .LVL12
     /tmp/ccKlSPQC.s:151    .text:0000000000000078 .LVL13
     /tmp/ccKlSPQC.s:140    .text:0000000000000068 .LVL10
     /tmp/ccKlSPQC.s:111    .text:0000000000000048 .LVL7
     /tmp/ccKlSPQC.s:127    .text:0000000000000058 .LVL8
     /tmp/ccKlSPQC.s:160    .text:000000000000007c .LVL14
     /tmp/ccKlSPQC.s:104    .text:0000000000000040 .LVL6
     /tmp/ccKlSPQC.s:42     .text._ZN4_semD0Ev:0000000000000000 .LVL1
     /tmp/ccKlSPQC.s:694    .debug_info:0000000000000000 .Ldebug_info0
     /tmp/ccKlSPQC.s:5      .text:0000000000000000 .Ltext0
     /tmp/ccKlSPQC.s:687    .text:00000000000002e8 .Letext0
     /tmp/ccKlSPQC.s:223    .text:00000000000000c8 .LBE56
     /tmp/ccKlSPQC.s:255    .text:00000000000000e4 .LBB63
     /tmp/ccKlSPQC.s:272    .text:00000000000000fc .LBE63
     /tmp/ccKlSPQC.s:422    .text:00000000000001cc .LBE66
     /tmp/ccKlSPQC.s:430    .text:00000000000001d8 .LBB71
     /tmp/ccKlSPQC.s:439    .text:00000000000001e4 .LBE71
     /tmp/ccKlSPQC.s:514    .text:0000000000000230 .LBB75
     /tmp/ccKlSPQC.s:550    .text:000000000000025c .LBE75
     /tmp/ccKlSPQC.s:572    .text:0000000000000274 .LBB82
     /tmp/ccKlSPQC.s:586    .text:000000000000027c .LBE82
     /tmp/ccKlSPQC.s:532    .text:0000000000000248 .LBE76
     /tmp/ccKlSPQC.s:573    .text:0000000000000274 .LBB81
     /tmp/ccKlSPQC.s:585    .text:000000000000027c .LBE81
                           .group:0000000000000000 _ZN4_semD5Ev

UNDEFINED SYMBOLS
_ZdlPv
_Znwm
_ZN9Scheduler3putEP3TCB
_ZN15MemoryAllocator8mem_freeEPv
_ZN3TCB7runningE
_ZN3TCB5yieldEv
