GAS LISTING /tmp/ccQQzUog.s 			page 1


   1              		.file	"main.cpp"
   2              		.option pic
   3              		.option norelax
   4              		.text
   5              	.Ltext0:
   6              		.section	.rodata.str1.8,"aMS",@progbits,1
   7              		.align	3
   8              	.LC0:
   9 0000 613A2000 		.string	"a: "
  10 0004 00000000 		.align	3
  11              	.LC1:
  12 0008 0A623A20 		.string	"\nb: "
  12      00
  13 000d 000000   		.align	3
  14              	.LC2:
  15 0010 0A633A20 		.string	"\nc: "
  15      00
  16 0015 000000   		.align	3
  17              	.LC3:
  18 0018 0A00     		.string	"\n"
  19 001a 00000000 		.align	3
  19      0000
  20              	.LC4:
  21 0020 20643A20 		.string	" d: "
  21      00
  22 0025 000000   		.align	3
  23              	.LC5:
  24 0028 20653A20 		.string	" e: "
  24      00
  25              		.text
  26              		.align	2
  27              		.globl	main
  29              	main:
  30              	.LFB18:
  31              		.file 1 "src/main.cpp"
   1:src/main.cpp  **** #include "../h/riscv.hpp"
   2:src/main.cpp  **** #include "../h/syscall_c.hpp"
   3:src/main.cpp  **** #include "../h/MemoryAllocator.hpp"
   4:src/main.cpp  **** #include "../lib/console.h"
   5:src/main.cpp  **** #include "../lib/hw.h"
   6:src/main.cpp  **** #include "../h/printing.hpp"
   7:src/main.cpp  **** 
   8:src/main.cpp  **** extern "C" void rutina();
   9:src/main.cpp  **** 
  10:src/main.cpp  **** int main() {
  32              		.loc 1 10 12
  33              		.cfi_startproc
  34 0000 130101FC 		addi	sp,sp,-64
  35              		.cfi_def_cfa_offset 64
  36 0004 233C1102 		sd	ra,56(sp)
  37 0008 23388102 		sd	s0,48(sp)
  38 000c 23349102 		sd	s1,40(sp)
  39 0010 23302103 		sd	s2,32(sp)
  40 0014 233C3101 		sd	s3,24(sp)
  41 0018 23384101 		sd	s4,16(sp)
  42 001c 23345101 		sd	s5,8(sp)
  43              		.cfi_offset 1, -8
GAS LISTING /tmp/ccQQzUog.s 			page 2


  44              		.cfi_offset 8, -16
  45              		.cfi_offset 9, -24
  46              		.cfi_offset 18, -32
  47              		.cfi_offset 19, -40
  48              		.cfi_offset 20, -48
  49              		.cfi_offset 21, -56
  50 0020 13040104 		addi	s0,sp,64
  51              		.cfi_def_cfa 8, 0
  11:src/main.cpp  ****     MemoryAllocator::init();
  52              		.loc 1 11 5
  53              		.loc 1 11 26 is_stmt 0
  54 0024 97000000 		call	_ZN15MemoryAllocator4initEv@plt
  54      E7800000 
  55              	.LVL0:
  12:src/main.cpp  ****     Riscv::w_stvec((uint64)rutina);// upis adrese prekidne rutine
  56              		.loc 1 12 5 is_stmt 1
  57              		.loc 1 12 19 is_stmt 0
  58 002c 97070000 		la	a5,rutina
  58      83B70700 
  59              	.LVL1:
  60              	.LBB4:
  61              	.LBB5:
  62              		.file 2 "src/../h/riscv.hpp"
   1:src/../h/riscv.hpp **** #ifndef RISCV_HPP
   2:src/../h/riscv.hpp **** #define RISCV_HPP
   3:src/../h/riscv.hpp **** 
   4:src/../h/riscv.hpp **** #include "../lib/hw.h"
   5:src/../h/riscv.hpp **** 
   6:src/../h/riscv.hpp **** class Riscv{
   7:src/../h/riscv.hpp **** 
   8:src/../h/riscv.hpp ****     static void obradaprekida(uint64 code, uint64 arg1, uint64 arg2, uint64 arg3, uint64 arg4);
   9:src/../h/riscv.hpp **** public:
  10:src/../h/riscv.hpp **** 
  11:src/../h/riscv.hpp ****     // pop sstatus.spp and sstatus.spie bits (has to be a non inline function)
  12:src/../h/riscv.hpp ****     static void popSppSpie();
  13:src/../h/riscv.hpp **** 
  14:src/../h/riscv.hpp ****     // read register scause
  15:src/../h/riscv.hpp ****     static uint64 r_scause();
  16:src/../h/riscv.hpp **** 
  17:src/../h/riscv.hpp ****     // write register scause
  18:src/../h/riscv.hpp ****     static void w_scause(uint64 scause);
  19:src/../h/riscv.hpp **** 
  20:src/../h/riscv.hpp ****     // read register sepc
  21:src/../h/riscv.hpp ****     static uint64 r_sepc();
  22:src/../h/riscv.hpp **** 
  23:src/../h/riscv.hpp ****     // write register sepc
  24:src/../h/riscv.hpp ****     static void w_sepc(uint64 sepc);
  25:src/../h/riscv.hpp **** 
  26:src/../h/riscv.hpp ****     // read register stvec
  27:src/../h/riscv.hpp ****     static uint64 r_stvec();
  28:src/../h/riscv.hpp **** 
  29:src/../h/riscv.hpp ****     // write register stvec
  30:src/../h/riscv.hpp ****     static void w_stvec(uint64 stvec);
  31:src/../h/riscv.hpp **** 
  32:src/../h/riscv.hpp ****     // read register stval
  33:src/../h/riscv.hpp ****     static uint64 r_stval();
  34:src/../h/riscv.hpp **** 
GAS LISTING /tmp/ccQQzUog.s 			page 3


  35:src/../h/riscv.hpp ****     // write register stval
  36:src/../h/riscv.hpp ****     static void w_stval(uint64 stval);
  37:src/../h/riscv.hpp **** 
  38:src/../h/riscv.hpp ****     enum BitMaskSip
  39:src/../h/riscv.hpp ****     {
  40:src/../h/riscv.hpp ****         SIP_SSIE = (1 << 1),
  41:src/../h/riscv.hpp ****         SIP_STIP = (1 << 5),
  42:src/../h/riscv.hpp ****         SIP_SEIP = (1 << 9),
  43:src/../h/riscv.hpp ****     };
  44:src/../h/riscv.hpp **** 
  45:src/../h/riscv.hpp ****     // mask set register sip
  46:src/../h/riscv.hpp ****     static void ms_sip(uint64 mask);
  47:src/../h/riscv.hpp **** 
  48:src/../h/riscv.hpp ****     // mask clear register sip
  49:src/../h/riscv.hpp ****     static void mc_sip(uint64 mask);
  50:src/../h/riscv.hpp **** 
  51:src/../h/riscv.hpp ****     // read register sip
  52:src/../h/riscv.hpp ****     static uint64 r_sip();
  53:src/../h/riscv.hpp **** 
  54:src/../h/riscv.hpp ****     // write register sip
  55:src/../h/riscv.hpp ****     static void w_sip(uint64 sip);
  56:src/../h/riscv.hpp **** 
  57:src/../h/riscv.hpp ****     enum BitMaskSstatus
  58:src/../h/riscv.hpp ****     {
  59:src/../h/riscv.hpp ****         SSTATUS_SIE = (1 << 1),
  60:src/../h/riscv.hpp ****         SSTATUS_SPIE = (1 << 5),
  61:src/../h/riscv.hpp ****         SSTATUS_SPP = (1 << 8),
  62:src/../h/riscv.hpp ****     };
  63:src/../h/riscv.hpp **** 
  64:src/../h/riscv.hpp ****     // mask set register sstatus
  65:src/../h/riscv.hpp ****     static void ms_sstatus(uint64 mask);
  66:src/../h/riscv.hpp **** 
  67:src/../h/riscv.hpp ****     // mask clear register sstatus
  68:src/../h/riscv.hpp ****     static void mc_sstatus(uint64 mask);
  69:src/../h/riscv.hpp **** 
  70:src/../h/riscv.hpp ****     // read register sstatus
  71:src/../h/riscv.hpp ****     static uint64 r_sstatus();
  72:src/../h/riscv.hpp **** 
  73:src/../h/riscv.hpp ****     // write register sstatus
  74:src/../h/riscv.hpp ****     static void w_sstatus(uint64 sstatus);
  75:src/../h/riscv.hpp **** 
  76:src/../h/riscv.hpp ****     // supervisor trap
  77:src/../h/riscv.hpp ****     static void supervisorTrap();
  78:src/../h/riscv.hpp **** 
  79:src/../h/riscv.hpp ****     //stvec Vector "table"
  80:src/../h/riscv.hpp ****     static void stvecVectorTable();
  81:src/../h/riscv.hpp **** 
  82:src/../h/riscv.hpp ****     //read a0 register
  83:src/../h/riscv.hpp ****     static uint64 r_a0();
  84:src/../h/riscv.hpp **** 
  85:src/../h/riscv.hpp ****     //write to a0 register
  86:src/../h/riscv.hpp ****     static void w_a0(uint64 writeValue);
  87:src/../h/riscv.hpp **** 
  88:src/../h/riscv.hpp **** 
  89:src/../h/riscv.hpp **** private:
  90:src/../h/riscv.hpp **** 
  91:src/../h/riscv.hpp ****     // supervisor trap handler
GAS LISTING /tmp/ccQQzUog.s 			page 4


  92:src/../h/riscv.hpp ****     static void handleSupervisorTrap();
  93:src/../h/riscv.hpp **** 
  94:src/../h/riscv.hpp ****     static void handleTimerInterrupt();
  95:src/../h/riscv.hpp **** 
  96:src/../h/riscv.hpp ****     static void handleConsoleInterrupt();
  97:src/../h/riscv.hpp **** };
  98:src/../h/riscv.hpp **** 
  99:src/../h/riscv.hpp **** 
 100:src/../h/riscv.hpp **** inline uint64 Riscv::r_scause()
 101:src/../h/riscv.hpp **** {
 102:src/../h/riscv.hpp ****     uint64 volatile scause;
 103:src/../h/riscv.hpp ****     __asm__ volatile ("csrr %[scause], scause" : [scause] "=r"(scause));
 104:src/../h/riscv.hpp ****     return scause;
 105:src/../h/riscv.hpp **** }
 106:src/../h/riscv.hpp **** 
 107:src/../h/riscv.hpp **** inline void Riscv::w_scause(uint64 scause)
 108:src/../h/riscv.hpp **** {
 109:src/../h/riscv.hpp ****     __asm__ volatile ("csrw scause, %[scause]" : : [scause] "r"(scause));
 110:src/../h/riscv.hpp **** }
 111:src/../h/riscv.hpp **** 
 112:src/../h/riscv.hpp **** inline uint64 Riscv::r_sepc()
 113:src/../h/riscv.hpp **** {
 114:src/../h/riscv.hpp ****     uint64 volatile sepc;
 115:src/../h/riscv.hpp ****     __asm__ volatile ("csrr %[sepc], sepc" : [sepc] "=r"(sepc));
 116:src/../h/riscv.hpp ****     return sepc;
 117:src/../h/riscv.hpp **** }
 118:src/../h/riscv.hpp **** 
 119:src/../h/riscv.hpp **** inline void Riscv::w_sepc(uint64 sepc)
 120:src/../h/riscv.hpp **** {
 121:src/../h/riscv.hpp ****     __asm__ volatile ("csrw sepc, %[sepc]" : : [sepc] "r"(sepc));
 122:src/../h/riscv.hpp **** }
 123:src/../h/riscv.hpp **** 
 124:src/../h/riscv.hpp **** inline uint64 Riscv::r_stvec()
 125:src/../h/riscv.hpp **** {
 126:src/../h/riscv.hpp ****     uint64 volatile stvec;
 127:src/../h/riscv.hpp ****     __asm__ volatile ("csrr %[stvec], stvec" : [stvec] "=r"(stvec));
 128:src/../h/riscv.hpp ****     return stvec;
 129:src/../h/riscv.hpp **** }
 130:src/../h/riscv.hpp **** 
 131:src/../h/riscv.hpp **** inline void Riscv::w_stvec(uint64 stvec)
 132:src/../h/riscv.hpp **** {
 133:src/../h/riscv.hpp ****     __asm__ volatile ("csrw stvec, %[stvec]" : : [stvec] "r"(stvec));
  63              		.loc 2 133 5 is_stmt 1
  64              		.loc 2 133 69 is_stmt 0
  65              	#APP
  66              	# 133 "src/../h/riscv.hpp" 1
 134              	}
  67              		csrw stvec, a5
  68              	# 0 "" 2
  69              	.LVL2:
  70              	#NO_APP
  71              	.LBE5:
  72              	.LBE4:
  13:src/main.cpp  **** 
  14:src/main.cpp  ****     MemoryAllocator::print();
  73              		.loc 1 14 5 is_stmt 1
  74              		.loc 1 14 27 is_stmt 0
GAS LISTING /tmp/ccQQzUog.s 			page 5


  75 0038 97000000 		call	_ZN15MemoryAllocator5printEv@plt
  75      E7800000 
  76              	.LVL3:
  15:src/main.cpp  ****     void *a = mem_alloc(10);
  77              		.loc 1 15 5 is_stmt 1
  78              		.loc 1 15 24 is_stmt 0
  79 0040 1305A000 		li	a0,10
  80 0044 97000000 		call	_Z9mem_allocm@plt
  80      E7800000 
  81              	.LVL4:
  82 004c 93040500 		mv	s1,a0
  83              	.LVL5:
  16:src/main.cpp  ****     MemoryAllocator::print();           //velicina free treba da bude MEM_BLOCK_SIZE + sizeof(Block
  84              		.loc 1 16 5 is_stmt 1
  85              		.loc 1 16 27 is_stmt 0
  86 0050 97000000 		call	_ZN15MemoryAllocator5printEv@plt
  86      E7800000 
  87              	.LVL6:
  17:src/main.cpp  ****     void *b = mem_alloc(100);
  88              		.loc 1 17 5 is_stmt 1
  89              		.loc 1 17 24 is_stmt 0
  90 0058 13054006 		li	a0,100
  91 005c 97000000 		call	_Z9mem_allocm@plt
  91      E7800000 
  92              	.LVL7:
  93 0064 93090500 		mv	s3,a0
  94              	.LVL8:
  18:src/main.cpp  ****     MemoryAllocator::print();           //velicina free treba da bude 2*MEM_BLOCK_SIZE + sizeof(Blo
  95              		.loc 1 18 5 is_stmt 1
  96              		.loc 1 18 27 is_stmt 0
  97 0068 97000000 		call	_ZN15MemoryAllocator5printEv@plt
  97      E7800000 
  98              	.LVL9:
  19:src/main.cpp  ****     void *c = mem_alloc(1000);
  99              		.loc 1 19 5 is_stmt 1
 100              		.loc 1 19 24 is_stmt 0
 101 0070 1305803E 		li	a0,1000
 102 0074 97000000 		call	_Z9mem_allocm@plt
 102      E7800000 
 103              	.LVL10:
 104 007c 13090500 		mv	s2,a0
 105              	.LVL11:
  20:src/main.cpp  ****     MemoryAllocator::print();           //velicina free treba da bude 16*MEM_BLOCK_SIZE + sizeof(Bl
 106              		.loc 1 20 5 is_stmt 1
 107              		.loc 1 20 27 is_stmt 0
 108 0080 97000000 		call	_ZN15MemoryAllocator5printEv@plt
 108      E7800000 
 109              	.LVL12:
  21:src/main.cpp  **** 
  22:src/main.cpp  ****     printString("a: ");
 110              		.loc 1 22 5 is_stmt 1
 111              		.loc 1 22 16 is_stmt 0
 112 0088 17050000 		lla	a0,.LC0
 112      13050500 
 113 0090 97000000 		call	_Z11printStringPKc@plt
 113      E7800000 
 114              	.LVL13:
GAS LISTING /tmp/ccQQzUog.s 			page 6


  23:src/main.cpp  ****     printInt((uint64)a);
 115              		.loc 1 23 5 is_stmt 1
 116              		.loc 1 23 13 is_stmt 0
 117 0098 1B8A0400 		sext.w	s4,s1
 118 009c 13060000 		li	a2,0
 119 00a0 9305A000 		li	a1,10
 120 00a4 13050A00 		mv	a0,s4
 121 00a8 97000000 		call	_Z8printIntiii@plt
 121      E7800000 
 122              	.LVL14:
  24:src/main.cpp  ****     printString("\nb: ");
 123              		.loc 1 24 5 is_stmt 1
 124              		.loc 1 24 16 is_stmt 0
 125 00b0 17050000 		lla	a0,.LC1
 125      13050500 
 126 00b8 97000000 		call	_Z11printStringPKc@plt
 126      E7800000 
 127              	.LVL15:
  25:src/main.cpp  ****     printInt((uint64)b);
 128              		.loc 1 25 5 is_stmt 1
 129              		.loc 1 25 13 is_stmt 0
 130 00c0 13060000 		li	a2,0
 131 00c4 9305A000 		li	a1,10
 132 00c8 1B850900 		sext.w	a0,s3
 133 00cc 97000000 		call	_Z8printIntiii@plt
 133      E7800000 
 134              	.LVL16:
  26:src/main.cpp  ****     printString("\nc: ");
 135              		.loc 1 26 5 is_stmt 1
 136              		.loc 1 26 16 is_stmt 0
 137 00d4 17050000 		lla	a0,.LC2
 137      13050500 
 138 00dc 97000000 		call	_Z11printStringPKc@plt
 138      E7800000 
 139              	.LVL17:
  27:src/main.cpp  ****     printInt((uint64)c);
 140              		.loc 1 27 5 is_stmt 1
 141              		.loc 1 27 13 is_stmt 0
 142 00e4 13060000 		li	a2,0
 143 00e8 9305A000 		li	a1,10
 144 00ec 1B050900 		sext.w	a0,s2
 145 00f0 97000000 		call	_Z8printIntiii@plt
 145      E7800000 
 146              	.LVL18:
  28:src/main.cpp  ****     printString("\n");
 147              		.loc 1 28 5 is_stmt 1
 148              		.loc 1 28 16 is_stmt 0
 149 00f8 17050000 		lla	a0,.LC3
 149      13050500 
 150 0100 97000000 		call	_Z11printStringPKc@plt
 150      E7800000 
 151              	.LVL19:
  29:src/main.cpp  **** 
  30:src/main.cpp  ****     mem_free(a);
 152              		.loc 1 30 5 is_stmt 1
 153              		.loc 1 30 13 is_stmt 0
 154 0108 13850400 		mv	a0,s1
GAS LISTING /tmp/ccQQzUog.s 			page 7


 155 010c 97000000 		call	_Z8mem_freePv@plt
 155      E7800000 
 156              	.LVL20:
  31:src/main.cpp  ****     void *d = mem_alloc(10);
 157              		.loc 1 31 5 is_stmt 1
 158              		.loc 1 31 24 is_stmt 0
 159 0114 1305A000 		li	a0,10
 160 0118 97000000 		call	_Z9mem_allocm@plt
 160      E7800000 
 161              	.LVL21:
 162 0120 930A0500 		mv	s5,a0
 163              	.LVL22:
  32:src/main.cpp  ****     printString("a: ");
 164              		.loc 1 32 5 is_stmt 1
 165              		.loc 1 32 16 is_stmt 0
 166 0124 17050000 		lla	a0,.LC0
 166      13050500 
 167              	.LVL23:
 168 012c 97000000 		call	_Z11printStringPKc@plt
 168      E7800000 
 169              	.LVL24:
  33:src/main.cpp  ****     printInt((uint64)a);
 170              		.loc 1 33 5 is_stmt 1
 171              		.loc 1 33 13 is_stmt 0
 172 0134 13060000 		li	a2,0
 173 0138 9305A000 		li	a1,10
 174 013c 13050A00 		mv	a0,s4
 175 0140 97000000 		call	_Z8printIntiii@plt
 175      E7800000 
 176              	.LVL25:
  34:src/main.cpp  ****     printString(" d: ");
 177              		.loc 1 34 5 is_stmt 1
 178              		.loc 1 34 16 is_stmt 0
 179 0148 17050000 		lla	a0,.LC4
 179      13050500 
 180 0150 97000000 		call	_Z11printStringPKc@plt
 180      E7800000 
 181              	.LVL26:
  35:src/main.cpp  ****     printInt((uint64)d);            //a i d treba da budu isti, jer prostor oslobodjen od a treba d
 182              		.loc 1 35 5 is_stmt 1
 183              		.loc 1 35 13 is_stmt 0
 184 0158 13060000 		li	a2,0
 185 015c 9305A000 		li	a1,10
 186 0160 1B850A00 		sext.w	a0,s5
 187 0164 97000000 		call	_Z8printIntiii@plt
 187      E7800000 
 188              	.LVL27:
  36:src/main.cpp  ****     printString("\n");
 189              		.loc 1 36 5 is_stmt 1
 190              		.loc 1 36 16 is_stmt 0
 191 016c 17050000 		lla	a0,.LC3
 191      13050500 
 192 0174 97000000 		call	_Z11printStringPKc@plt
 192      E7800000 
 193              	.LVL28:
  37:src/main.cpp  **** 
  38:src/main.cpp  ****     mem_free(a);
GAS LISTING /tmp/ccQQzUog.s 			page 8


 194              		.loc 1 38 5 is_stmt 1
 195              		.loc 1 38 13 is_stmt 0
 196 017c 13850400 		mv	a0,s1
 197 0180 97000000 		call	_Z8mem_freePv@plt
 197      E7800000 
 198              	.LVL29:
  39:src/main.cpp  ****     void *e = mem_alloc(100);
 199              		.loc 1 39 5 is_stmt 1
 200              		.loc 1 39 24 is_stmt 0
 201 0188 13054006 		li	a0,100
 202 018c 97000000 		call	_Z9mem_allocm@plt
 202      E7800000 
 203              	.LVL30:
 204 0194 93040500 		mv	s1,a0
 205              	.LVL31:
  40:src/main.cpp  ****     printString("a: ");
 206              		.loc 1 40 5 is_stmt 1
 207              		.loc 1 40 16 is_stmt 0
 208 0198 17050000 		lla	a0,.LC0
 208      13050500 
 209 01a0 97000000 		call	_Z11printStringPKc@plt
 209      E7800000 
 210              	.LVL32:
  41:src/main.cpp  ****     printInt((uint64)a);
 211              		.loc 1 41 5 is_stmt 1
 212              		.loc 1 41 13 is_stmt 0
 213 01a8 13060000 		li	a2,0
 214 01ac 9305A000 		li	a1,10
 215 01b0 13050A00 		mv	a0,s4
 216 01b4 97000000 		call	_Z8printIntiii@plt
 216      E7800000 
 217              	.LVL33:
  42:src/main.cpp  ****     printString(" e: ");
 218              		.loc 1 42 5 is_stmt 1
 219              		.loc 1 42 16 is_stmt 0
 220 01bc 17050000 		lla	a0,.LC5
 220      13050500 
 221 01c4 97000000 		call	_Z11printStringPKc@plt
 221      E7800000 
 222              	.LVL34:
  43:src/main.cpp  ****     printInt((uint64)e);            //a i e ne bi smeli da budu isti, jer prostor oslobodjen od d n
 223              		.loc 1 43 5 is_stmt 1
 224              		.loc 1 43 13 is_stmt 0
 225 01cc 13060000 		li	a2,0
 226 01d0 9305A000 		li	a1,10
 227 01d4 1B850400 		sext.w	a0,s1
 228 01d8 97000000 		call	_Z8printIntiii@plt
 228      E7800000 
 229              	.LVL35:
  44:src/main.cpp  ****     printString("\n");
 230              		.loc 1 44 5 is_stmt 1
 231              		.loc 1 44 16 is_stmt 0
 232 01e0 17050000 		lla	a0,.LC3
 232      13050500 
 233 01e8 97000000 		call	_Z11printStringPKc@plt
 233      E7800000 
 234              	.LVL36:
GAS LISTING /tmp/ccQQzUog.s 			page 9


  45:src/main.cpp  ****     mem_free(e);
 235              		.loc 1 45 5 is_stmt 1
 236              		.loc 1 45 13 is_stmt 0
 237 01f0 13850400 		mv	a0,s1
 238 01f4 97000000 		call	_Z8mem_freePv@plt
 238      E7800000 
 239              	.LVL37:
  46:src/main.cpp  ****     a = mem_alloc(10);
 240              		.loc 1 46 5 is_stmt 1
 241              		.loc 1 46 18 is_stmt 0
 242 01fc 1305A000 		li	a0,10
 243 0200 97000000 		call	_Z9mem_allocm@plt
 243      E7800000 
 244              	.LVL38:
  47:src/main.cpp  **** 
  48:src/main.cpp  ****     //moze se menjati redosled dealokacije da se vidi rad alokatora
  49:src/main.cpp  ****     mem_free(a);
 245              		.loc 1 49 5 is_stmt 1
 246              		.loc 1 49 13 is_stmt 0
 247 0208 97000000 		call	_Z8mem_freePv@plt
 247      E7800000 
 248              	.LVL39:
  50:src/main.cpp  ****     MemoryAllocator::print();
 249              		.loc 1 50 5 is_stmt 1
 250              		.loc 1 50 27 is_stmt 0
 251 0210 97000000 		call	_ZN15MemoryAllocator5printEv@plt
 251      E7800000 
 252              	.LVL40:
  51:src/main.cpp  ****     mem_free(b);
 253              		.loc 1 51 5 is_stmt 1
 254              		.loc 1 51 13 is_stmt 0
 255 0218 13850900 		mv	a0,s3
 256 021c 97000000 		call	_Z8mem_freePv@plt
 256      E7800000 
 257              	.LVL41:
  52:src/main.cpp  ****     MemoryAllocator::print();
 258              		.loc 1 52 5 is_stmt 1
 259              		.loc 1 52 27 is_stmt 0
 260 0224 97000000 		call	_ZN15MemoryAllocator5printEv@plt
 260      E7800000 
 261              	.LVL42:
  53:src/main.cpp  ****     mem_free(c);
 262              		.loc 1 53 5 is_stmt 1
 263              		.loc 1 53 13 is_stmt 0
 264 022c 13050900 		mv	a0,s2
 265 0230 97000000 		call	_Z8mem_freePv@plt
 265      E7800000 
 266              	.LVL43:
  54:src/main.cpp  ****     MemoryAllocator::print();           //ovde treba da bude isti ispis kao na pocetku
 267              		.loc 1 54 5 is_stmt 1
 268              		.loc 1 54 27 is_stmt 0
 269 0238 97000000 		call	_ZN15MemoryAllocator5printEv@plt
 269      E7800000 
 270              	.LVL44:
  55:src/main.cpp  ****     return 0;
 271              		.loc 1 55 5 is_stmt 1
  56:src/main.cpp  **** }
GAS LISTING /tmp/ccQQzUog.s 			page 10


 272              		.loc 1 56 1 is_stmt 0
 273 0240 13050000 		li	a0,0
 274 0244 83308103 		ld	ra,56(sp)
 275              		.cfi_restore 1
 276 0248 03340103 		ld	s0,48(sp)
 277              		.cfi_restore 8
 278              		.cfi_def_cfa 2, 64
 279 024c 83348102 		ld	s1,40(sp)
 280              		.cfi_restore 9
 281              	.LVL45:
 282 0250 03390102 		ld	s2,32(sp)
 283              		.cfi_restore 18
 284              	.LVL46:
 285 0254 83398101 		ld	s3,24(sp)
 286              		.cfi_restore 19
 287              	.LVL47:
 288 0258 033A0101 		ld	s4,16(sp)
 289              		.cfi_restore 20
 290 025c 833A8100 		ld	s5,8(sp)
 291              		.cfi_restore 21
 292              	.LVL48:
 293 0260 13010104 		addi	sp,sp,64
 294              		.cfi_def_cfa_offset 0
 295 0264 67800000 		jr	ra
 296              		.cfi_endproc
 297              	.LFE18:
 299              	.Letext0:
 300              		.file 3 "src/../h/../lib/hw.h"
 301              		.file 4 "src/../h/MemoryAllocator.hpp"
 302              		.file 5 "src/../h/syscall_c.hpp"
 303              		.file 6 "src/../h/printing.hpp"
GAS LISTING /tmp/ccQQzUog.s 			page 11


DEFINED SYMBOLS
                            *ABS*:0000000000000000 main.cpp
     /tmp/ccQQzUog.s:29     .text:0000000000000000 main
     /tmp/ccQQzUog.s:33     .text:0000000000000000 .L0 
     /tmp/ccQQzUog.s:34     .text:0000000000000000 .L0 
     /tmp/ccQQzUog.s:35     .text:0000000000000004 .L0 
     /tmp/ccQQzUog.s:43     .text:0000000000000020 .L0 
     /tmp/ccQQzUog.s:44     .text:0000000000000020 .L0 
     /tmp/ccQQzUog.s:45     .text:0000000000000020 .L0 
     /tmp/ccQQzUog.s:46     .text:0000000000000020 .L0 
     /tmp/ccQQzUog.s:47     .text:0000000000000020 .L0 
     /tmp/ccQQzUog.s:48     .text:0000000000000020 .L0 
     /tmp/ccQQzUog.s:49     .text:0000000000000020 .L0 
     /tmp/ccQQzUog.s:51     .text:0000000000000024 .L0 
     /tmp/ccQQzUog.s:53     .text:0000000000000024 .L0 
     /tmp/ccQQzUog.s:54     .text:0000000000000024 .L0 
     /tmp/ccQQzUog.s:57     .text:000000000000002c .L0 
     /tmp/ccQQzUog.s:58     .text:000000000000002c .L0 
     /tmp/ccQQzUog.s:64     .text:0000000000000034 .L0 
  src/../h/riscv.hpp:133    .text:0000000000000034 .L0 
     /tmp/ccQQzUog.s:74     .text:0000000000000038 .L0 
     /tmp/ccQQzUog.s:75     .text:0000000000000038 .L0 
     /tmp/ccQQzUog.s:78     .text:0000000000000040 .L0 
     /tmp/ccQQzUog.s:79     .text:0000000000000040 .L0 
     /tmp/ccQQzUog.s:85     .text:0000000000000050 .L0 
     /tmp/ccQQzUog.s:86     .text:0000000000000050 .L0 
     /tmp/ccQQzUog.s:89     .text:0000000000000058 .L0 
     /tmp/ccQQzUog.s:90     .text:0000000000000058 .L0 
     /tmp/ccQQzUog.s:96     .text:0000000000000068 .L0 
     /tmp/ccQQzUog.s:97     .text:0000000000000068 .L0 
     /tmp/ccQQzUog.s:100    .text:0000000000000070 .L0 
     /tmp/ccQQzUog.s:101    .text:0000000000000070 .L0 
     /tmp/ccQQzUog.s:107    .text:0000000000000080 .L0 
     /tmp/ccQQzUog.s:108    .text:0000000000000080 .L0 
     /tmp/ccQQzUog.s:111    .text:0000000000000088 .L0 
     /tmp/ccQQzUog.s:112    .text:0000000000000088 .L0 
     /tmp/ccQQzUog.s:116    .text:0000000000000098 .L0 
     /tmp/ccQQzUog.s:117    .text:0000000000000098 .L0 
     /tmp/ccQQzUog.s:124    .text:00000000000000b0 .L0 
     /tmp/ccQQzUog.s:125    .text:00000000000000b0 .L0 
     /tmp/ccQQzUog.s:129    .text:00000000000000c0 .L0 
     /tmp/ccQQzUog.s:130    .text:00000000000000c0 .L0 
     /tmp/ccQQzUog.s:136    .text:00000000000000d4 .L0 
     /tmp/ccQQzUog.s:137    .text:00000000000000d4 .L0 
     /tmp/ccQQzUog.s:141    .text:00000000000000e4 .L0 
     /tmp/ccQQzUog.s:142    .text:00000000000000e4 .L0 
     /tmp/ccQQzUog.s:148    .text:00000000000000f8 .L0 
     /tmp/ccQQzUog.s:149    .text:00000000000000f8 .L0 
     /tmp/ccQQzUog.s:153    .text:0000000000000108 .L0 
     /tmp/ccQQzUog.s:154    .text:0000000000000108 .L0 
     /tmp/ccQQzUog.s:158    .text:0000000000000114 .L0 
     /tmp/ccQQzUog.s:159    .text:0000000000000114 .L0 
     /tmp/ccQQzUog.s:165    .text:0000000000000124 .L0 
     /tmp/ccQQzUog.s:166    .text:0000000000000124 .L0 
     /tmp/ccQQzUog.s:171    .text:0000000000000134 .L0 
     /tmp/ccQQzUog.s:172    .text:0000000000000134 .L0 
     /tmp/ccQQzUog.s:178    .text:0000000000000148 .L0 
GAS LISTING /tmp/ccQQzUog.s 			page 12


     /tmp/ccQQzUog.s:179    .text:0000000000000148 .L0 
     /tmp/ccQQzUog.s:183    .text:0000000000000158 .L0 
     /tmp/ccQQzUog.s:184    .text:0000000000000158 .L0 
     /tmp/ccQQzUog.s:190    .text:000000000000016c .L0 
     /tmp/ccQQzUog.s:191    .text:000000000000016c .L0 
     /tmp/ccQQzUog.s:195    .text:000000000000017c .L0 
     /tmp/ccQQzUog.s:196    .text:000000000000017c .L0 
     /tmp/ccQQzUog.s:200    .text:0000000000000188 .L0 
     /tmp/ccQQzUog.s:201    .text:0000000000000188 .L0 
     /tmp/ccQQzUog.s:207    .text:0000000000000198 .L0 
     /tmp/ccQQzUog.s:208    .text:0000000000000198 .L0 
     /tmp/ccQQzUog.s:212    .text:00000000000001a8 .L0 
     /tmp/ccQQzUog.s:213    .text:00000000000001a8 .L0 
     /tmp/ccQQzUog.s:219    .text:00000000000001bc .L0 
     /tmp/ccQQzUog.s:220    .text:00000000000001bc .L0 
     /tmp/ccQQzUog.s:224    .text:00000000000001cc .L0 
     /tmp/ccQQzUog.s:225    .text:00000000000001cc .L0 
     /tmp/ccQQzUog.s:231    .text:00000000000001e0 .L0 
     /tmp/ccQQzUog.s:232    .text:00000000000001e0 .L0 
     /tmp/ccQQzUog.s:236    .text:00000000000001f0 .L0 
     /tmp/ccQQzUog.s:237    .text:00000000000001f0 .L0 
     /tmp/ccQQzUog.s:241    .text:00000000000001fc .L0 
     /tmp/ccQQzUog.s:242    .text:00000000000001fc .L0 
     /tmp/ccQQzUog.s:246    .text:0000000000000208 .L0 
     /tmp/ccQQzUog.s:247    .text:0000000000000208 .L0 
     /tmp/ccQQzUog.s:250    .text:0000000000000210 .L0 
     /tmp/ccQQzUog.s:251    .text:0000000000000210 .L0 
     /tmp/ccQQzUog.s:254    .text:0000000000000218 .L0 
     /tmp/ccQQzUog.s:255    .text:0000000000000218 .L0 
     /tmp/ccQQzUog.s:259    .text:0000000000000224 .L0 
     /tmp/ccQQzUog.s:260    .text:0000000000000224 .L0 
     /tmp/ccQQzUog.s:263    .text:000000000000022c .L0 
     /tmp/ccQQzUog.s:264    .text:000000000000022c .L0 
     /tmp/ccQQzUog.s:268    .text:0000000000000238 .L0 
     /tmp/ccQQzUog.s:269    .text:0000000000000238 .L0 
     /tmp/ccQQzUog.s:272    .text:0000000000000240 .L0 
     /tmp/ccQQzUog.s:273    .text:0000000000000240 .L0 
     /tmp/ccQQzUog.s:275    .text:0000000000000248 .L0 
     /tmp/ccQQzUog.s:277    .text:000000000000024c .L0 
     /tmp/ccQQzUog.s:278    .text:000000000000024c .L0 
     /tmp/ccQQzUog.s:280    .text:0000000000000250 .L0 
     /tmp/ccQQzUog.s:283    .text:0000000000000254 .L0 
     /tmp/ccQQzUog.s:286    .text:0000000000000258 .L0 
     /tmp/ccQQzUog.s:289    .text:000000000000025c .L0 
     /tmp/ccQQzUog.s:291    .text:0000000000000260 .L0 
     /tmp/ccQQzUog.s:294    .text:0000000000000264 .L0 
     /tmp/ccQQzUog.s:296    .text:0000000000000268 .L0 
     /tmp/ccQQzUog.s:304    .text:0000000000000268 .L0 
     /tmp/ccQQzUog.s:58     .text:000000000000002c .L0 
     /tmp/ccQQzUog.s:8      .rodata.str1.8:0000000000000000 .LC0
     /tmp/ccQQzUog.s:112    .text:0000000000000088 .L0 
     /tmp/ccQQzUog.s:11     .rodata.str1.8:0000000000000008 .LC1
     /tmp/ccQQzUog.s:125    .text:00000000000000b0 .L0 
     /tmp/ccQQzUog.s:14     .rodata.str1.8:0000000000000010 .LC2
     /tmp/ccQQzUog.s:137    .text:00000000000000d4 .L0 
     /tmp/ccQQzUog.s:17     .rodata.str1.8:0000000000000018 .LC3
     /tmp/ccQQzUog.s:149    .text:00000000000000f8 .L0 
GAS LISTING /tmp/ccQQzUog.s 			page 13


     /tmp/ccQQzUog.s:166    .text:0000000000000124 .L0 
     /tmp/ccQQzUog.s:20     .rodata.str1.8:0000000000000020 .LC4
     /tmp/ccQQzUog.s:179    .text:0000000000000148 .L0 
     /tmp/ccQQzUog.s:191    .text:000000000000016c .L0 
     /tmp/ccQQzUog.s:208    .text:0000000000000198 .L0 
     /tmp/ccQQzUog.s:23     .rodata.str1.8:0000000000000028 .LC5
     /tmp/ccQQzUog.s:220    .text:00000000000001bc .L0 
     /tmp/ccQQzUog.s:232    .text:00000000000001e0 .L0 
     /tmp/ccQQzUog.s:1287   .debug_abbrev:0000000000000000 .Ldebug_abbrev0
     /tmp/ccQQzUog.s:2017   .debug_str:0000000000000511 .LASF89
     /tmp/ccQQzUog.s:1931   .debug_str:000000000000024a .LASF90
     /tmp/ccQQzUog.s:1933   .debug_str:0000000000000257 .LASF91
     /tmp/ccQQzUog.s:5      .text:0000000000000000 .Ltext0
     /tmp/ccQQzUog.s:299    .text:0000000000000268 .Letext0
     /tmp/ccQQzUog.s:1849   .debug_line:0000000000000000 .Ldebug_line0
     /tmp/ccQQzUog.s:1955   .debug_str:0000000000000323 .LASF0
     /tmp/ccQQzUog.s:1961   .debug_str:000000000000033d .LASF1
     /tmp/ccQQzUog.s:1941   .debug_str:00000000000002c0 .LASF2
     /tmp/ccQQzUog.s:1993   .debug_str:0000000000000455 .LASF3
     /tmp/ccQQzUog.s:1923   .debug_str:000000000000020a .LASF4
     /tmp/ccQQzUog.s:1997   .debug_str:0000000000000474 .LASF5
     /tmp/ccQQzUog.s:1865   .debug_str:0000000000000060 .LASF6
     /tmp/ccQQzUog.s:1967   .debug_str:0000000000000374 .LASF7
     /tmp/ccQQzUog.s:1953   .debug_str:0000000000000310 .LASF8
     /tmp/ccQQzUog.s:2025   .debug_str:0000000000000608 .LASF9
     /tmp/ccQQzUog.s:1915   .debug_str:00000000000001bc .LASF10
     /tmp/ccQQzUog.s:1979   .debug_str:00000000000003de .LASF11
     /tmp/ccQQzUog.s:2019   .debug_str:00000000000005d5 .LASF12
     /tmp/ccQQzUog.s:1869   .debug_str:000000000000006c .LASF13
     /tmp/ccQQzUog.s:1853   .debug_str:0000000000000008 .LASF14
     /tmp/ccQQzUog.s:1879   .debug_str:00000000000000bc .LASF15
     /tmp/ccQQzUog.s:1991   .debug_str:000000000000043f .LASF16
     /tmp/ccQQzUog.s:1883   .debug_str:00000000000000ce .LASF17
     /tmp/ccQQzUog.s:1959   .debug_str:0000000000000337 .LASF71
     /tmp/ccQQzUog.s:1857   .debug_str:0000000000000021 .LASF92
     /tmp/ccQQzUog.s:1935   .debug_str:0000000000000283 .LASF93
     /tmp/ccQQzUog.s:1989   .debug_str:0000000000000434 .LASF50
     /tmp/ccQQzUog.s:2039   .debug_str:0000000000000675 .LASF52
     /tmp/ccQQzUog.s:1855   .debug_str:0000000000000018 .LASF18
     /tmp/ccQQzUog.s:2005   .debug_str:00000000000004b3 .LASF20
     /tmp/ccQQzUog.s:1895   .debug_str:0000000000000136 .LASF22
     /tmp/ccQQzUog.s:1893   .debug_str:0000000000000121 .LASF24
     /tmp/ccQQzUog.s:1999   .debug_str:0000000000000486 .LASF19
     /tmp/ccQQzUog.s:1983   .debug_str:00000000000003f6 .LASF21
     /tmp/ccQQzUog.s:2015   .debug_str:000000000000050a .LASF23
     /tmp/ccQQzUog.s:2009   .debug_str:00000000000004e0 .LASF25
     /tmp/ccQQzUog.s:1907   .debug_str:0000000000000184 .LASF26
     /tmp/ccQQzUog.s:1885   .debug_str:00000000000000e4 .LASF27
     /tmp/ccQQzUog.s:1851   .debug_str:0000000000000000 .LASF28
     /tmp/ccQQzUog.s:1919   .debug_str:00000000000001e0 .LASF29
     /tmp/ccQQzUog.s:1899   .debug_str:0000000000000150 .LASF30
     /tmp/ccQQzUog.s:1871   .debug_str:000000000000007c .LASF31
     /tmp/ccQQzUog.s:2043   .debug_str:0000000000000698 .LASF32
     /tmp/ccQQzUog.s:1901   .debug_str:0000000000000158 .LASF33
     /tmp/ccQQzUog.s:1957   .debug_str:0000000000000330 .LASF34
     /tmp/ccQQzUog.s:2035   .debug_str:000000000000065d .LASF35
     /tmp/ccQQzUog.s:1863   .debug_str:0000000000000059 .LASF36
GAS LISTING /tmp/ccQQzUog.s 			page 14


     /tmp/ccQQzUog.s:1905   .debug_str:0000000000000171 .LASF37
     /tmp/ccQQzUog.s:1911   .debug_str:0000000000000195 .LASF38
     /tmp/ccQQzUog.s:2013   .debug_str:00000000000004f8 .LASF39
     /tmp/ccQQzUog.s:1861   .debug_str:0000000000000053 .LASF40
     /tmp/ccQQzUog.s:2045   .debug_str:00000000000006a0 .LASF41
     /tmp/ccQQzUog.s:2041   .debug_str:000000000000068d .LASF42
     /tmp/ccQQzUog.s:1995   .debug_str:000000000000045c .LASF43
     /tmp/ccQQzUog.s:1925   .debug_str:0000000000000211 .LASF44
     /tmp/ccQQzUog.s:2007   .debug_str:00000000000004c8 .LASF45
     /tmp/ccQQzUog.s:1877   .debug_str:00000000000000b2 .LASF46
     /tmp/ccQQzUog.s:1921   .debug_str:00000000000001f4 .LASF47
     /tmp/ccQQzUog.s:1943   .debug_str:00000000000002ce .LASF48
     /tmp/ccQQzUog.s:1917   .debug_str:00000000000001ca .LASF49
     /tmp/ccQQzUog.s:2001   .debug_str:000000000000048d .LASF51
     /tmp/ccQQzUog.s:1873   .debug_str:0000000000000090 .LASF53
     /tmp/ccQQzUog.s:1891   .debug_str:0000000000000110 .LASF54
     /tmp/ccQQzUog.s:2023   .debug_str:00000000000005ea .LASF55
     /tmp/ccQQzUog.s:2011   .debug_str:00000000000004f3 .LASF56
     /tmp/ccQQzUog.s:1897   .debug_str:000000000000013f .LASF57
     /tmp/ccQQzUog.s:1867   .debug_str:0000000000000067 .LASF58
     /tmp/ccQQzUog.s:1945   .debug_str:00000000000002d8 .LASF59
     /tmp/ccQQzUog.s:2029   .debug_str:0000000000000622 .LASF60
     /tmp/ccQQzUog.s:1929   .debug_str:0000000000000228 .LASF62
     /tmp/ccQQzUog.s:1965   .debug_str:000000000000035f .LASF61
     /tmp/ccQQzUog.s:1971   .debug_str:000000000000038c .LASF63
     /tmp/ccQQzUog.s:2003   .debug_str:000000000000049c .LASF64
     /tmp/ccQQzUog.s:1859   .debug_str:000000000000002f .LASF65
     /tmp/ccQQzUog.s:1881   .debug_str:00000000000000c8 .LASF94
     /tmp/ccQQzUog.s:1947   .debug_str:00000000000002e9 .LASF66
     /tmp/ccQQzUog.s:2033   .debug_str:0000000000000658 .LASF67
     /tmp/ccQQzUog.s:1987   .debug_str:000000000000042f .LASF68
     /tmp/ccQQzUog.s:2037   .debug_str:0000000000000670 .LASF69
     /tmp/ccQQzUog.s:1903   .debug_str:000000000000016c .LASF70
     /tmp/ccQQzUog.s:1937   .debug_str:00000000000002a2 .LASF72
     /tmp/ccQQzUog.s:1887   .debug_str:00000000000000f8 .LASF95
     /tmp/ccQQzUog.s:1969   .debug_str:0000000000000387 .LASF73
     /tmp/ccQQzUog.s:1949   .debug_str:00000000000002ee .LASF74
     /tmp/ccQQzUog.s:2027   .debug_str:0000000000000618 .LASF75
     /tmp/ccQQzUog.s:2031   .debug_str:0000000000000637 .LASF77
     /tmp/ccQQzUog.s:1981   .debug_str:00000000000003ed .LASF76
     /tmp/ccQQzUog.s:1913   .debug_str:000000000000019b .LASF78
     /tmp/ccQQzUog.s:1875   .debug_str:00000000000000ac .LASF79
     /tmp/ccQQzUog.s:1985   .debug_str:0000000000000409 .LASF80
     /tmp/ccQQzUog.s:2021   .debug_str:00000000000005e4 .LASF81
     /tmp/ccQQzUog.s:1975   .debug_str:00000000000003b3 .LASF82
     /tmp/ccQQzUog.s:1973   .debug_str:00000000000003ae .LASF96
     /tmp/ccQQzUog.s:30     .text:0000000000000000 .LFB18
     /tmp/ccQQzUog.s:297    .text:0000000000000268 .LFE18
     /tmp/ccQQzUog.s:1785   .debug_loc:0000000000000000 .LLST0
     /tmp/ccQQzUog.s:1796   .debug_loc:0000000000000036 .LLST1
     /tmp/ccQQzUog.s:1807   .debug_loc:000000000000006c .LLST2
     /tmp/ccQQzUog.s:1818   .debug_loc:00000000000000a2 .LLST3
     /tmp/ccQQzUog.s:1829   .debug_loc:00000000000000d8 .LLST4
     /tmp/ccQQzUog.s:60     .text:0000000000000034 .LBB4
     /tmp/ccQQzUog.s:72     .text:0000000000000038 .LBE4
     /tmp/ccQQzUog.s:55     .text:000000000000002c .LVL0
     /tmp/ccQQzUog.s:76     .text:0000000000000040 .LVL3
GAS LISTING /tmp/ccQQzUog.s 			page 15


     /tmp/ccQQzUog.s:81     .text:000000000000004c .LVL4
     /tmp/ccQQzUog.s:87     .text:0000000000000058 .LVL6
     /tmp/ccQQzUog.s:92     .text:0000000000000064 .LVL7
     /tmp/ccQQzUog.s:98     .text:0000000000000070 .LVL9
     /tmp/ccQQzUog.s:103    .text:000000000000007c .LVL10
     /tmp/ccQQzUog.s:109    .text:0000000000000088 .LVL12
     /tmp/ccQQzUog.s:114    .text:0000000000000098 .LVL13
     /tmp/ccQQzUog.s:122    .text:00000000000000b0 .LVL14
     /tmp/ccQQzUog.s:127    .text:00000000000000c0 .LVL15
     /tmp/ccQQzUog.s:134    .text:00000000000000d4 .LVL16
     /tmp/ccQQzUog.s:139    .text:00000000000000e4 .LVL17
     /tmp/ccQQzUog.s:146    .text:00000000000000f8 .LVL18
     /tmp/ccQQzUog.s:151    .text:0000000000000108 .LVL19
     /tmp/ccQQzUog.s:156    .text:0000000000000114 .LVL20
     /tmp/ccQQzUog.s:161    .text:0000000000000120 .LVL21
     /tmp/ccQQzUog.s:169    .text:0000000000000134 .LVL24
     /tmp/ccQQzUog.s:176    .text:0000000000000148 .LVL25
     /tmp/ccQQzUog.s:181    .text:0000000000000158 .LVL26
     /tmp/ccQQzUog.s:188    .text:000000000000016c .LVL27
     /tmp/ccQQzUog.s:193    .text:000000000000017c .LVL28
     /tmp/ccQQzUog.s:198    .text:0000000000000188 .LVL29
     /tmp/ccQQzUog.s:203    .text:0000000000000194 .LVL30
     /tmp/ccQQzUog.s:210    .text:00000000000001a8 .LVL32
     /tmp/ccQQzUog.s:217    .text:00000000000001bc .LVL33
     /tmp/ccQQzUog.s:222    .text:00000000000001cc .LVL34
     /tmp/ccQQzUog.s:229    .text:00000000000001e0 .LVL35
     /tmp/ccQQzUog.s:234    .text:00000000000001f0 .LVL36
     /tmp/ccQQzUog.s:239    .text:00000000000001fc .LVL37
     /tmp/ccQQzUog.s:244    .text:0000000000000208 .LVL38
     /tmp/ccQQzUog.s:248    .text:0000000000000210 .LVL39
     /tmp/ccQQzUog.s:252    .text:0000000000000218 .LVL40
     /tmp/ccQQzUog.s:257    .text:0000000000000224 .LVL41
     /tmp/ccQQzUog.s:261    .text:000000000000022c .LVL42
     /tmp/ccQQzUog.s:266    .text:0000000000000238 .LVL43
     /tmp/ccQQzUog.s:270    .text:0000000000000240 .LVL44
     /tmp/ccQQzUog.s:1951   .debug_str:000000000000030a .LASF97
     /tmp/ccQQzUog.s:1939   .debug_str:00000000000002b2 .LASF83
     /tmp/ccQQzUog.s:1889   .debug_str:00000000000000fd .LASF84
     /tmp/ccQQzUog.s:1927   .debug_str:000000000000021c .LASF85
     /tmp/ccQQzUog.s:1963   .debug_str:0000000000000350 .LASF86
     /tmp/ccQQzUog.s:1909   .debug_str:000000000000018c .LASF87
     /tmp/ccQQzUog.s:1977   .debug_str:00000000000003d0 .LASF88
     /tmp/ccQQzUog.s:83     .text:0000000000000050 .LVL5
     /tmp/ccQQzUog.s:205    .text:0000000000000198 .LVL31
     /tmp/ccQQzUog.s:94     .text:0000000000000068 .LVL8
     /tmp/ccQQzUog.s:287    .text:0000000000000258 .LVL47
     /tmp/ccQQzUog.s:105    .text:0000000000000080 .LVL11
     /tmp/ccQQzUog.s:284    .text:0000000000000254 .LVL46
     /tmp/ccQQzUog.s:163    .text:0000000000000124 .LVL22
     /tmp/ccQQzUog.s:167    .text:000000000000012c .LVL23
     /tmp/ccQQzUog.s:292    .text:0000000000000260 .LVL48
     /tmp/ccQQzUog.s:281    .text:0000000000000250 .LVL45
     /tmp/ccQQzUog.s:305    .debug_info:0000000000000000 .Ldebug_info0

UNDEFINED SYMBOLS
_ZN15MemoryAllocator4initEv
rutina
GAS LISTING /tmp/ccQQzUog.s 			page 16


_ZN15MemoryAllocator5printEv
_Z9mem_allocm
_Z11printStringPKc
_Z8printIntiii
_Z8mem_freePv
