GAS LISTING /tmp/cc0A2hVv.s 			page 1


   1              		.file	"main.cpp"
   2              		.option pic
   3              		.option norelax
   4              		.text
   5              	.Ltext0:
   6              		.section	.rodata.str1.8,"aMS",@progbits,1
   7              		.align	3
   8              	.LC0:
   9 0000 613A2000 		.string	"a: "
  10 0004 00000000 		.align	3
  11              	.LC1:
  12 0008 0A623A20 		.string	"\nb: "
  12      00
  13 000d 000000   		.align	3
  14              	.LC2:
  15 0010 0A633A20 		.string	"\nc: "
  15      00
  16 0015 000000   		.align	3
  17              	.LC3:
  18 0018 0A00     		.string	"\n"
  19 001a 00000000 		.align	3
  19      0000
  20              	.LC4:
  21 0020 20643A20 		.string	" d: "
  21      00
  22 0025 000000   		.align	3
  23              	.LC5:
  24 0028 20653A20 		.string	" e: "
  24      00
  25              		.text
  26              		.align	2
  27              		.globl	main
  29              	main:
  30              	.LFB18:
  31              		.file 1 "src/main.cpp"
   1:src/main.cpp  **** #include "../h/riscv.hpp"
   2:src/main.cpp  **** #include "../h/syscall_c.hpp"
   3:src/main.cpp  **** #include "../h/MemoryAllocator.hpp"
   4:src/main.cpp  **** #include "../lib/console.h"
   5:src/main.cpp  **** #include "../lib/hw.h"
   6:src/main.cpp  **** #include "../h/printing.hpp"
   7:src/main.cpp  **** 
   8:src/main.cpp  **** extern "C" void rutina();
   9:src/main.cpp  **** 
  10:src/main.cpp  **** int main() {
  32              		.loc 1 10 12
  33              		.cfi_startproc
  34 0000 130101FD 		addi	sp,sp,-48
  35              		.cfi_def_cfa_offset 48
  36 0004 23341102 		sd	ra,40(sp)
  37 0008 23308102 		sd	s0,32(sp)
  38 000c 233C9100 		sd	s1,24(sp)
  39 0010 23382101 		sd	s2,16(sp)
  40 0014 23343101 		sd	s3,8(sp)
  41 0018 23304101 		sd	s4,0(sp)
  42              		.cfi_offset 1, -8
  43              		.cfi_offset 8, -16
GAS LISTING /tmp/cc0A2hVv.s 			page 2


  44              		.cfi_offset 9, -24
  45              		.cfi_offset 18, -32
  46              		.cfi_offset 19, -40
  47              		.cfi_offset 20, -48
  48 001c 13040103 		addi	s0,sp,48
  49              		.cfi_def_cfa 8, 0
  11:src/main.cpp  ****     MemoryAllocator::init();
  50              		.loc 1 11 5
  51              		.loc 1 11 26 is_stmt 0
  52 0020 97000000 		call	_ZN15MemoryAllocator4initEv@plt
  52      E7800000 
  53              	.LVL0:
  12:src/main.cpp  ****     Riscv::w_stvec((uint64)rutina);// upis adrese prekidne rutine
  54              		.loc 1 12 5 is_stmt 1
  55              		.loc 1 12 19 is_stmt 0
  56 0028 97070000 		la	a5,rutina
  56      83B70700 
  57              	.LVL1:
  58              	.LBB4:
  59              	.LBB5:
  60              		.file 2 "src/../h/riscv.hpp"
   1:src/../h/riscv.hpp **** #ifndef RISCV_HPP
   2:src/../h/riscv.hpp **** #define RISCV_HPP
   3:src/../h/riscv.hpp **** 
   4:src/../h/riscv.hpp **** #include "../lib/hw.h"
   5:src/../h/riscv.hpp **** 
   6:src/../h/riscv.hpp **** class Riscv{
   7:src/../h/riscv.hpp **** 
   8:src/../h/riscv.hpp ****     static void obradaprekida(uint64 code, uint64 arg1, uint64 arg2, uint64 arg3, uint64 arg4);
   9:src/../h/riscv.hpp **** public:
  10:src/../h/riscv.hpp **** 
  11:src/../h/riscv.hpp ****   static void pushRegisters();
  12:src/../h/riscv.hpp ****   static void popRegisters();
  13:src/../h/riscv.hpp **** 
  14:src/../h/riscv.hpp ****     // pop sstatus.spp and sstatus.spie bits (has to be a non inline function)
  15:src/../h/riscv.hpp ****     static void popSppSpie();
  16:src/../h/riscv.hpp **** 
  17:src/../h/riscv.hpp ****     // read register scause
  18:src/../h/riscv.hpp ****     static uint64 r_scause();
  19:src/../h/riscv.hpp **** 
  20:src/../h/riscv.hpp ****     // write register scause
  21:src/../h/riscv.hpp ****     static void w_scause(uint64 scause);
  22:src/../h/riscv.hpp **** 
  23:src/../h/riscv.hpp ****     // read register sepc
  24:src/../h/riscv.hpp ****     static uint64 r_sepc();
  25:src/../h/riscv.hpp **** 
  26:src/../h/riscv.hpp ****     // write register sepc
  27:src/../h/riscv.hpp ****     static void w_sepc(uint64 sepc);
  28:src/../h/riscv.hpp **** 
  29:src/../h/riscv.hpp ****     // read register stvec
  30:src/../h/riscv.hpp ****     static uint64 r_stvec();
  31:src/../h/riscv.hpp **** 
  32:src/../h/riscv.hpp ****     // write register stvec
  33:src/../h/riscv.hpp ****     static void w_stvec(uint64 stvec);
  34:src/../h/riscv.hpp **** 
  35:src/../h/riscv.hpp ****     // read register stval
  36:src/../h/riscv.hpp ****     static uint64 r_stval();
GAS LISTING /tmp/cc0A2hVv.s 			page 3


  37:src/../h/riscv.hpp **** 
  38:src/../h/riscv.hpp ****     // write register stval
  39:src/../h/riscv.hpp ****     static void w_stval(uint64 stval);
  40:src/../h/riscv.hpp **** 
  41:src/../h/riscv.hpp ****     enum BitMaskSip
  42:src/../h/riscv.hpp ****     {
  43:src/../h/riscv.hpp ****         SIP_SSIE = (1 << 1),
  44:src/../h/riscv.hpp ****         SIP_STIP = (1 << 5),
  45:src/../h/riscv.hpp ****         SIP_SEIP = (1 << 9),
  46:src/../h/riscv.hpp ****     };
  47:src/../h/riscv.hpp **** 
  48:src/../h/riscv.hpp ****     // mask set register sip
  49:src/../h/riscv.hpp ****     static void ms_sip(uint64 mask);
  50:src/../h/riscv.hpp **** 
  51:src/../h/riscv.hpp ****     // mask clear register sip
  52:src/../h/riscv.hpp ****     static void mc_sip(uint64 mask);
  53:src/../h/riscv.hpp **** 
  54:src/../h/riscv.hpp ****     // read register sip
  55:src/../h/riscv.hpp ****     static uint64 r_sip();
  56:src/../h/riscv.hpp **** 
  57:src/../h/riscv.hpp ****     // write register sip
  58:src/../h/riscv.hpp ****     static void w_sip(uint64 sip);
  59:src/../h/riscv.hpp **** 
  60:src/../h/riscv.hpp ****     enum BitMaskSstatus
  61:src/../h/riscv.hpp ****     {
  62:src/../h/riscv.hpp ****         SSTATUS_SIE = (1 << 1),
  63:src/../h/riscv.hpp ****         SSTATUS_SPIE = (1 << 5),
  64:src/../h/riscv.hpp ****         SSTATUS_SPP = (1 << 8),
  65:src/../h/riscv.hpp ****     };
  66:src/../h/riscv.hpp **** 
  67:src/../h/riscv.hpp ****     // mask set register sstatus
  68:src/../h/riscv.hpp ****     static void ms_sstatus(uint64 mask);
  69:src/../h/riscv.hpp **** 
  70:src/../h/riscv.hpp ****     // mask clear register sstatus
  71:src/../h/riscv.hpp ****     static void mc_sstatus(uint64 mask);
  72:src/../h/riscv.hpp **** 
  73:src/../h/riscv.hpp ****     // read register sstatus
  74:src/../h/riscv.hpp ****     static uint64 r_sstatus();
  75:src/../h/riscv.hpp **** 
  76:src/../h/riscv.hpp ****     // write register sstatus
  77:src/../h/riscv.hpp ****     static void w_sstatus(uint64 sstatus);
  78:src/../h/riscv.hpp **** 
  79:src/../h/riscv.hpp ****     // supervisor trap
  80:src/../h/riscv.hpp ****     static void supervisorTrap();
  81:src/../h/riscv.hpp **** 
  82:src/../h/riscv.hpp ****     //stvec Vector "table"
  83:src/../h/riscv.hpp ****     static void stvecVectorTable();
  84:src/../h/riscv.hpp **** 
  85:src/../h/riscv.hpp ****     //read a0 register
  86:src/../h/riscv.hpp ****     static uint64 r_a0();
  87:src/../h/riscv.hpp **** 
  88:src/../h/riscv.hpp ****     //write to a0 register
  89:src/../h/riscv.hpp ****     static void w_a0(uint64 writeValue);
  90:src/../h/riscv.hpp **** 
  91:src/../h/riscv.hpp **** 
  92:src/../h/riscv.hpp **** private:
  93:src/../h/riscv.hpp **** 
GAS LISTING /tmp/cc0A2hVv.s 			page 4


  94:src/../h/riscv.hpp ****     // supervisor trap handler
  95:src/../h/riscv.hpp ****     static void handleSupervisorTrap();
  96:src/../h/riscv.hpp **** 
  97:src/../h/riscv.hpp ****     static void handleTimerInterrupt();
  98:src/../h/riscv.hpp **** 
  99:src/../h/riscv.hpp ****     static void handleConsoleInterrupt();
 100:src/../h/riscv.hpp **** };
 101:src/../h/riscv.hpp **** 
 102:src/../h/riscv.hpp **** 
 103:src/../h/riscv.hpp **** inline uint64 Riscv::r_scause()
 104:src/../h/riscv.hpp **** {
 105:src/../h/riscv.hpp ****     uint64 volatile scause;
 106:src/../h/riscv.hpp ****     __asm__ volatile ("csrr %[scause], scause" : [scause] "=r"(scause));
 107:src/../h/riscv.hpp ****     return scause;
 108:src/../h/riscv.hpp **** }
 109:src/../h/riscv.hpp **** 
 110:src/../h/riscv.hpp **** inline void Riscv::w_scause(uint64 scause)
 111:src/../h/riscv.hpp **** {
 112:src/../h/riscv.hpp ****     __asm__ volatile ("csrw scause, %[scause]" : : [scause] "r"(scause));
 113:src/../h/riscv.hpp **** }
 114:src/../h/riscv.hpp **** 
 115:src/../h/riscv.hpp **** inline uint64 Riscv::r_sepc()
 116:src/../h/riscv.hpp **** {
 117:src/../h/riscv.hpp ****     uint64 volatile sepc;
 118:src/../h/riscv.hpp ****     __asm__ volatile ("csrr %[sepc], sepc" : [sepc] "=r"(sepc));
 119:src/../h/riscv.hpp ****     return sepc;
 120:src/../h/riscv.hpp **** }
 121:src/../h/riscv.hpp **** 
 122:src/../h/riscv.hpp **** inline void Riscv::w_sepc(uint64 sepc)
 123:src/../h/riscv.hpp **** {
 124:src/../h/riscv.hpp ****     __asm__ volatile ("csrw sepc, %[sepc]" : : [sepc] "r"(sepc));
 125:src/../h/riscv.hpp **** }
 126:src/../h/riscv.hpp **** 
 127:src/../h/riscv.hpp **** inline uint64 Riscv::r_stvec()
 128:src/../h/riscv.hpp **** {
 129:src/../h/riscv.hpp ****     uint64 volatile stvec;
 130:src/../h/riscv.hpp ****     __asm__ volatile ("csrr %[stvec], stvec" : [stvec] "=r"(stvec));
 131:src/../h/riscv.hpp ****     return stvec;
 132:src/../h/riscv.hpp **** }
 133:src/../h/riscv.hpp **** 
 134:src/../h/riscv.hpp **** inline void Riscv::w_stvec(uint64 stvec)
 135:src/../h/riscv.hpp **** {
 136:src/../h/riscv.hpp ****     __asm__ volatile ("csrw stvec, %[stvec]" : : [stvec] "r"(stvec));
  61              		.loc 2 136 5 is_stmt 1
  62              		.loc 2 136 69 is_stmt 0
  63              	#APP
  64              	# 136 "src/../h/riscv.hpp" 1
 137              	}
  65              		csrw stvec, a5
  66              	# 0 "" 2
  67              	.LVL2:
  68              	#NO_APP
  69              	.LBE5:
  70              	.LBE4:
  13:src/main.cpp  **** 
  14:src/main.cpp  ****     MemoryAllocator::print();
  71              		.loc 1 14 5 is_stmt 1
GAS LISTING /tmp/cc0A2hVv.s 			page 5


  72              		.loc 1 14 27 is_stmt 0
  73 0034 97000000 		call	_ZN15MemoryAllocator5printEv@plt
  73      E7800000 
  74              	.LVL3:
  15:src/main.cpp  ****     void *a = mem_alloc(10);
  75              		.loc 1 15 5 is_stmt 1
  76              		.loc 1 15 24 is_stmt 0
  77 003c 1305A000 		li	a0,10
  78 0040 97000000 		call	_Z9mem_allocm@plt
  78      E7800000 
  79              	.LVL4:
  80 0048 93090500 		mv	s3,a0
  81              	.LVL5:
  16:src/main.cpp  ****     MemoryAllocator::print();           //velicina free treba da bude MEM_BLOCK_SIZE + sizeof(Block
  82              		.loc 1 16 5 is_stmt 1
  83              		.loc 1 16 27 is_stmt 0
  84 004c 97000000 		call	_ZN15MemoryAllocator5printEv@plt
  84      E7800000 
  85              	.LVL6:
  17:src/main.cpp  ****     void *b = mem_alloc(100);
  86              		.loc 1 17 5 is_stmt 1
  87              		.loc 1 17 24 is_stmt 0
  88 0054 13054006 		li	a0,100
  89 0058 97000000 		call	_Z9mem_allocm@plt
  89      E7800000 
  90              	.LVL7:
  91 0060 13090500 		mv	s2,a0
  92              	.LVL8:
  18:src/main.cpp  ****     MemoryAllocator::print();           //velicina free treba da bude 2*MEM_BLOCK_SIZE + sizeof(Blo
  93              		.loc 1 18 5 is_stmt 1
  94              		.loc 1 18 27 is_stmt 0
  95 0064 97000000 		call	_ZN15MemoryAllocator5printEv@plt
  95      E7800000 
  96              	.LVL9:
  19:src/main.cpp  ****     void *c = mem_alloc(1000);
  97              		.loc 1 19 5 is_stmt 1
  98              		.loc 1 19 24 is_stmt 0
  99 006c 1305803E 		li	a0,1000
 100 0070 97000000 		call	_Z9mem_allocm@plt
 100      E7800000 
 101              	.LVL10:
 102 0078 93040500 		mv	s1,a0
 103              	.LVL11:
  20:src/main.cpp  ****     MemoryAllocator::print();           //velicina free treba da bude 16*MEM_BLOCK_SIZE + sizeof(Bl
 104              		.loc 1 20 5 is_stmt 1
 105              		.loc 1 20 27 is_stmt 0
 106 007c 97000000 		call	_ZN15MemoryAllocator5printEv@plt
 106      E7800000 
 107              	.LVL12:
  21:src/main.cpp  **** 
  22:src/main.cpp  ****     printString("a: ");
 108              		.loc 1 22 5 is_stmt 1
 109              		.loc 1 22 16 is_stmt 0
 110 0084 17050000 		lla	a0,.LC0
 110      13050500 
 111 008c 97000000 		call	_Z11printStringPKc@plt
 111      E7800000 
GAS LISTING /tmp/cc0A2hVv.s 			page 6


 112              	.LVL13:
  23:src/main.cpp  ****     printInt((uint64)a);
 113              		.loc 1 23 5 is_stmt 1
 114              		.loc 1 23 13 is_stmt 0
 115 0094 1B8A0900 		sext.w	s4,s3
 116 0098 13060000 		li	a2,0
 117 009c 9305A000 		li	a1,10
 118 00a0 13050A00 		mv	a0,s4
 119 00a4 97000000 		call	_Z8printIntiii@plt
 119      E7800000 
 120              	.LVL14:
  24:src/main.cpp  ****     printString("\nb: ");
 121              		.loc 1 24 5 is_stmt 1
 122              		.loc 1 24 16 is_stmt 0
 123 00ac 17050000 		lla	a0,.LC1
 123      13050500 
 124 00b4 97000000 		call	_Z11printStringPKc@plt
 124      E7800000 
 125              	.LVL15:
  25:src/main.cpp  ****     printInt((uint64)b);
 126              		.loc 1 25 5 is_stmt 1
 127              		.loc 1 25 13 is_stmt 0
 128 00bc 13060000 		li	a2,0
 129 00c0 9305A000 		li	a1,10
 130 00c4 1B050900 		sext.w	a0,s2
 131 00c8 97000000 		call	_Z8printIntiii@plt
 131      E7800000 
 132              	.LVL16:
  26:src/main.cpp  ****     printString("\nc: ");
 133              		.loc 1 26 5 is_stmt 1
 134              		.loc 1 26 16 is_stmt 0
 135 00d0 17050000 		lla	a0,.LC2
 135      13050500 
 136 00d8 97000000 		call	_Z11printStringPKc@plt
 136      E7800000 
 137              	.LVL17:
  27:src/main.cpp  ****     printInt((uint64)c);
 138              		.loc 1 27 5 is_stmt 1
 139              		.loc 1 27 13 is_stmt 0
 140 00e0 13060000 		li	a2,0
 141 00e4 9305A000 		li	a1,10
 142 00e8 1B850400 		sext.w	a0,s1
 143 00ec 97000000 		call	_Z8printIntiii@plt
 143      E7800000 
 144              	.LVL18:
  28:src/main.cpp  ****     printString("\n");
 145              		.loc 1 28 5 is_stmt 1
 146              		.loc 1 28 16 is_stmt 0
 147 00f4 17050000 		lla	a0,.LC3
 147      13050500 
 148 00fc 97000000 		call	_Z11printStringPKc@plt
 148      E7800000 
 149              	.LVL19:
  29:src/main.cpp  **** 
  30:src/main.cpp  ****     mem_free(a);
 150              		.loc 1 30 5 is_stmt 1
 151              		.loc 1 30 13 is_stmt 0
GAS LISTING /tmp/cc0A2hVv.s 			page 7


 152 0104 13850900 		mv	a0,s3
 153 0108 97000000 		call	_Z8mem_freePv@plt
 153      E7800000 
 154              	.LVL20:
  31:src/main.cpp  ****     void *d = mem_alloc(10);
 155              		.loc 1 31 5 is_stmt 1
 156              		.loc 1 31 24 is_stmt 0
 157 0110 1305A000 		li	a0,10
 158 0114 97000000 		call	_Z9mem_allocm@plt
 158      E7800000 
 159              	.LVL21:
 160 011c 93090500 		mv	s3,a0
 161              	.LVL22:
  32:src/main.cpp  ****     printString("a: ");
 162              		.loc 1 32 5 is_stmt 1
 163              		.loc 1 32 16 is_stmt 0
 164 0120 17050000 		lla	a0,.LC0
 164      13050500 
 165              	.LVL23:
 166 0128 97000000 		call	_Z11printStringPKc@plt
 166      E7800000 
 167              	.LVL24:
  33:src/main.cpp  ****     printInt((uint64)a);
 168              		.loc 1 33 5 is_stmt 1
 169              		.loc 1 33 13 is_stmt 0
 170 0130 13060000 		li	a2,0
 171 0134 9305A000 		li	a1,10
 172 0138 13050A00 		mv	a0,s4
 173 013c 97000000 		call	_Z8printIntiii@plt
 173      E7800000 
 174              	.LVL25:
  34:src/main.cpp  ****     printString(" d: ");
 175              		.loc 1 34 5 is_stmt 1
 176              		.loc 1 34 16 is_stmt 0
 177 0144 17050000 		lla	a0,.LC4
 177      13050500 
 178 014c 97000000 		call	_Z11printStringPKc@plt
 178      E7800000 
 179              	.LVL26:
  35:src/main.cpp  ****     printInt((uint64)d);            //a i d treba da budu isti, jer prostor oslobodjen od a treba d
 180              		.loc 1 35 5 is_stmt 1
 181              		.loc 1 35 13 is_stmt 0
 182 0154 13060000 		li	a2,0
 183 0158 9305A000 		li	a1,10
 184 015c 1B850900 		sext.w	a0,s3
 185 0160 97000000 		call	_Z8printIntiii@plt
 185      E7800000 
 186              	.LVL27:
  36:src/main.cpp  ****     printString("\n");
 187              		.loc 1 36 5 is_stmt 1
 188              		.loc 1 36 16 is_stmt 0
 189 0168 17050000 		lla	a0,.LC3
 189      13050500 
 190 0170 97000000 		call	_Z11printStringPKc@plt
 190      E7800000 
 191              	.LVL28:
  37:src/main.cpp  **** 
GAS LISTING /tmp/cc0A2hVv.s 			page 8


  38:src/main.cpp  ****     mem_free(d);
 192              		.loc 1 38 5 is_stmt 1
 193              		.loc 1 38 13 is_stmt 0
 194 0178 13850900 		mv	a0,s3
 195 017c 97000000 		call	_Z8mem_freePv@plt
 195      E7800000 
 196              	.LVL29:
  39:src/main.cpp  ****     void *e = mem_alloc(100);
 197              		.loc 1 39 5 is_stmt 1
 198              		.loc 1 39 24 is_stmt 0
 199 0184 13054006 		li	a0,100
 200 0188 97000000 		call	_Z9mem_allocm@plt
 200      E7800000 
 201              	.LVL30:
 202 0190 93090500 		mv	s3,a0
 203              	.LVL31:
  40:src/main.cpp  ****     printString("a: ");
 204              		.loc 1 40 5 is_stmt 1
 205              		.loc 1 40 16 is_stmt 0
 206 0194 17050000 		lla	a0,.LC0
 206      13050500 
 207              	.LVL32:
 208 019c 97000000 		call	_Z11printStringPKc@plt
 208      E7800000 
 209              	.LVL33:
  41:src/main.cpp  ****     printInt((uint64)a);
 210              		.loc 1 41 5 is_stmt 1
 211              		.loc 1 41 13 is_stmt 0
 212 01a4 13060000 		li	a2,0
 213 01a8 9305A000 		li	a1,10
 214 01ac 13050A00 		mv	a0,s4
 215 01b0 97000000 		call	_Z8printIntiii@plt
 215      E7800000 
 216              	.LVL34:
  42:src/main.cpp  ****     printString(" e: ");
 217              		.loc 1 42 5 is_stmt 1
 218              		.loc 1 42 16 is_stmt 0
 219 01b8 17050000 		lla	a0,.LC5
 219      13050500 
 220 01c0 97000000 		call	_Z11printStringPKc@plt
 220      E7800000 
 221              	.LVL35:
  43:src/main.cpp  ****     printInt((uint64)e);            //a i e ne bi smeli da budu isti, jer prostor oslobodjen od d n
 222              		.loc 1 43 5 is_stmt 1
 223              		.loc 1 43 13 is_stmt 0
 224 01c8 13060000 		li	a2,0
 225 01cc 9305A000 		li	a1,10
 226 01d0 1B850900 		sext.w	a0,s3
 227 01d4 97000000 		call	_Z8printIntiii@plt
 227      E7800000 
 228              	.LVL36:
  44:src/main.cpp  ****     printString("\n");
 229              		.loc 1 44 5 is_stmt 1
 230              		.loc 1 44 16 is_stmt 0
 231 01dc 17050000 		lla	a0,.LC3
 231      13050500 
 232 01e4 97000000 		call	_Z11printStringPKc@plt
GAS LISTING /tmp/cc0A2hVv.s 			page 9


 232      E7800000 
 233              	.LVL37:
  45:src/main.cpp  ****     mem_free(e);
 234              		.loc 1 45 5 is_stmt 1
 235              		.loc 1 45 13 is_stmt 0
 236 01ec 13850900 		mv	a0,s3
 237 01f0 97000000 		call	_Z8mem_freePv@plt
 237      E7800000 
 238              	.LVL38:
  46:src/main.cpp  ****     a = mem_alloc(10);
 239              		.loc 1 46 5 is_stmt 1
 240              		.loc 1 46 18 is_stmt 0
 241 01f8 1305A000 		li	a0,10
 242 01fc 97000000 		call	_Z9mem_allocm@plt
 242      E7800000 
 243              	.LVL39:
  47:src/main.cpp  **** 
  48:src/main.cpp  ****     //moze se menjati redosled dealokacije da se vidi rad alokatora
  49:src/main.cpp  ****     mem_free(a);
 244              		.loc 1 49 5 is_stmt 1
 245              		.loc 1 49 13 is_stmt 0
 246 0204 97000000 		call	_Z8mem_freePv@plt
 246      E7800000 
 247              	.LVL40:
  50:src/main.cpp  ****     MemoryAllocator::print();
 248              		.loc 1 50 5 is_stmt 1
 249              		.loc 1 50 27 is_stmt 0
 250 020c 97000000 		call	_ZN15MemoryAllocator5printEv@plt
 250      E7800000 
 251              	.LVL41:
  51:src/main.cpp  ****     mem_free(b);
 252              		.loc 1 51 5 is_stmt 1
 253              		.loc 1 51 13 is_stmt 0
 254 0214 13050900 		mv	a0,s2
 255 0218 97000000 		call	_Z8mem_freePv@plt
 255      E7800000 
 256              	.LVL42:
  52:src/main.cpp  ****     MemoryAllocator::print();
 257              		.loc 1 52 5 is_stmt 1
 258              		.loc 1 52 27 is_stmt 0
 259 0220 97000000 		call	_ZN15MemoryAllocator5printEv@plt
 259      E7800000 
 260              	.LVL43:
  53:src/main.cpp  ****     mem_free(c);
 261              		.loc 1 53 5 is_stmt 1
 262              		.loc 1 53 13 is_stmt 0
 263 0228 13850400 		mv	a0,s1
 264 022c 97000000 		call	_Z8mem_freePv@plt
 264      E7800000 
 265              	.LVL44:
  54:src/main.cpp  ****     MemoryAllocator::print();           //ovde treba da bude isti ispis kao na pocetku
 266              		.loc 1 54 5 is_stmt 1
 267              		.loc 1 54 27 is_stmt 0
 268 0234 97000000 		call	_ZN15MemoryAllocator5printEv@plt
 268      E7800000 
 269              	.LVL45:
  55:src/main.cpp  ****     return 0;
GAS LISTING /tmp/cc0A2hVv.s 			page 10


 270              		.loc 1 55 5 is_stmt 1
  56:src/main.cpp  **** }
 271              		.loc 1 56 1 is_stmt 0
 272 023c 13050000 		li	a0,0
 273 0240 83308102 		ld	ra,40(sp)
 274              		.cfi_restore 1
 275 0244 03340102 		ld	s0,32(sp)
 276              		.cfi_restore 8
 277              		.cfi_def_cfa 2, 48
 278 0248 83348101 		ld	s1,24(sp)
 279              		.cfi_restore 9
 280              	.LVL46:
 281 024c 03390101 		ld	s2,16(sp)
 282              		.cfi_restore 18
 283              	.LVL47:
 284 0250 83398100 		ld	s3,8(sp)
 285              		.cfi_restore 19
 286              	.LVL48:
 287 0254 033A0100 		ld	s4,0(sp)
 288              		.cfi_restore 20
 289 0258 13010103 		addi	sp,sp,48
 290              		.cfi_def_cfa_offset 0
 291 025c 67800000 		jr	ra
 292              		.cfi_endproc
 293              	.LFE18:
 295              	.Letext0:
 296              		.file 3 "src/../h/../lib/hw.h"
 297              		.file 4 "src/../h/MemoryAllocator.hpp"
 298              		.file 5 "src/../h/syscall_c.hpp"
 299              		.file 6 "src/../h/printing.hpp"
GAS LISTING /tmp/cc0A2hVv.s 			page 11


DEFINED SYMBOLS
                            *ABS*:0000000000000000 main.cpp
     /tmp/cc0A2hVv.s:29     .text:0000000000000000 main
     /tmp/cc0A2hVv.s:33     .text:0000000000000000 .L0 
     /tmp/cc0A2hVv.s:34     .text:0000000000000000 .L0 
     /tmp/cc0A2hVv.s:35     .text:0000000000000004 .L0 
     /tmp/cc0A2hVv.s:42     .text:000000000000001c .L0 
     /tmp/cc0A2hVv.s:43     .text:000000000000001c .L0 
     /tmp/cc0A2hVv.s:44     .text:000000000000001c .L0 
     /tmp/cc0A2hVv.s:45     .text:000000000000001c .L0 
     /tmp/cc0A2hVv.s:46     .text:000000000000001c .L0 
     /tmp/cc0A2hVv.s:47     .text:000000000000001c .L0 
     /tmp/cc0A2hVv.s:49     .text:0000000000000020 .L0 
     /tmp/cc0A2hVv.s:51     .text:0000000000000020 .L0 
     /tmp/cc0A2hVv.s:52     .text:0000000000000020 .L0 
     /tmp/cc0A2hVv.s:55     .text:0000000000000028 .L0 
     /tmp/cc0A2hVv.s:56     .text:0000000000000028 .L0 
     /tmp/cc0A2hVv.s:62     .text:0000000000000030 .L0 
  src/../h/riscv.hpp:136    .text:0000000000000030 .L0 
     /tmp/cc0A2hVv.s:72     .text:0000000000000034 .L0 
     /tmp/cc0A2hVv.s:73     .text:0000000000000034 .L0 
     /tmp/cc0A2hVv.s:76     .text:000000000000003c .L0 
     /tmp/cc0A2hVv.s:77     .text:000000000000003c .L0 
     /tmp/cc0A2hVv.s:83     .text:000000000000004c .L0 
     /tmp/cc0A2hVv.s:84     .text:000000000000004c .L0 
     /tmp/cc0A2hVv.s:87     .text:0000000000000054 .L0 
     /tmp/cc0A2hVv.s:88     .text:0000000000000054 .L0 
     /tmp/cc0A2hVv.s:94     .text:0000000000000064 .L0 
     /tmp/cc0A2hVv.s:95     .text:0000000000000064 .L0 
     /tmp/cc0A2hVv.s:98     .text:000000000000006c .L0 
     /tmp/cc0A2hVv.s:99     .text:000000000000006c .L0 
     /tmp/cc0A2hVv.s:105    .text:000000000000007c .L0 
     /tmp/cc0A2hVv.s:106    .text:000000000000007c .L0 
     /tmp/cc0A2hVv.s:109    .text:0000000000000084 .L0 
     /tmp/cc0A2hVv.s:110    .text:0000000000000084 .L0 
     /tmp/cc0A2hVv.s:114    .text:0000000000000094 .L0 
     /tmp/cc0A2hVv.s:115    .text:0000000000000094 .L0 
     /tmp/cc0A2hVv.s:122    .text:00000000000000ac .L0 
     /tmp/cc0A2hVv.s:123    .text:00000000000000ac .L0 
     /tmp/cc0A2hVv.s:127    .text:00000000000000bc .L0 
     /tmp/cc0A2hVv.s:128    .text:00000000000000bc .L0 
     /tmp/cc0A2hVv.s:134    .text:00000000000000d0 .L0 
     /tmp/cc0A2hVv.s:135    .text:00000000000000d0 .L0 
     /tmp/cc0A2hVv.s:139    .text:00000000000000e0 .L0 
     /tmp/cc0A2hVv.s:140    .text:00000000000000e0 .L0 
     /tmp/cc0A2hVv.s:146    .text:00000000000000f4 .L0 
     /tmp/cc0A2hVv.s:147    .text:00000000000000f4 .L0 
     /tmp/cc0A2hVv.s:151    .text:0000000000000104 .L0 
     /tmp/cc0A2hVv.s:152    .text:0000000000000104 .L0 
     /tmp/cc0A2hVv.s:156    .text:0000000000000110 .L0 
     /tmp/cc0A2hVv.s:157    .text:0000000000000110 .L0 
     /tmp/cc0A2hVv.s:163    .text:0000000000000120 .L0 
     /tmp/cc0A2hVv.s:164    .text:0000000000000120 .L0 
     /tmp/cc0A2hVv.s:169    .text:0000000000000130 .L0 
     /tmp/cc0A2hVv.s:170    .text:0000000000000130 .L0 
     /tmp/cc0A2hVv.s:176    .text:0000000000000144 .L0 
     /tmp/cc0A2hVv.s:177    .text:0000000000000144 .L0 
GAS LISTING /tmp/cc0A2hVv.s 			page 12


     /tmp/cc0A2hVv.s:181    .text:0000000000000154 .L0 
     /tmp/cc0A2hVv.s:182    .text:0000000000000154 .L0 
     /tmp/cc0A2hVv.s:188    .text:0000000000000168 .L0 
     /tmp/cc0A2hVv.s:189    .text:0000000000000168 .L0 
     /tmp/cc0A2hVv.s:193    .text:0000000000000178 .L0 
     /tmp/cc0A2hVv.s:194    .text:0000000000000178 .L0 
     /tmp/cc0A2hVv.s:198    .text:0000000000000184 .L0 
     /tmp/cc0A2hVv.s:199    .text:0000000000000184 .L0 
     /tmp/cc0A2hVv.s:205    .text:0000000000000194 .L0 
     /tmp/cc0A2hVv.s:206    .text:0000000000000194 .L0 
     /tmp/cc0A2hVv.s:211    .text:00000000000001a4 .L0 
     /tmp/cc0A2hVv.s:212    .text:00000000000001a4 .L0 
     /tmp/cc0A2hVv.s:218    .text:00000000000001b8 .L0 
     /tmp/cc0A2hVv.s:219    .text:00000000000001b8 .L0 
     /tmp/cc0A2hVv.s:223    .text:00000000000001c8 .L0 
     /tmp/cc0A2hVv.s:224    .text:00000000000001c8 .L0 
     /tmp/cc0A2hVv.s:230    .text:00000000000001dc .L0 
     /tmp/cc0A2hVv.s:231    .text:00000000000001dc .L0 
     /tmp/cc0A2hVv.s:235    .text:00000000000001ec .L0 
     /tmp/cc0A2hVv.s:236    .text:00000000000001ec .L0 
     /tmp/cc0A2hVv.s:240    .text:00000000000001f8 .L0 
     /tmp/cc0A2hVv.s:241    .text:00000000000001f8 .L0 
     /tmp/cc0A2hVv.s:245    .text:0000000000000204 .L0 
     /tmp/cc0A2hVv.s:246    .text:0000000000000204 .L0 
     /tmp/cc0A2hVv.s:249    .text:000000000000020c .L0 
     /tmp/cc0A2hVv.s:250    .text:000000000000020c .L0 
     /tmp/cc0A2hVv.s:253    .text:0000000000000214 .L0 
     /tmp/cc0A2hVv.s:254    .text:0000000000000214 .L0 
     /tmp/cc0A2hVv.s:258    .text:0000000000000220 .L0 
     /tmp/cc0A2hVv.s:259    .text:0000000000000220 .L0 
     /tmp/cc0A2hVv.s:262    .text:0000000000000228 .L0 
     /tmp/cc0A2hVv.s:263    .text:0000000000000228 .L0 
     /tmp/cc0A2hVv.s:267    .text:0000000000000234 .L0 
     /tmp/cc0A2hVv.s:268    .text:0000000000000234 .L0 
     /tmp/cc0A2hVv.s:271    .text:000000000000023c .L0 
     /tmp/cc0A2hVv.s:272    .text:000000000000023c .L0 
     /tmp/cc0A2hVv.s:274    .text:0000000000000244 .L0 
     /tmp/cc0A2hVv.s:276    .text:0000000000000248 .L0 
     /tmp/cc0A2hVv.s:277    .text:0000000000000248 .L0 
     /tmp/cc0A2hVv.s:279    .text:000000000000024c .L0 
     /tmp/cc0A2hVv.s:282    .text:0000000000000250 .L0 
     /tmp/cc0A2hVv.s:285    .text:0000000000000254 .L0 
     /tmp/cc0A2hVv.s:288    .text:0000000000000258 .L0 
     /tmp/cc0A2hVv.s:290    .text:000000000000025c .L0 
     /tmp/cc0A2hVv.s:292    .text:0000000000000260 .L0 
     /tmp/cc0A2hVv.s:300    .text:0000000000000260 .L0 
     /tmp/cc0A2hVv.s:56     .text:0000000000000028 .L0 
     /tmp/cc0A2hVv.s:8      .rodata.str1.8:0000000000000000 .LC0
     /tmp/cc0A2hVv.s:110    .text:0000000000000084 .L0 
     /tmp/cc0A2hVv.s:11     .rodata.str1.8:0000000000000008 .LC1
     /tmp/cc0A2hVv.s:123    .text:00000000000000ac .L0 
     /tmp/cc0A2hVv.s:14     .rodata.str1.8:0000000000000010 .LC2
     /tmp/cc0A2hVv.s:135    .text:00000000000000d0 .L0 
     /tmp/cc0A2hVv.s:17     .rodata.str1.8:0000000000000018 .LC3
     /tmp/cc0A2hVv.s:147    .text:00000000000000f4 .L0 
     /tmp/cc0A2hVv.s:164    .text:0000000000000120 .L0 
     /tmp/cc0A2hVv.s:20     .rodata.str1.8:0000000000000020 .LC4
GAS LISTING /tmp/cc0A2hVv.s 			page 13


     /tmp/cc0A2hVv.s:177    .text:0000000000000144 .L0 
     /tmp/cc0A2hVv.s:189    .text:0000000000000168 .L0 
     /tmp/cc0A2hVv.s:206    .text:0000000000000194 .L0 
     /tmp/cc0A2hVv.s:23     .rodata.str1.8:0000000000000028 .LC5
     /tmp/cc0A2hVv.s:219    .text:00000000000001b8 .L0 
     /tmp/cc0A2hVv.s:231    .text:00000000000001dc .L0 
     /tmp/cc0A2hVv.s:1297   .debug_abbrev:0000000000000000 .Ldebug_abbrev0
     /tmp/cc0A2hVv.s:2039   .debug_str:000000000000055c .LASF93
     /tmp/cc0A2hVv.s:1953   .debug_str:00000000000002b4 .LASF94
     /tmp/cc0A2hVv.s:1943   .debug_str:000000000000024d .LASF95
     /tmp/cc0A2hVv.s:5      .text:0000000000000000 .Ltext0
     /tmp/cc0A2hVv.s:295    .text:0000000000000260 .Letext0
     /tmp/cc0A2hVv.s:1863   .debug_line:0000000000000000 .Ldebug_line0
     /tmp/cc0A2hVv.s:1977   .debug_str:0000000000000379 .LASF0
     /tmp/cc0A2hVv.s:1983   .debug_str:0000000000000393 .LASF1
     /tmp/cc0A2hVv.s:1963   .debug_str:0000000000000316 .LASF2
     /tmp/cc0A2hVv.s:2015   .debug_str:00000000000004ab .LASF3
     /tmp/cc0A2hVv.s:1945   .debug_str:0000000000000274 .LASF4
     /tmp/cc0A2hVv.s:2019   .debug_str:00000000000004ca .LASF5
     /tmp/cc0A2hVv.s:1883   .debug_str:0000000000000088 .LASF6
     /tmp/cc0A2hVv.s:1989   .debug_str:00000000000003ca .LASF7
     /tmp/cc0A2hVv.s:1975   .debug_str:0000000000000366 .LASF8
     /tmp/cc0A2hVv.s:2047   .debug_str:0000000000000653 .LASF9
     /tmp/cc0A2hVv.s:1935   .debug_str:00000000000001ff .LASF10
     /tmp/cc0A2hVv.s:2001   .debug_str:0000000000000434 .LASF11
     /tmp/cc0A2hVv.s:2041   .debug_str:0000000000000620 .LASF12
     /tmp/cc0A2hVv.s:1887   .debug_str:0000000000000094 .LASF13
     /tmp/cc0A2hVv.s:1869   .debug_str:0000000000000022 .LASF14
     /tmp/cc0A2hVv.s:1897   .debug_str:00000000000000e4 .LASF15
     /tmp/cc0A2hVv.s:2013   .debug_str:0000000000000495 .LASF16
     /tmp/cc0A2hVv.s:1901   .debug_str:00000000000000f6 .LASF17
     /tmp/cc0A2hVv.s:1981   .debug_str:000000000000038d .LASF75
     /tmp/cc0A2hVv.s:1873   .debug_str:000000000000003b .LASF96
     /tmp/cc0A2hVv.s:1957   .debug_str:00000000000002d9 .LASF97
     /tmp/cc0A2hVv.s:1881   .debug_str:000000000000007a .LASF18
     /tmp/cc0A2hVv.s:1915   .debug_str:0000000000000167 .LASF20
     /tmp/cc0A2hVv.s:2029   .debug_str:000000000000051e .LASF19
     /tmp/cc0A2hVv.s:1867   .debug_str:0000000000000008 .LASF21
     /tmp/cc0A2hVv.s:2011   .debug_str:000000000000048a .LASF22
     /tmp/cc0A2hVv.s:2061   .debug_str:00000000000006c0 .LASF23
     /tmp/cc0A2hVv.s:1871   .debug_str:0000000000000032 .LASF24
     /tmp/cc0A2hVv.s:2027   .debug_str:0000000000000509 .LASF26
     /tmp/cc0A2hVv.s:1913   .debug_str:000000000000015e .LASF28
     /tmp/cc0A2hVv.s:1911   .debug_str:0000000000000149 .LASF30
     /tmp/cc0A2hVv.s:2021   .debug_str:00000000000004dc .LASF25
     /tmp/cc0A2hVv.s:2005   .debug_str:000000000000044c .LASF27
     /tmp/cc0A2hVv.s:2037   .debug_str:0000000000000555 .LASF29
     /tmp/cc0A2hVv.s:2031   .debug_str:000000000000052b .LASF31
     /tmp/cc0A2hVv.s:1927   .debug_str:00000000000001c7 .LASF32
     /tmp/cc0A2hVv.s:1903   .debug_str:000000000000010c .LASF33
     /tmp/cc0A2hVv.s:1865   .debug_str:0000000000000000 .LASF34
     /tmp/cc0A2hVv.s:1939   .debug_str:0000000000000223 .LASF35
     /tmp/cc0A2hVv.s:1919   .debug_str:0000000000000193 .LASF36
     /tmp/cc0A2hVv.s:1889   .debug_str:00000000000000a4 .LASF37
     /tmp/cc0A2hVv.s:2065   .debug_str:00000000000006e3 .LASF38
     /tmp/cc0A2hVv.s:1921   .debug_str:000000000000019b .LASF39
     /tmp/cc0A2hVv.s:1979   .debug_str:0000000000000386 .LASF40
GAS LISTING /tmp/cc0A2hVv.s 			page 14


     /tmp/cc0A2hVv.s:2057   .debug_str:00000000000006a8 .LASF41
     /tmp/cc0A2hVv.s:1879   .debug_str:0000000000000073 .LASF42
     /tmp/cc0A2hVv.s:1925   .debug_str:00000000000001b4 .LASF43
     /tmp/cc0A2hVv.s:1931   .debug_str:00000000000001d8 .LASF44
     /tmp/cc0A2hVv.s:2035   .debug_str:0000000000000543 .LASF45
     /tmp/cc0A2hVv.s:1877   .debug_str:000000000000006d .LASF46
     /tmp/cc0A2hVv.s:2067   .debug_str:00000000000006eb .LASF47
     /tmp/cc0A2hVv.s:2063   .debug_str:00000000000006d8 .LASF48
     /tmp/cc0A2hVv.s:2017   .debug_str:00000000000004b2 .LASF49
     /tmp/cc0A2hVv.s:1947   .debug_str:000000000000027b .LASF50
     /tmp/cc0A2hVv.s:1955   .debug_str:00000000000002c1 .LASF51
     /tmp/cc0A2hVv.s:1895   .debug_str:00000000000000da .LASF52
     /tmp/cc0A2hVv.s:1941   .debug_str:0000000000000237 .LASF53
     /tmp/cc0A2hVv.s:1965   .debug_str:0000000000000324 .LASF54
     /tmp/cc0A2hVv.s:1937   .debug_str:000000000000020d .LASF55
     /tmp/cc0A2hVv.s:2023   .debug_str:00000000000004e3 .LASF56
     /tmp/cc0A2hVv.s:1891   .debug_str:00000000000000b8 .LASF57
     /tmp/cc0A2hVv.s:1909   .debug_str:0000000000000138 .LASF58
     /tmp/cc0A2hVv.s:2045   .debug_str:0000000000000635 .LASF59
     /tmp/cc0A2hVv.s:2033   .debug_str:000000000000053e .LASF60
     /tmp/cc0A2hVv.s:1917   .debug_str:0000000000000182 .LASF61
     /tmp/cc0A2hVv.s:1885   .debug_str:000000000000008f .LASF62
     /tmp/cc0A2hVv.s:1967   .debug_str:000000000000032e .LASF63
     /tmp/cc0A2hVv.s:2051   .debug_str:000000000000066d .LASF64
     /tmp/cc0A2hVv.s:1951   .debug_str:0000000000000292 .LASF66
     /tmp/cc0A2hVv.s:1987   .debug_str:00000000000003b5 .LASF65
     /tmp/cc0A2hVv.s:1993   .debug_str:00000000000003e2 .LASF67
     /tmp/cc0A2hVv.s:2025   .debug_str:00000000000004f2 .LASF68
     /tmp/cc0A2hVv.s:1875   .debug_str:0000000000000049 .LASF69
     /tmp/cc0A2hVv.s:1899   .debug_str:00000000000000f0 .LASF98
     /tmp/cc0A2hVv.s:1969   .debug_str:000000000000033f .LASF70
     /tmp/cc0A2hVv.s:2055   .debug_str:00000000000006a3 .LASF71
     /tmp/cc0A2hVv.s:2009   .debug_str:0000000000000485 .LASF72
     /tmp/cc0A2hVv.s:2059   .debug_str:00000000000006bb .LASF73
     /tmp/cc0A2hVv.s:1923   .debug_str:00000000000001af .LASF74
     /tmp/cc0A2hVv.s:1959   .debug_str:00000000000002f8 .LASF76
     /tmp/cc0A2hVv.s:1905   .debug_str:0000000000000120 .LASF99
     /tmp/cc0A2hVv.s:1991   .debug_str:00000000000003dd .LASF77
     /tmp/cc0A2hVv.s:1971   .debug_str:0000000000000344 .LASF78
     /tmp/cc0A2hVv.s:2049   .debug_str:0000000000000663 .LASF79
     /tmp/cc0A2hVv.s:2053   .debug_str:0000000000000682 .LASF81
     /tmp/cc0A2hVv.s:2003   .debug_str:0000000000000443 .LASF80
     /tmp/cc0A2hVv.s:1933   .debug_str:00000000000001de .LASF82
     /tmp/cc0A2hVv.s:1893   .debug_str:00000000000000d4 .LASF83
     /tmp/cc0A2hVv.s:2007   .debug_str:000000000000045f .LASF84
     /tmp/cc0A2hVv.s:2043   .debug_str:000000000000062f .LASF85
     /tmp/cc0A2hVv.s:1997   .debug_str:0000000000000409 .LASF86
     /tmp/cc0A2hVv.s:1995   .debug_str:0000000000000404 .LASF100
     /tmp/cc0A2hVv.s:30     .text:0000000000000000 .LFB18
     /tmp/cc0A2hVv.s:293    .text:0000000000000260 .LFE18
     /tmp/cc0A2hVv.s:1795   .debug_loc:0000000000000000 .LLST0
     /tmp/cc0A2hVv.s:1810   .debug_loc:0000000000000049 .LLST1
     /tmp/cc0A2hVv.s:1821   .debug_loc:000000000000007f .LLST2
     /tmp/cc0A2hVv.s:1828   .debug_loc:00000000000000a2 .LLST3
     /tmp/cc0A2hVv.s:1839   .debug_loc:00000000000000d8 .LLST4
     /tmp/cc0A2hVv.s:58     .text:0000000000000030 .LBB4
     /tmp/cc0A2hVv.s:70     .text:0000000000000034 .LBE4
GAS LISTING /tmp/cc0A2hVv.s 			page 15


     /tmp/cc0A2hVv.s:53     .text:0000000000000028 .LVL0
     /tmp/cc0A2hVv.s:74     .text:000000000000003c .LVL3
     /tmp/cc0A2hVv.s:79     .text:0000000000000048 .LVL4
     /tmp/cc0A2hVv.s:85     .text:0000000000000054 .LVL6
     /tmp/cc0A2hVv.s:90     .text:0000000000000060 .LVL7
     /tmp/cc0A2hVv.s:96     .text:000000000000006c .LVL9
     /tmp/cc0A2hVv.s:101    .text:0000000000000078 .LVL10
     /tmp/cc0A2hVv.s:107    .text:0000000000000084 .LVL12
     /tmp/cc0A2hVv.s:112    .text:0000000000000094 .LVL13
     /tmp/cc0A2hVv.s:120    .text:00000000000000ac .LVL14
     /tmp/cc0A2hVv.s:125    .text:00000000000000bc .LVL15
     /tmp/cc0A2hVv.s:132    .text:00000000000000d0 .LVL16
     /tmp/cc0A2hVv.s:137    .text:00000000000000e0 .LVL17
     /tmp/cc0A2hVv.s:144    .text:00000000000000f4 .LVL18
     /tmp/cc0A2hVv.s:149    .text:0000000000000104 .LVL19
     /tmp/cc0A2hVv.s:154    .text:0000000000000110 .LVL20
     /tmp/cc0A2hVv.s:159    .text:000000000000011c .LVL21
     /tmp/cc0A2hVv.s:167    .text:0000000000000130 .LVL24
     /tmp/cc0A2hVv.s:174    .text:0000000000000144 .LVL25
     /tmp/cc0A2hVv.s:179    .text:0000000000000154 .LVL26
     /tmp/cc0A2hVv.s:186    .text:0000000000000168 .LVL27
     /tmp/cc0A2hVv.s:191    .text:0000000000000178 .LVL28
     /tmp/cc0A2hVv.s:196    .text:0000000000000184 .LVL29
     /tmp/cc0A2hVv.s:201    .text:0000000000000190 .LVL30
     /tmp/cc0A2hVv.s:209    .text:00000000000001a4 .LVL33
     /tmp/cc0A2hVv.s:216    .text:00000000000001b8 .LVL34
     /tmp/cc0A2hVv.s:221    .text:00000000000001c8 .LVL35
     /tmp/cc0A2hVv.s:228    .text:00000000000001dc .LVL36
     /tmp/cc0A2hVv.s:233    .text:00000000000001ec .LVL37
     /tmp/cc0A2hVv.s:238    .text:00000000000001f8 .LVL38
     /tmp/cc0A2hVv.s:243    .text:0000000000000204 .LVL39
     /tmp/cc0A2hVv.s:247    .text:000000000000020c .LVL40
     /tmp/cc0A2hVv.s:251    .text:0000000000000214 .LVL41
     /tmp/cc0A2hVv.s:256    .text:0000000000000220 .LVL42
     /tmp/cc0A2hVv.s:260    .text:0000000000000228 .LVL43
     /tmp/cc0A2hVv.s:265    .text:0000000000000234 .LVL44
     /tmp/cc0A2hVv.s:269    .text:000000000000023c .LVL45
     /tmp/cc0A2hVv.s:1973   .debug_str:0000000000000360 .LASF101
     /tmp/cc0A2hVv.s:1961   .debug_str:0000000000000308 .LASF87
     /tmp/cc0A2hVv.s:1907   .debug_str:0000000000000125 .LASF88
     /tmp/cc0A2hVv.s:1949   .debug_str:0000000000000286 .LASF89
     /tmp/cc0A2hVv.s:1985   .debug_str:00000000000003a6 .LASF90
     /tmp/cc0A2hVv.s:1929   .debug_str:00000000000001cf .LASF91
     /tmp/cc0A2hVv.s:1999   .debug_str:0000000000000426 .LASF92
     /tmp/cc0A2hVv.s:81     .text:000000000000004c .LVL5
     /tmp/cc0A2hVv.s:161    .text:0000000000000120 .LVL22
     /tmp/cc0A2hVv.s:92     .text:0000000000000064 .LVL8
     /tmp/cc0A2hVv.s:283    .text:0000000000000250 .LVL47
     /tmp/cc0A2hVv.s:103    .text:000000000000007c .LVL11
     /tmp/cc0A2hVv.s:280    .text:000000000000024c .LVL46
     /tmp/cc0A2hVv.s:165    .text:0000000000000128 .LVL23
     /tmp/cc0A2hVv.s:203    .text:0000000000000194 .LVL31
     /tmp/cc0A2hVv.s:207    .text:000000000000019c .LVL32
     /tmp/cc0A2hVv.s:286    .text:0000000000000254 .LVL48
     /tmp/cc0A2hVv.s:301    .debug_info:0000000000000000 .Ldebug_info0

UNDEFINED SYMBOLS
GAS LISTING /tmp/cc0A2hVv.s 			page 16


_ZN15MemoryAllocator4initEv
rutina
_ZN15MemoryAllocator5printEv
_Z9mem_allocm
_Z11printStringPKc
_Z8printIntiii
_Z8mem_freePv
