GAS LISTING /tmp/ccQlOd4H.s 			page 1


   1              		.file	"main.cpp"
   2              		.option pic
   3              		.option norelax
   4              		.text
   5              	.Ltext0:
   6              		.align	2
   7              		.globl	main
   9              	main:
  10              	.LFB18:
  11              		.file 1 "src/main.cpp"
   1:src/main.cpp  **** #include "../h/riscv.hpp"
   2:src/main.cpp  **** #include "../h/syscall_c.hpp"
   3:src/main.cpp  **** #include "../h/MemoryAllocator.hpp"
   4:src/main.cpp  **** #include "../lib/console.h"
   5:src/main.cpp  **** #include "../lib/hw.h"
   6:src/main.cpp  **** extern "C" void rutina();
   7:src/main.cpp  **** 
   8:src/main.cpp  **** int main() {
  12              		.loc 1 8 12
  13              		.cfi_startproc
  14 0000 130101FE 		addi	sp,sp,-32
  15              		.cfi_def_cfa_offset 32
  16 0004 233C1100 		sd	ra,24(sp)
  17 0008 23388100 		sd	s0,16(sp)
  18 000c 23349100 		sd	s1,8(sp)
  19              		.cfi_offset 1, -8
  20              		.cfi_offset 8, -16
  21              		.cfi_offset 9, -24
  22 0010 13040102 		addi	s0,sp,32
  23              		.cfi_def_cfa 8, 0
   9:src/main.cpp  ****     MemoryAllocator::init();
  24              		.loc 1 9 5
  25              		.loc 1 9 26 is_stmt 0
  26 0014 97000000 		call	_ZN15MemoryAllocator4initEv@plt
  26      E7800000 
  27              	.LVL0:
  10:src/main.cpp  ****     Riscv::w_stvec((uint64)rutina);// upis adrese prekidne rutine
  28              		.loc 1 10 5 is_stmt 1
  29              		.loc 1 10 19 is_stmt 0
  30 001c 97070000 		la	a5,rutina
  30      83B70700 
  31              	.LVL1:
  32              	.LBB4:
  33              	.LBB5:
  34              		.file 2 "src/../h/riscv.hpp"
   1:src/../h/riscv.hpp **** #ifndef RISCV_HPP
   2:src/../h/riscv.hpp **** #define RISCV_HPP
   3:src/../h/riscv.hpp **** 
   4:src/../h/riscv.hpp **** #include "../lib/hw.h"
   5:src/../h/riscv.hpp **** 
   6:src/../h/riscv.hpp **** class Riscv{
   7:src/../h/riscv.hpp **** 
   8:src/../h/riscv.hpp ****     static void obradaprekida(uint64 code, uint64 arg1, uint64 arg2, uint64 arg3, uint64 arg4);
   9:src/../h/riscv.hpp **** public:
  10:src/../h/riscv.hpp **** 
  11:src/../h/riscv.hpp ****     // pop sstatus.spp and sstatus.spie bits (has to be a non inline function)
  12:src/../h/riscv.hpp ****     static void popSppSpie();
GAS LISTING /tmp/ccQlOd4H.s 			page 2


  13:src/../h/riscv.hpp **** 
  14:src/../h/riscv.hpp ****     // read register scause
  15:src/../h/riscv.hpp ****     static uint64 r_scause();
  16:src/../h/riscv.hpp **** 
  17:src/../h/riscv.hpp ****     // write register scause
  18:src/../h/riscv.hpp ****     static void w_scause(uint64 scause);
  19:src/../h/riscv.hpp **** 
  20:src/../h/riscv.hpp ****     // read register sepc
  21:src/../h/riscv.hpp ****     static uint64 r_sepc();
  22:src/../h/riscv.hpp **** 
  23:src/../h/riscv.hpp ****     // write register sepc
  24:src/../h/riscv.hpp ****     static void w_sepc(uint64 sepc);
  25:src/../h/riscv.hpp **** 
  26:src/../h/riscv.hpp ****     // read register stvec
  27:src/../h/riscv.hpp ****     static uint64 r_stvec();
  28:src/../h/riscv.hpp **** 
  29:src/../h/riscv.hpp ****     // write register stvec
  30:src/../h/riscv.hpp ****     static void w_stvec(uint64 stvec);
  31:src/../h/riscv.hpp **** 
  32:src/../h/riscv.hpp ****     // read register stval
  33:src/../h/riscv.hpp ****     static uint64 r_stval();
  34:src/../h/riscv.hpp **** 
  35:src/../h/riscv.hpp ****     // write register stval
  36:src/../h/riscv.hpp ****     static void w_stval(uint64 stval);
  37:src/../h/riscv.hpp **** 
  38:src/../h/riscv.hpp ****     enum BitMaskSip
  39:src/../h/riscv.hpp ****     {
  40:src/../h/riscv.hpp ****         SIP_SSIE = (1 << 1),
  41:src/../h/riscv.hpp ****         SIP_STIP = (1 << 5),
  42:src/../h/riscv.hpp ****         SIP_SEIP = (1 << 9),
  43:src/../h/riscv.hpp ****     };
  44:src/../h/riscv.hpp **** 
  45:src/../h/riscv.hpp ****     // mask set register sip
  46:src/../h/riscv.hpp ****     static void ms_sip(uint64 mask);
  47:src/../h/riscv.hpp **** 
  48:src/../h/riscv.hpp ****     // mask clear register sip
  49:src/../h/riscv.hpp ****     static void mc_sip(uint64 mask);
  50:src/../h/riscv.hpp **** 
  51:src/../h/riscv.hpp ****     // read register sip
  52:src/../h/riscv.hpp ****     static uint64 r_sip();
  53:src/../h/riscv.hpp **** 
  54:src/../h/riscv.hpp ****     // write register sip
  55:src/../h/riscv.hpp ****     static void w_sip(uint64 sip);
  56:src/../h/riscv.hpp **** 
  57:src/../h/riscv.hpp ****     enum BitMaskSstatus
  58:src/../h/riscv.hpp ****     {
  59:src/../h/riscv.hpp ****         SSTATUS_SIE = (1 << 1),
  60:src/../h/riscv.hpp ****         SSTATUS_SPIE = (1 << 5),
  61:src/../h/riscv.hpp ****         SSTATUS_SPP = (1 << 8),
  62:src/../h/riscv.hpp ****     };
  63:src/../h/riscv.hpp **** 
  64:src/../h/riscv.hpp ****     // mask set register sstatus
  65:src/../h/riscv.hpp ****     static void ms_sstatus(uint64 mask);
  66:src/../h/riscv.hpp **** 
  67:src/../h/riscv.hpp ****     // mask clear register sstatus
  68:src/../h/riscv.hpp ****     static void mc_sstatus(uint64 mask);
  69:src/../h/riscv.hpp **** 
GAS LISTING /tmp/ccQlOd4H.s 			page 3


  70:src/../h/riscv.hpp ****     // read register sstatus
  71:src/../h/riscv.hpp ****     static uint64 r_sstatus();
  72:src/../h/riscv.hpp **** 
  73:src/../h/riscv.hpp ****     // write register sstatus
  74:src/../h/riscv.hpp ****     static void w_sstatus(uint64 sstatus);
  75:src/../h/riscv.hpp **** 
  76:src/../h/riscv.hpp ****     // supervisor trap
  77:src/../h/riscv.hpp ****     static void supervisorTrap();
  78:src/../h/riscv.hpp **** 
  79:src/../h/riscv.hpp ****     //stvec Vector "table"
  80:src/../h/riscv.hpp ****     static void stvecVectorTable();
  81:src/../h/riscv.hpp **** 
  82:src/../h/riscv.hpp ****     //read a0 register
  83:src/../h/riscv.hpp ****     static uint64 r_a0();
  84:src/../h/riscv.hpp **** 
  85:src/../h/riscv.hpp ****     //write to a0 register
  86:src/../h/riscv.hpp ****     static void w_a0(uint64 writeValue);
  87:src/../h/riscv.hpp **** 
  88:src/../h/riscv.hpp **** 
  89:src/../h/riscv.hpp **** private:
  90:src/../h/riscv.hpp **** 
  91:src/../h/riscv.hpp ****     // supervisor trap handler
  92:src/../h/riscv.hpp ****     static void handleSupervisorTrap();
  93:src/../h/riscv.hpp **** 
  94:src/../h/riscv.hpp ****     static void handleTimerInterrupt();
  95:src/../h/riscv.hpp **** 
  96:src/../h/riscv.hpp ****     static void handleConsoleInterrupt();
  97:src/../h/riscv.hpp **** };
  98:src/../h/riscv.hpp **** 
  99:src/../h/riscv.hpp **** 
 100:src/../h/riscv.hpp **** inline uint64 Riscv::r_scause()
 101:src/../h/riscv.hpp **** {
 102:src/../h/riscv.hpp ****     uint64 volatile scause;
 103:src/../h/riscv.hpp ****     __asm__ volatile ("csrr %[scause], scause" : [scause] "=r"(scause));
 104:src/../h/riscv.hpp ****     return scause;
 105:src/../h/riscv.hpp **** }
 106:src/../h/riscv.hpp **** 
 107:src/../h/riscv.hpp **** inline void Riscv::w_scause(uint64 scause)
 108:src/../h/riscv.hpp **** {
 109:src/../h/riscv.hpp ****     __asm__ volatile ("csrw scause, %[scause]" : : [scause] "r"(scause));
 110:src/../h/riscv.hpp **** }
 111:src/../h/riscv.hpp **** 
 112:src/../h/riscv.hpp **** inline uint64 Riscv::r_sepc()
 113:src/../h/riscv.hpp **** {
 114:src/../h/riscv.hpp ****     uint64 volatile sepc;
 115:src/../h/riscv.hpp ****     __asm__ volatile ("csrr %[sepc], sepc" : [sepc] "=r"(sepc));
 116:src/../h/riscv.hpp ****     return sepc;
 117:src/../h/riscv.hpp **** }
 118:src/../h/riscv.hpp **** 
 119:src/../h/riscv.hpp **** inline void Riscv::w_sepc(uint64 sepc)
 120:src/../h/riscv.hpp **** {
 121:src/../h/riscv.hpp ****     __asm__ volatile ("csrw sepc, %[sepc]" : : [sepc] "r"(sepc));
 122:src/../h/riscv.hpp **** }
 123:src/../h/riscv.hpp **** 
 124:src/../h/riscv.hpp **** inline uint64 Riscv::r_stvec()
 125:src/../h/riscv.hpp **** {
 126:src/../h/riscv.hpp ****     uint64 volatile stvec;
GAS LISTING /tmp/ccQlOd4H.s 			page 4


 127:src/../h/riscv.hpp ****     __asm__ volatile ("csrr %[stvec], stvec" : [stvec] "=r"(stvec));
 128:src/../h/riscv.hpp ****     return stvec;
 129:src/../h/riscv.hpp **** }
 130:src/../h/riscv.hpp **** 
 131:src/../h/riscv.hpp **** inline void Riscv::w_stvec(uint64 stvec)
 132:src/../h/riscv.hpp **** {
 133:src/../h/riscv.hpp ****     __asm__ volatile ("csrw stvec, %[stvec]" : : [stvec] "r"(stvec));
  35              		.loc 2 133 5 is_stmt 1
  36              		.loc 2 133 69 is_stmt 0
  37              	#APP
  38              	# 133 "src/../h/riscv.hpp" 1
 134              	}
  39              		csrw stvec, a5
  40              	# 0 "" 2
  41              	.LVL2:
  42              	#NO_APP
  43              	.LBE5:
  44              	.LBE4:
  11:src/main.cpp  **** 
  12:src/main.cpp  ****     int* a = (int*)MemoryAllocator::mem_alloc(20* sizeof(int));
  45              		.loc 1 12 5 is_stmt 1
  46              		.loc 1 12 46 is_stmt 0
  47 0028 13050005 		li	a0,80
  48 002c 97000000 		call	_ZN15MemoryAllocator9mem_allocEm@plt
  48      E7800000 
  49              	.LVL3:
  50 0034 93040500 		mv	s1,a0
  51              	.LVL4:
  13:src/main.cpp  ****     *a='1';
  52              		.loc 1 13 5 is_stmt 1
  53              		.loc 1 13 7 is_stmt 0
  54 0038 93071003 		li	a5,49
  55 003c 2320F500 		sw	a5,0(a0)
  14:src/main.cpp  ****     *(a+1)='2';
  56              		.loc 1 14 5 is_stmt 1
  57              		.loc 1 14 11 is_stmt 0
  58 0040 93072003 		li	a5,50
  59 0044 2322F500 		sw	a5,4(a0)
  15:src/main.cpp  ****     *(a+2)='3';
  60              		.loc 1 15 5 is_stmt 1
  61              		.loc 1 15 11 is_stmt 0
  62 0048 93073003 		li	a5,51
  63 004c 2324F500 		sw	a5,8(a0)
  16:src/main.cpp  ****     *(a+3)='4';
  64              		.loc 1 16 5 is_stmt 1
  65              		.loc 1 16 11 is_stmt 0
  66 0050 93074003 		li	a5,52
  67 0054 2326F500 		sw	a5,12(a0)
  17:src/main.cpp  ****     *(a+4)='5';
  68              		.loc 1 17 5 is_stmt 1
  69              		.loc 1 17 11 is_stmt 0
  70 0058 93075003 		li	a5,53
  71 005c 2328F500 		sw	a5,16(a0)
  18:src/main.cpp  ****     MemoryAllocator::mem_free((a));
  72              		.loc 1 18 5 is_stmt 1
  73              		.loc 1 18 30 is_stmt 0
  74 0060 97000000 		call	_ZN15MemoryAllocator8mem_freeEPv@plt
GAS LISTING /tmp/ccQlOd4H.s 			page 5


  74      E7800000 
  75              	.LVL5:
  19:src/main.cpp  ****     MemoryAllocator::mem_free((a+3));
  76              		.loc 1 19 5 is_stmt 1
  77              		.loc 1 19 30 is_stmt 0
  78 0068 1385C400 		addi	a0,s1,12
  79 006c 97000000 		call	_ZN15MemoryAllocator8mem_freeEPv@plt
  79      E7800000 
  80              	.LVL6:
  20:src/main.cpp  ****    __putc(*a);
  81              		.loc 1 20 4 is_stmt 1
  82              		.loc 1 20 10 is_stmt 0
  83 0074 03C50400 		lbu	a0,0(s1)
  84 0078 97000000 		call	__putc@plt
  84      E7800000 
  85              	.LVL7:
  21:src/main.cpp  ****     __putc(*(a+1));
  86              		.loc 1 21 5 is_stmt 1
  87              		.loc 1 21 11 is_stmt 0
  88 0080 03C54400 		lbu	a0,4(s1)
  89 0084 97000000 		call	__putc@plt
  89      E7800000 
  90              	.LVL8:
  22:src/main.cpp  ****     __putc(*(a+2));
  91              		.loc 1 22 5 is_stmt 1
  92              		.loc 1 22 11 is_stmt 0
  93 008c 03C58400 		lbu	a0,8(s1)
  94 0090 97000000 		call	__putc@plt
  94      E7800000 
  95              	.LVL9:
  23:src/main.cpp  ****     __putc(*(a+3));
  96              		.loc 1 23 5 is_stmt 1
  97              		.loc 1 23 11 is_stmt 0
  98 0098 03C5C400 		lbu	a0,12(s1)
  99 009c 97000000 		call	__putc@plt
  99      E7800000 
 100              	.LVL10:
  24:src/main.cpp  ****     __putc(*(a+4));
 101              		.loc 1 24 5 is_stmt 1
 102              		.loc 1 24 11 is_stmt 0
 103 00a4 03C50401 		lbu	a0,16(s1)
 104 00a8 97000000 		call	__putc@plt
 104      E7800000 
 105              	.LVL11:
  25:src/main.cpp  ****     __putc(*(a+5));
 106              		.loc 1 25 5 is_stmt 1
 107              		.loc 1 25 11 is_stmt 0
 108 00b0 03C54401 		lbu	a0,20(s1)
 109 00b4 97000000 		call	__putc@plt
 109      E7800000 
 110              	.LVL12:
  26:src/main.cpp  ****     __putc(*(a+6));
 111              		.loc 1 26 5 is_stmt 1
 112              		.loc 1 26 11 is_stmt 0
 113 00bc 03C58401 		lbu	a0,24(s1)
 114 00c0 97000000 		call	__putc@plt
 114      E7800000 
GAS LISTING /tmp/ccQlOd4H.s 			page 6


 115              	.LVL13:
  27:src/main.cpp  **** 
  28:src/main.cpp  **** 
  29:src/main.cpp  ****     return 0;
 116              		.loc 1 29 5 is_stmt 1
  30:src/main.cpp  **** }
 117              		.loc 1 30 1 is_stmt 0
 118 00c8 13050000 		li	a0,0
 119 00cc 83308101 		ld	ra,24(sp)
 120              		.cfi_restore 1
 121 00d0 03340101 		ld	s0,16(sp)
 122              		.cfi_restore 8
 123              		.cfi_def_cfa 2, 32
 124 00d4 83348100 		ld	s1,8(sp)
 125              		.cfi_restore 9
 126              	.LVL14:
 127 00d8 13010102 		addi	sp,sp,32
 128              		.cfi_def_cfa_offset 0
 129 00dc 67800000 		jr	ra
 130              		.cfi_endproc
 131              	.LFE18:
 133              	.Letext0:
 134              		.file 3 "src/../h/../lib/hw.h"
 135              		.file 4 "src/../h/MemoryAllocator.hpp"
 136              		.file 5 "src/../lib/console.h"
GAS LISTING /tmp/ccQlOd4H.s 			page 7


DEFINED SYMBOLS
                            *ABS*:0000000000000000 main.cpp
     /tmp/ccQlOd4H.s:9      .text:0000000000000000 main
     /tmp/ccQlOd4H.s:13     .text:0000000000000000 .L0 
     /tmp/ccQlOd4H.s:14     .text:0000000000000000 .L0 
     /tmp/ccQlOd4H.s:15     .text:0000000000000004 .L0 
     /tmp/ccQlOd4H.s:19     .text:0000000000000010 .L0 
     /tmp/ccQlOd4H.s:20     .text:0000000000000010 .L0 
     /tmp/ccQlOd4H.s:21     .text:0000000000000010 .L0 
     /tmp/ccQlOd4H.s:23     .text:0000000000000014 .L0 
     /tmp/ccQlOd4H.s:25     .text:0000000000000014 .L0 
     /tmp/ccQlOd4H.s:26     .text:0000000000000014 .L0 
     /tmp/ccQlOd4H.s:29     .text:000000000000001c .L0 
     /tmp/ccQlOd4H.s:30     .text:000000000000001c .L0 
     /tmp/ccQlOd4H.s:36     .text:0000000000000024 .L0 
  src/../h/riscv.hpp:133    .text:0000000000000024 .L0 
     /tmp/ccQlOd4H.s:46     .text:0000000000000028 .L0 
     /tmp/ccQlOd4H.s:47     .text:0000000000000028 .L0 
     /tmp/ccQlOd4H.s:53     .text:0000000000000038 .L0 
     /tmp/ccQlOd4H.s:54     .text:0000000000000038 .L0 
     /tmp/ccQlOd4H.s:57     .text:0000000000000040 .L0 
     /tmp/ccQlOd4H.s:58     .text:0000000000000040 .L0 
     /tmp/ccQlOd4H.s:61     .text:0000000000000048 .L0 
     /tmp/ccQlOd4H.s:62     .text:0000000000000048 .L0 
     /tmp/ccQlOd4H.s:65     .text:0000000000000050 .L0 
     /tmp/ccQlOd4H.s:66     .text:0000000000000050 .L0 
     /tmp/ccQlOd4H.s:69     .text:0000000000000058 .L0 
     /tmp/ccQlOd4H.s:70     .text:0000000000000058 .L0 
     /tmp/ccQlOd4H.s:73     .text:0000000000000060 .L0 
     /tmp/ccQlOd4H.s:74     .text:0000000000000060 .L0 
     /tmp/ccQlOd4H.s:77     .text:0000000000000068 .L0 
     /tmp/ccQlOd4H.s:78     .text:0000000000000068 .L0 
     /tmp/ccQlOd4H.s:82     .text:0000000000000074 .L0 
     /tmp/ccQlOd4H.s:83     .text:0000000000000074 .L0 
     /tmp/ccQlOd4H.s:87     .text:0000000000000080 .L0 
     /tmp/ccQlOd4H.s:88     .text:0000000000000080 .L0 
     /tmp/ccQlOd4H.s:92     .text:000000000000008c .L0 
     /tmp/ccQlOd4H.s:93     .text:000000000000008c .L0 
     /tmp/ccQlOd4H.s:97     .text:0000000000000098 .L0 
     /tmp/ccQlOd4H.s:98     .text:0000000000000098 .L0 
     /tmp/ccQlOd4H.s:102    .text:00000000000000a4 .L0 
     /tmp/ccQlOd4H.s:103    .text:00000000000000a4 .L0 
     /tmp/ccQlOd4H.s:107    .text:00000000000000b0 .L0 
     /tmp/ccQlOd4H.s:108    .text:00000000000000b0 .L0 
     /tmp/ccQlOd4H.s:112    .text:00000000000000bc .L0 
     /tmp/ccQlOd4H.s:113    .text:00000000000000bc .L0 
     /tmp/ccQlOd4H.s:117    .text:00000000000000c8 .L0 
     /tmp/ccQlOd4H.s:118    .text:00000000000000c8 .L0 
     /tmp/ccQlOd4H.s:120    .text:00000000000000d0 .L0 
     /tmp/ccQlOd4H.s:122    .text:00000000000000d4 .L0 
     /tmp/ccQlOd4H.s:123    .text:00000000000000d4 .L0 
     /tmp/ccQlOd4H.s:125    .text:00000000000000d8 .L0 
     /tmp/ccQlOd4H.s:128    .text:00000000000000dc .L0 
     /tmp/ccQlOd4H.s:130    .text:00000000000000e0 .L0 
     /tmp/ccQlOd4H.s:137    .text:00000000000000e0 .L0 
     /tmp/ccQlOd4H.s:30     .text:000000000000001c .L0 
     /tmp/ccQlOd4H.s:724    .debug_abbrev:0000000000000000 .Ldebug_abbrev0
GAS LISTING /tmp/ccQlOd4H.s 			page 8


     /tmp/ccQlOd4H.s:1419   .debug_str:00000000000004a3 .LASF83
     /tmp/ccQlOd4H.s:1341   .debug_str:0000000000000249 .LASF84
     /tmp/ccQlOd4H.s:1333   .debug_str:00000000000001ee .LASF85
     /tmp/ccQlOd4H.s:5      .text:0000000000000000 .Ltext0
     /tmp/ccQlOd4H.s:133    .text:00000000000000e0 .Letext0
     /tmp/ccQlOd4H.s:1263   .debug_line:0000000000000000 .Ldebug_line0
     /tmp/ccQlOd4H.s:1361   .debug_str:00000000000002e8 .LASF0
     /tmp/ccQlOd4H.s:1367   .debug_str:0000000000000302 .LASF1
     /tmp/ccQlOd4H.s:1347   .debug_str:0000000000000285 .LASF2
     /tmp/ccQlOd4H.s:1395   .debug_str:00000000000003e7 .LASF3
     /tmp/ccQlOd4H.s:1335   .debug_str:0000000000000215 .LASF4
     /tmp/ccQlOd4H.s:1399   .debug_str:0000000000000406 .LASF5
     /tmp/ccQlOd4H.s:1279   .debug_str:0000000000000060 .LASF6
     /tmp/ccQlOd4H.s:1371   .debug_str:000000000000032a .LASF7
     /tmp/ccQlOd4H.s:1359   .debug_str:00000000000002d5 .LASF8
     /tmp/ccQlOd4H.s:1425   .debug_str:0000000000000594 .LASF9
     /tmp/ccQlOd4H.s:1325   .debug_str:00000000000001a0 .LASF10
     /tmp/ccQlOd4H.s:1379   .debug_str:0000000000000369 .LASF11
     /tmp/ccQlOd4H.s:1421   .debug_str:0000000000000567 .LASF12
     /tmp/ccQlOd4H.s:1283   .debug_str:000000000000006c .LASF13
     /tmp/ccQlOd4H.s:1267   .debug_str:0000000000000008 .LASF14
     /tmp/ccQlOd4H.s:1293   .debug_str:00000000000000bc .LASF15
     /tmp/ccQlOd4H.s:1393   .debug_str:00000000000003d1 .LASF16
     /tmp/ccQlOd4H.s:1297   .debug_str:00000000000000ce .LASF17
     /tmp/ccQlOd4H.s:1365   .debug_str:00000000000002fc .LASF71
     /tmp/ccQlOd4H.s:1271   .debug_str:0000000000000021 .LASF79
     /tmp/ccQlOd4H.s:1343   .debug_str:0000000000000256 .LASF81
     /tmp/ccQlOd4H.s:1389   .debug_str:00000000000003bf .LASF50
     /tmp/ccQlOd4H.s:1439   .debug_str:0000000000000601 .LASF52
     /tmp/ccQlOd4H.s:1269   .debug_str:0000000000000018 .LASF18
     /tmp/ccQlOd4H.s:1407   .debug_str:0000000000000445 .LASF20
     /tmp/ccQlOd4H.s:1307   .debug_str:0000000000000123 .LASF22
     /tmp/ccQlOd4H.s:1305   .debug_str:000000000000010e .LASF24
     /tmp/ccQlOd4H.s:1401   .debug_str:0000000000000418 .LASF19
     /tmp/ccQlOd4H.s:1383   .debug_str:0000000000000381 .LASF21
     /tmp/ccQlOd4H.s:1417   .debug_str:000000000000049c .LASF23
     /tmp/ccQlOd4H.s:1411   .debug_str:0000000000000472 .LASF25
     /tmp/ccQlOd4H.s:1319   .debug_str:0000000000000171 .LASF26
     /tmp/ccQlOd4H.s:1299   .debug_str:00000000000000e4 .LASF27
     /tmp/ccQlOd4H.s:1265   .debug_str:0000000000000000 .LASF28
     /tmp/ccQlOd4H.s:1329   .debug_str:00000000000001c4 .LASF29
     /tmp/ccQlOd4H.s:1311   .debug_str:000000000000013d .LASF30
     /tmp/ccQlOd4H.s:1285   .debug_str:000000000000007c .LASF31
     /tmp/ccQlOd4H.s:1443   .debug_str:0000000000000624 .LASF32
     /tmp/ccQlOd4H.s:1313   .debug_str:0000000000000145 .LASF33
     /tmp/ccQlOd4H.s:1363   .debug_str:00000000000002f5 .LASF34
     /tmp/ccQlOd4H.s:1435   .debug_str:00000000000005e9 .LASF35
     /tmp/ccQlOd4H.s:1277   .debug_str:0000000000000059 .LASF36
     /tmp/ccQlOd4H.s:1317   .debug_str:000000000000015e .LASF37
     /tmp/ccQlOd4H.s:1321   .debug_str:0000000000000179 .LASF38
     /tmp/ccQlOd4H.s:1415   .debug_str:000000000000048a .LASF39
     /tmp/ccQlOd4H.s:1275   .debug_str:0000000000000053 .LASF40
     /tmp/ccQlOd4H.s:1445   .debug_str:000000000000062c .LASF41
     /tmp/ccQlOd4H.s:1441   .debug_str:0000000000000619 .LASF42
     /tmp/ccQlOd4H.s:1397   .debug_str:00000000000003ee .LASF43
     /tmp/ccQlOd4H.s:1337   .debug_str:000000000000021c .LASF44
     /tmp/ccQlOd4H.s:1409   .debug_str:000000000000045a .LASF45
GAS LISTING /tmp/ccQlOd4H.s 			page 9


     /tmp/ccQlOd4H.s:1291   .debug_str:00000000000000b2 .LASF46
     /tmp/ccQlOd4H.s:1331   .debug_str:00000000000001d8 .LASF47
     /tmp/ccQlOd4H.s:1349   .debug_str:0000000000000293 .LASF48
     /tmp/ccQlOd4H.s:1327   .debug_str:00000000000001ae .LASF49
     /tmp/ccQlOd4H.s:1403   .debug_str:000000000000041f .LASF51
     /tmp/ccQlOd4H.s:1287   .debug_str:0000000000000090 .LASF53
     /tmp/ccQlOd4H.s:1303   .debug_str:00000000000000fd .LASF54
     /tmp/ccQlOd4H.s:1423   .debug_str:0000000000000576 .LASF55
     /tmp/ccQlOd4H.s:1413   .debug_str:0000000000000485 .LASF56
     /tmp/ccQlOd4H.s:1309   .debug_str:000000000000012c .LASF57
     /tmp/ccQlOd4H.s:1281   .debug_str:0000000000000067 .LASF58
     /tmp/ccQlOd4H.s:1351   .debug_str:000000000000029d .LASF59
     /tmp/ccQlOd4H.s:1429   .debug_str:00000000000005ae .LASF60
     /tmp/ccQlOd4H.s:1339   .debug_str:0000000000000227 .LASF62
     /tmp/ccQlOd4H.s:1369   .debug_str:0000000000000315 .LASF61
     /tmp/ccQlOd4H.s:1375   .debug_str:0000000000000342 .LASF63
     /tmp/ccQlOd4H.s:1405   .debug_str:000000000000042e .LASF64
     /tmp/ccQlOd4H.s:1273   .debug_str:000000000000002f .LASF65
     /tmp/ccQlOd4H.s:1295   .debug_str:00000000000000c8 .LASF86
     /tmp/ccQlOd4H.s:1353   .debug_str:00000000000002ae .LASF66
     /tmp/ccQlOd4H.s:1433   .debug_str:00000000000005e4 .LASF67
     /tmp/ccQlOd4H.s:1387   .debug_str:00000000000003ba .LASF68
     /tmp/ccQlOd4H.s:1437   .debug_str:00000000000005fc .LASF69
     /tmp/ccQlOd4H.s:1315   .debug_str:0000000000000159 .LASF70
     /tmp/ccQlOd4H.s:1345   .debug_str:0000000000000275 .LASF72
     /tmp/ccQlOd4H.s:1301   .debug_str:00000000000000f8 .LASF87
     /tmp/ccQlOd4H.s:1373   .debug_str:000000000000033d .LASF73
     /tmp/ccQlOd4H.s:1355   .debug_str:00000000000002b3 .LASF74
     /tmp/ccQlOd4H.s:1427   .debug_str:00000000000005a4 .LASF75
     /tmp/ccQlOd4H.s:1431   .debug_str:00000000000005c3 .LASF77
     /tmp/ccQlOd4H.s:1381   .debug_str:0000000000000378 .LASF76
     /tmp/ccQlOd4H.s:1323   .debug_str:000000000000017f .LASF78
     /tmp/ccQlOd4H.s:1289   .debug_str:00000000000000ac .LASF80
     /tmp/ccQlOd4H.s:1385   .debug_str:0000000000000394 .LASF82
     /tmp/ccQlOd4H.s:1377   .debug_str:0000000000000364 .LASF88
     /tmp/ccQlOd4H.s:10     .text:0000000000000000 .LFB18
     /tmp/ccQlOd4H.s:131    .text:00000000000000e0 .LFE18
     /tmp/ccQlOd4H.s:1243   .debug_loc:0000000000000000 .LLST0
     /tmp/ccQlOd4H.s:32     .text:0000000000000024 .LBB4
     /tmp/ccQlOd4H.s:44     .text:0000000000000028 .LBE4
     /tmp/ccQlOd4H.s:27     .text:000000000000001c .LVL0
     /tmp/ccQlOd4H.s:49     .text:0000000000000034 .LVL3
     /tmp/ccQlOd4H.s:75     .text:0000000000000068 .LVL5
     /tmp/ccQlOd4H.s:80     .text:0000000000000074 .LVL6
     /tmp/ccQlOd4H.s:85     .text:0000000000000080 .LVL7
     /tmp/ccQlOd4H.s:90     .text:000000000000008c .LVL8
     /tmp/ccQlOd4H.s:95     .text:0000000000000098 .LVL9
     /tmp/ccQlOd4H.s:100    .text:00000000000000a4 .LVL10
     /tmp/ccQlOd4H.s:105    .text:00000000000000b0 .LVL11
     /tmp/ccQlOd4H.s:110    .text:00000000000000bc .LVL12
     /tmp/ccQlOd4H.s:115    .text:00000000000000c8 .LVL13
     /tmp/ccQlOd4H.s:1357   .debug_str:00000000000002cf .LASF89
     /tmp/ccQlOd4H.s:1391   .debug_str:00000000000003ca .LASF90
     /tmp/ccQlOd4H.s:51     .text:0000000000000038 .LVL4
     /tmp/ccQlOd4H.s:126    .text:00000000000000d8 .LVL14
     /tmp/ccQlOd4H.s:138    .debug_info:0000000000000000 .Ldebug_info0

GAS LISTING /tmp/ccQlOd4H.s 			page 10


UNDEFINED SYMBOLS
_ZN15MemoryAllocator4initEv
rutina
_ZN15MemoryAllocator9mem_allocEm
_ZN15MemoryAllocator8mem_freeEPv
__putc
