GAS LISTING /tmp/ccWGHpq4.s 			page 1


   1              		.file	"main.cpp"
   2              		.option pic
   3              		.option norelax
   4              		.text
   5              	.Ltext0:
   6              		.section	.rodata.str1.8,"aMS",@progbits,1
   7              		.align	3
   8              	.LC0:
   9 0000 0A00     		.string	"\n"
  10              		.text
  11              		.align	2
  12              		.globl	main
  14              	main:
  15              	.LFB18:
  16              		.file 1 "src/main.cpp"
   1:src/main.cpp  **** #include "../h/riscv.hpp"
   2:src/main.cpp  **** #include "../h/syscall_c.hpp"
   3:src/main.cpp  **** #include "../h/MemoryAllocator.hpp"
   4:src/main.cpp  **** #include "../lib/console.h"
   5:src/main.cpp  **** #include "../lib/hw.h"
   6:src/main.cpp  **** #include "../tests/printing.hpp"
   7:src/main.cpp  **** 
   8:src/main.cpp  **** extern "C" void rutina();
   9:src/main.cpp  **** 
  10:src/main.cpp  **** int main() {
  17              		.loc 1 10 12
  18              		.cfi_startproc
  19 0000 130101FD 		addi	sp,sp,-48
  20              		.cfi_def_cfa_offset 48
  21 0004 23341102 		sd	ra,40(sp)
  22 0008 23308102 		sd	s0,32(sp)
  23 000c 233C9100 		sd	s1,24(sp)
  24 0010 23382101 		sd	s2,16(sp)
  25 0014 23343101 		sd	s3,8(sp)
  26              		.cfi_offset 1, -8
  27              		.cfi_offset 8, -16
  28              		.cfi_offset 9, -24
  29              		.cfi_offset 18, -32
  30              		.cfi_offset 19, -40
  31 0018 13040103 		addi	s0,sp,48
  32              		.cfi_def_cfa 8, 0
  11:src/main.cpp  ****     MemoryAllocator::init();
  33              		.loc 1 11 5
  34              		.loc 1 11 26 is_stmt 0
  35 001c 97000000 		call	_ZN15MemoryAllocator4initEv@plt
  35      E7800000 
  36              	.LVL0:
  12:src/main.cpp  ****     Riscv::w_stvec((uint64)rutina);// upis adrese prekidne rutine
  37              		.loc 1 12 5 is_stmt 1
  38              		.loc 1 12 19 is_stmt 0
  39 0024 97070000 		la	a5,rutina
  39      83B70700 
  40              	.LVL1:
  41              	.LBB4:
  42              	.LBB5:
  43              		.file 2 "src/../h/riscv.hpp"
   1:src/../h/riscv.hpp **** #ifndef RISCV_HPP
GAS LISTING /tmp/ccWGHpq4.s 			page 2


   2:src/../h/riscv.hpp **** #define RISCV_HPP
   3:src/../h/riscv.hpp **** 
   4:src/../h/riscv.hpp **** #include "../lib/hw.h"
   5:src/../h/riscv.hpp **** 
   6:src/../h/riscv.hpp **** class Riscv{
   7:src/../h/riscv.hpp **** 
   8:src/../h/riscv.hpp ****     static void obradaprekida(uint64 code, uint64 arg1, uint64 arg2, uint64 arg3, uint64 arg4);
   9:src/../h/riscv.hpp **** public:
  10:src/../h/riscv.hpp **** 
  11:src/../h/riscv.hpp ****     // pop sstatus.spp and sstatus.spie bits (has to be a non inline function)
  12:src/../h/riscv.hpp ****     static void popSppSpie();
  13:src/../h/riscv.hpp **** 
  14:src/../h/riscv.hpp ****     // read register scause
  15:src/../h/riscv.hpp ****     static uint64 r_scause();
  16:src/../h/riscv.hpp **** 
  17:src/../h/riscv.hpp ****     // write register scause
  18:src/../h/riscv.hpp ****     static void w_scause(uint64 scause);
  19:src/../h/riscv.hpp **** 
  20:src/../h/riscv.hpp ****     // read register sepc
  21:src/../h/riscv.hpp ****     static uint64 r_sepc();
  22:src/../h/riscv.hpp **** 
  23:src/../h/riscv.hpp ****     // write register sepc
  24:src/../h/riscv.hpp ****     static void w_sepc(uint64 sepc);
  25:src/../h/riscv.hpp **** 
  26:src/../h/riscv.hpp ****     // read register stvec
  27:src/../h/riscv.hpp ****     static uint64 r_stvec();
  28:src/../h/riscv.hpp **** 
  29:src/../h/riscv.hpp ****     // write register stvec
  30:src/../h/riscv.hpp ****     static void w_stvec(uint64 stvec);
  31:src/../h/riscv.hpp **** 
  32:src/../h/riscv.hpp ****     // read register stval
  33:src/../h/riscv.hpp ****     static uint64 r_stval();
  34:src/../h/riscv.hpp **** 
  35:src/../h/riscv.hpp ****     // write register stval
  36:src/../h/riscv.hpp ****     static void w_stval(uint64 stval);
  37:src/../h/riscv.hpp **** 
  38:src/../h/riscv.hpp ****     enum BitMaskSip
  39:src/../h/riscv.hpp ****     {
  40:src/../h/riscv.hpp ****         SIP_SSIE = (1 << 1),
  41:src/../h/riscv.hpp ****         SIP_STIP = (1 << 5),
  42:src/../h/riscv.hpp ****         SIP_SEIP = (1 << 9),
  43:src/../h/riscv.hpp ****     };
  44:src/../h/riscv.hpp **** 
  45:src/../h/riscv.hpp ****     // mask set register sip
  46:src/../h/riscv.hpp ****     static void ms_sip(uint64 mask);
  47:src/../h/riscv.hpp **** 
  48:src/../h/riscv.hpp ****     // mask clear register sip
  49:src/../h/riscv.hpp ****     static void mc_sip(uint64 mask);
  50:src/../h/riscv.hpp **** 
  51:src/../h/riscv.hpp ****     // read register sip
  52:src/../h/riscv.hpp ****     static uint64 r_sip();
  53:src/../h/riscv.hpp **** 
  54:src/../h/riscv.hpp ****     // write register sip
  55:src/../h/riscv.hpp ****     static void w_sip(uint64 sip);
  56:src/../h/riscv.hpp **** 
  57:src/../h/riscv.hpp ****     enum BitMaskSstatus
  58:src/../h/riscv.hpp ****     {
GAS LISTING /tmp/ccWGHpq4.s 			page 3


  59:src/../h/riscv.hpp ****         SSTATUS_SIE = (1 << 1),
  60:src/../h/riscv.hpp ****         SSTATUS_SPIE = (1 << 5),
  61:src/../h/riscv.hpp ****         SSTATUS_SPP = (1 << 8),
  62:src/../h/riscv.hpp ****     };
  63:src/../h/riscv.hpp **** 
  64:src/../h/riscv.hpp ****     // mask set register sstatus
  65:src/../h/riscv.hpp ****     static void ms_sstatus(uint64 mask);
  66:src/../h/riscv.hpp **** 
  67:src/../h/riscv.hpp ****     // mask clear register sstatus
  68:src/../h/riscv.hpp ****     static void mc_sstatus(uint64 mask);
  69:src/../h/riscv.hpp **** 
  70:src/../h/riscv.hpp ****     // read register sstatus
  71:src/../h/riscv.hpp ****     static uint64 r_sstatus();
  72:src/../h/riscv.hpp **** 
  73:src/../h/riscv.hpp ****     // write register sstatus
  74:src/../h/riscv.hpp ****     static void w_sstatus(uint64 sstatus);
  75:src/../h/riscv.hpp **** 
  76:src/../h/riscv.hpp ****     // supervisor trap
  77:src/../h/riscv.hpp ****     static void supervisorTrap();
  78:src/../h/riscv.hpp **** 
  79:src/../h/riscv.hpp ****     //stvec Vector "table"
  80:src/../h/riscv.hpp ****     static void stvecVectorTable();
  81:src/../h/riscv.hpp **** 
  82:src/../h/riscv.hpp ****     //read a0 register
  83:src/../h/riscv.hpp ****     static uint64 r_a0();
  84:src/../h/riscv.hpp **** 
  85:src/../h/riscv.hpp ****     //write to a0 register
  86:src/../h/riscv.hpp ****     static void w_a0(uint64 writeValue);
  87:src/../h/riscv.hpp **** 
  88:src/../h/riscv.hpp **** 
  89:src/../h/riscv.hpp **** private:
  90:src/../h/riscv.hpp **** 
  91:src/../h/riscv.hpp ****     // supervisor trap handler
  92:src/../h/riscv.hpp ****     static void handleSupervisorTrap();
  93:src/../h/riscv.hpp **** 
  94:src/../h/riscv.hpp ****     static void handleTimerInterrupt();
  95:src/../h/riscv.hpp **** 
  96:src/../h/riscv.hpp ****     static void handleConsoleInterrupt();
  97:src/../h/riscv.hpp **** };
  98:src/../h/riscv.hpp **** 
  99:src/../h/riscv.hpp **** 
 100:src/../h/riscv.hpp **** inline uint64 Riscv::r_scause()
 101:src/../h/riscv.hpp **** {
 102:src/../h/riscv.hpp ****     uint64 volatile scause;
 103:src/../h/riscv.hpp ****     __asm__ volatile ("csrr %[scause], scause" : [scause] "=r"(scause));
 104:src/../h/riscv.hpp ****     return scause;
 105:src/../h/riscv.hpp **** }
 106:src/../h/riscv.hpp **** 
 107:src/../h/riscv.hpp **** inline void Riscv::w_scause(uint64 scause)
 108:src/../h/riscv.hpp **** {
 109:src/../h/riscv.hpp ****     __asm__ volatile ("csrw scause, %[scause]" : : [scause] "r"(scause));
 110:src/../h/riscv.hpp **** }
 111:src/../h/riscv.hpp **** 
 112:src/../h/riscv.hpp **** inline uint64 Riscv::r_sepc()
 113:src/../h/riscv.hpp **** {
 114:src/../h/riscv.hpp ****     uint64 volatile sepc;
 115:src/../h/riscv.hpp ****     __asm__ volatile ("csrr %[sepc], sepc" : [sepc] "=r"(sepc));
GAS LISTING /tmp/ccWGHpq4.s 			page 4


 116:src/../h/riscv.hpp ****     return sepc;
 117:src/../h/riscv.hpp **** }
 118:src/../h/riscv.hpp **** 
 119:src/../h/riscv.hpp **** inline void Riscv::w_sepc(uint64 sepc)
 120:src/../h/riscv.hpp **** {
 121:src/../h/riscv.hpp ****     __asm__ volatile ("csrw sepc, %[sepc]" : : [sepc] "r"(sepc));
 122:src/../h/riscv.hpp **** }
 123:src/../h/riscv.hpp **** 
 124:src/../h/riscv.hpp **** inline uint64 Riscv::r_stvec()
 125:src/../h/riscv.hpp **** {
 126:src/../h/riscv.hpp ****     uint64 volatile stvec;
 127:src/../h/riscv.hpp ****     __asm__ volatile ("csrr %[stvec], stvec" : [stvec] "=r"(stvec));
 128:src/../h/riscv.hpp ****     return stvec;
 129:src/../h/riscv.hpp **** }
 130:src/../h/riscv.hpp **** 
 131:src/../h/riscv.hpp **** inline void Riscv::w_stvec(uint64 stvec)
 132:src/../h/riscv.hpp **** {
 133:src/../h/riscv.hpp ****     __asm__ volatile ("csrw stvec, %[stvec]" : : [stvec] "r"(stvec));
  44              		.loc 2 133 5 is_stmt 1
  45              		.loc 2 133 69 is_stmt 0
  46              	#APP
  47              	# 133 "src/../h/riscv.hpp" 1
 134              	}
  48              		csrw stvec, a5
  49              	# 0 "" 2
  50              	.LVL2:
  51              	#NO_APP
  52              	.LBE5:
  53              	.LBE4:
  13:src/main.cpp  **** 
  14:src/main.cpp  ****     MemoryAllocator::print();
  54              		.loc 1 14 5 is_stmt 1
  55              		.loc 1 14 27 is_stmt 0
  56 0030 97000000 		call	_ZN15MemoryAllocator5printEv@plt
  56      E7800000 
  57              	.LVL3:
  15:src/main.cpp  ****     int *a = (int*) mem_alloc(10);
  58              		.loc 1 15 5 is_stmt 1
  59              		.loc 1 15 30 is_stmt 0
  60 0038 1305A000 		li	a0,10
  61 003c 97000000 		call	_Z9mem_allocm@plt
  61      E7800000 
  62              	.LVL4:
  63 0044 93040500 		mv	s1,a0
  64              	.LVL5:
  16:src/main.cpp  ****     int *b = (int*) mem_alloc(10);
  65              		.loc 1 16 5 is_stmt 1
  66              		.loc 1 16 30 is_stmt 0
  67 0048 1305A000 		li	a0,10
  68 004c 97000000 		call	_Z9mem_allocm@plt
  68      E7800000 
  69              	.LVL6:
  70 0054 13090500 		mv	s2,a0
  71              	.LVL7:
  17:src/main.cpp  ****     int *c = (int*) mem_alloc(10);
  72              		.loc 1 17 5 is_stmt 1
  73              		.loc 1 17 30 is_stmt 0
GAS LISTING /tmp/ccWGHpq4.s 			page 5


  74 0058 1305A000 		li	a0,10
  75              	.LVL8:
  76 005c 97000000 		call	_Z9mem_allocm@plt
  76      E7800000 
  77              	.LVL9:
  78 0064 93090500 		mv	s3,a0
  79              	.LVL10:
  18:src/main.cpp  ****     printInt((uint64)a);
  80              		.loc 1 18 5 is_stmt 1
  81              		.loc 1 18 13 is_stmt 0
  82 0068 13060000 		li	a2,0
  83 006c 9305A000 		li	a1,10
  84 0070 1B850400 		sext.w	a0,s1
  85              	.LVL11:
  86 0074 97000000 		call	_Z8printIntiii@plt
  86      E7800000 
  87              	.LVL12:
  19:src/main.cpp  ****     printString("\n");
  88              		.loc 1 19 5 is_stmt 1
  89              		.loc 1 19 16 is_stmt 0
  90 007c 17050000 		lla	a0,.LC0
  90      13050500 
  91 0084 97000000 		call	_Z11printStringPKc@plt
  91      E7800000 
  92              	.LVL13:
  20:src/main.cpp  ****     printInt((uint64)b);
  93              		.loc 1 20 5 is_stmt 1
  94              		.loc 1 20 13 is_stmt 0
  95 008c 13060000 		li	a2,0
  96 0090 9305A000 		li	a1,10
  97 0094 1B050900 		sext.w	a0,s2
  98 0098 97000000 		call	_Z8printIntiii@plt
  98      E7800000 
  99              	.LVL14:
  21:src/main.cpp  ****     printString("\n");
 100              		.loc 1 21 5 is_stmt 1
 101              		.loc 1 21 16 is_stmt 0
 102 00a0 17050000 		lla	a0,.LC0
 102      13050500 
 103 00a8 97000000 		call	_Z11printStringPKc@plt
 103      E7800000 
 104              	.LVL15:
  22:src/main.cpp  ****     printInt((uint64)c);
 105              		.loc 1 22 5 is_stmt 1
 106              		.loc 1 22 13 is_stmt 0
 107 00b0 13060000 		li	a2,0
 108 00b4 9305A000 		li	a1,10
 109 00b8 1B850900 		sext.w	a0,s3
 110 00bc 97000000 		call	_Z8printIntiii@plt
 110      E7800000 
 111              	.LVL16:
  23:src/main.cpp  ****     printString("\n");
 112              		.loc 1 23 5 is_stmt 1
 113              		.loc 1 23 16 is_stmt 0
 114 00c4 17050000 		lla	a0,.LC0
 114      13050500 
 115 00cc 97000000 		call	_Z11printStringPKc@plt
GAS LISTING /tmp/ccWGHpq4.s 			page 6


 115      E7800000 
 116              	.LVL17:
  24:src/main.cpp  ****     MemoryAllocator::print();
 117              		.loc 1 24 5 is_stmt 1
 118              		.loc 1 24 27 is_stmt 0
 119 00d4 97000000 		call	_ZN15MemoryAllocator5printEv@plt
 119      E7800000 
 120              	.LVL18:
  25:src/main.cpp  ****     mem_free(c);
 121              		.loc 1 25 5 is_stmt 1
 122              		.loc 1 25 13 is_stmt 0
 123 00dc 13850900 		mv	a0,s3
 124 00e0 97000000 		call	_Z8mem_freePv@plt
 124      E7800000 
 125              	.LVL19:
  26:src/main.cpp  ****     MemoryAllocator::print();
 126              		.loc 1 26 5 is_stmt 1
 127              		.loc 1 26 27 is_stmt 0
 128 00e8 97000000 		call	_ZN15MemoryAllocator5printEv@plt
 128      E7800000 
 129              	.LVL20:
  27:src/main.cpp  ****     mem_free(b);
 130              		.loc 1 27 5 is_stmt 1
 131              		.loc 1 27 13 is_stmt 0
 132 00f0 13050900 		mv	a0,s2
 133 00f4 97000000 		call	_Z8mem_freePv@plt
 133      E7800000 
 134              	.LVL21:
  28:src/main.cpp  ****     MemoryAllocator::print();
 135              		.loc 1 28 5 is_stmt 1
 136              		.loc 1 28 27 is_stmt 0
 137 00fc 97000000 		call	_ZN15MemoryAllocator5printEv@plt
 137      E7800000 
 138              	.LVL22:
  29:src/main.cpp  ****     mem_free(a);
 139              		.loc 1 29 5 is_stmt 1
 140              		.loc 1 29 13 is_stmt 0
 141 0104 13850400 		mv	a0,s1
 142 0108 97000000 		call	_Z8mem_freePv@plt
 142      E7800000 
 143              	.LVL23:
  30:src/main.cpp  ****     MemoryAllocator::print();
 144              		.loc 1 30 5 is_stmt 1
 145              		.loc 1 30 27 is_stmt 0
 146 0110 97000000 		call	_ZN15MemoryAllocator5printEv@plt
 146      E7800000 
 147              	.LVL24:
  31:src/main.cpp  ****     return 0;
 148              		.loc 1 31 5 is_stmt 1
  32:src/main.cpp  **** }
 149              		.loc 1 32 1 is_stmt 0
 150 0118 13050000 		li	a0,0
 151 011c 83308102 		ld	ra,40(sp)
 152              		.cfi_restore 1
 153 0120 03340102 		ld	s0,32(sp)
 154              		.cfi_restore 8
 155              		.cfi_def_cfa 2, 48
GAS LISTING /tmp/ccWGHpq4.s 			page 7


 156 0124 83348101 		ld	s1,24(sp)
 157              		.cfi_restore 9
 158              	.LVL25:
 159 0128 03390101 		ld	s2,16(sp)
 160              		.cfi_restore 18
 161              	.LVL26:
 162 012c 83398100 		ld	s3,8(sp)
 163              		.cfi_restore 19
 164              	.LVL27:
 165 0130 13010103 		addi	sp,sp,48
 166              		.cfi_def_cfa_offset 0
 167 0134 67800000 		jr	ra
 168              		.cfi_endproc
 169              	.LFE18:
 171              	.Letext0:
 172              		.file 3 "src/../h/../lib/hw.h"
 173              		.file 4 "src/../h/MemoryAllocator.hpp"
 174              		.file 5 "src/../h/syscall_c.hpp"
 175              		.file 6 "src/../tests/printing.hpp"
GAS LISTING /tmp/ccWGHpq4.s 			page 8


DEFINED SYMBOLS
                            *ABS*:0000000000000000 main.cpp
     /tmp/ccWGHpq4.s:14     .text:0000000000000000 main
     /tmp/ccWGHpq4.s:18     .text:0000000000000000 .L0 
     /tmp/ccWGHpq4.s:19     .text:0000000000000000 .L0 
     /tmp/ccWGHpq4.s:20     .text:0000000000000004 .L0 
     /tmp/ccWGHpq4.s:26     .text:0000000000000018 .L0 
     /tmp/ccWGHpq4.s:27     .text:0000000000000018 .L0 
     /tmp/ccWGHpq4.s:28     .text:0000000000000018 .L0 
     /tmp/ccWGHpq4.s:29     .text:0000000000000018 .L0 
     /tmp/ccWGHpq4.s:30     .text:0000000000000018 .L0 
     /tmp/ccWGHpq4.s:32     .text:000000000000001c .L0 
     /tmp/ccWGHpq4.s:34     .text:000000000000001c .L0 
     /tmp/ccWGHpq4.s:35     .text:000000000000001c .L0 
     /tmp/ccWGHpq4.s:38     .text:0000000000000024 .L0 
     /tmp/ccWGHpq4.s:39     .text:0000000000000024 .L0 
     /tmp/ccWGHpq4.s:45     .text:000000000000002c .L0 
  src/../h/riscv.hpp:133    .text:000000000000002c .L0 
     /tmp/ccWGHpq4.s:55     .text:0000000000000030 .L0 
     /tmp/ccWGHpq4.s:56     .text:0000000000000030 .L0 
     /tmp/ccWGHpq4.s:59     .text:0000000000000038 .L0 
     /tmp/ccWGHpq4.s:60     .text:0000000000000038 .L0 
     /tmp/ccWGHpq4.s:66     .text:0000000000000048 .L0 
     /tmp/ccWGHpq4.s:67     .text:0000000000000048 .L0 
     /tmp/ccWGHpq4.s:73     .text:0000000000000058 .L0 
     /tmp/ccWGHpq4.s:74     .text:0000000000000058 .L0 
     /tmp/ccWGHpq4.s:81     .text:0000000000000068 .L0 
     /tmp/ccWGHpq4.s:82     .text:0000000000000068 .L0 
     /tmp/ccWGHpq4.s:89     .text:000000000000007c .L0 
     /tmp/ccWGHpq4.s:90     .text:000000000000007c .L0 
     /tmp/ccWGHpq4.s:94     .text:000000000000008c .L0 
     /tmp/ccWGHpq4.s:95     .text:000000000000008c .L0 
     /tmp/ccWGHpq4.s:101    .text:00000000000000a0 .L0 
     /tmp/ccWGHpq4.s:102    .text:00000000000000a0 .L0 
     /tmp/ccWGHpq4.s:106    .text:00000000000000b0 .L0 
     /tmp/ccWGHpq4.s:107    .text:00000000000000b0 .L0 
     /tmp/ccWGHpq4.s:113    .text:00000000000000c4 .L0 
     /tmp/ccWGHpq4.s:114    .text:00000000000000c4 .L0 
     /tmp/ccWGHpq4.s:118    .text:00000000000000d4 .L0 
     /tmp/ccWGHpq4.s:119    .text:00000000000000d4 .L0 
     /tmp/ccWGHpq4.s:122    .text:00000000000000dc .L0 
     /tmp/ccWGHpq4.s:123    .text:00000000000000dc .L0 
     /tmp/ccWGHpq4.s:127    .text:00000000000000e8 .L0 
     /tmp/ccWGHpq4.s:128    .text:00000000000000e8 .L0 
     /tmp/ccWGHpq4.s:131    .text:00000000000000f0 .L0 
     /tmp/ccWGHpq4.s:132    .text:00000000000000f0 .L0 
     /tmp/ccWGHpq4.s:136    .text:00000000000000fc .L0 
     /tmp/ccWGHpq4.s:137    .text:00000000000000fc .L0 
     /tmp/ccWGHpq4.s:140    .text:0000000000000104 .L0 
     /tmp/ccWGHpq4.s:141    .text:0000000000000104 .L0 
     /tmp/ccWGHpq4.s:145    .text:0000000000000110 .L0 
     /tmp/ccWGHpq4.s:146    .text:0000000000000110 .L0 
     /tmp/ccWGHpq4.s:149    .text:0000000000000118 .L0 
     /tmp/ccWGHpq4.s:150    .text:0000000000000118 .L0 
     /tmp/ccWGHpq4.s:152    .text:0000000000000120 .L0 
     /tmp/ccWGHpq4.s:154    .text:0000000000000124 .L0 
     /tmp/ccWGHpq4.s:155    .text:0000000000000124 .L0 
GAS LISTING /tmp/ccWGHpq4.s 			page 9


     /tmp/ccWGHpq4.s:157    .text:0000000000000128 .L0 
     /tmp/ccWGHpq4.s:160    .text:000000000000012c .L0 
     /tmp/ccWGHpq4.s:163    .text:0000000000000130 .L0 
     /tmp/ccWGHpq4.s:166    .text:0000000000000134 .L0 
     /tmp/ccWGHpq4.s:168    .text:0000000000000138 .L0 
     /tmp/ccWGHpq4.s:176    .text:0000000000000138 .L0 
     /tmp/ccWGHpq4.s:39     .text:0000000000000024 .L0 
     /tmp/ccWGHpq4.s:8      .rodata.str1.8:0000000000000000 .LC0
     /tmp/ccWGHpq4.s:90     .text:000000000000007c .L0 
     /tmp/ccWGHpq4.s:102    .text:00000000000000a0 .L0 
     /tmp/ccWGHpq4.s:114    .text:00000000000000c4 .L0 
     /tmp/ccWGHpq4.s:923    .debug_abbrev:0000000000000000 .Ldebug_abbrev0
     /tmp/ccWGHpq4.s:1631   .debug_str:0000000000000511 .LASF89
     /tmp/ccWGHpq4.s:1545   .debug_str:000000000000024a .LASF90
     /tmp/ccWGHpq4.s:1547   .debug_str:0000000000000257 .LASF91
     /tmp/ccWGHpq4.s:5      .text:0000000000000000 .Ltext0
     /tmp/ccWGHpq4.s:171    .text:0000000000000138 .Letext0
     /tmp/ccWGHpq4.s:1463   .debug_line:0000000000000000 .Ldebug_line0
     /tmp/ccWGHpq4.s:1569   .debug_str:0000000000000323 .LASF0
     /tmp/ccWGHpq4.s:1575   .debug_str:000000000000033d .LASF1
     /tmp/ccWGHpq4.s:1555   .debug_str:00000000000002c0 .LASF2
     /tmp/ccWGHpq4.s:1607   .debug_str:0000000000000455 .LASF3
     /tmp/ccWGHpq4.s:1537   .debug_str:000000000000020a .LASF4
     /tmp/ccWGHpq4.s:1611   .debug_str:0000000000000474 .LASF5
     /tmp/ccWGHpq4.s:1479   .debug_str:0000000000000060 .LASF6
     /tmp/ccWGHpq4.s:1581   .debug_str:0000000000000374 .LASF7
     /tmp/ccWGHpq4.s:1567   .debug_str:0000000000000310 .LASF8
     /tmp/ccWGHpq4.s:1639   .debug_str:0000000000000608 .LASF9
     /tmp/ccWGHpq4.s:1529   .debug_str:00000000000001bc .LASF10
     /tmp/ccWGHpq4.s:1593   .debug_str:00000000000003de .LASF11
     /tmp/ccWGHpq4.s:1633   .debug_str:00000000000005d5 .LASF12
     /tmp/ccWGHpq4.s:1483   .debug_str:000000000000006c .LASF13
     /tmp/ccWGHpq4.s:1467   .debug_str:0000000000000008 .LASF14
     /tmp/ccWGHpq4.s:1493   .debug_str:00000000000000bc .LASF15
     /tmp/ccWGHpq4.s:1605   .debug_str:000000000000043f .LASF16
     /tmp/ccWGHpq4.s:1497   .debug_str:00000000000000ce .LASF17
     /tmp/ccWGHpq4.s:1573   .debug_str:0000000000000337 .LASF71
     /tmp/ccWGHpq4.s:1471   .debug_str:0000000000000021 .LASF92
     /tmp/ccWGHpq4.s:1549   .debug_str:0000000000000283 .LASF93
     /tmp/ccWGHpq4.s:1603   .debug_str:0000000000000434 .LASF50
     /tmp/ccWGHpq4.s:1653   .debug_str:0000000000000675 .LASF52
     /tmp/ccWGHpq4.s:1469   .debug_str:0000000000000018 .LASF18
     /tmp/ccWGHpq4.s:1619   .debug_str:00000000000004b3 .LASF20
     /tmp/ccWGHpq4.s:1509   .debug_str:0000000000000136 .LASF22
     /tmp/ccWGHpq4.s:1507   .debug_str:0000000000000121 .LASF24
     /tmp/ccWGHpq4.s:1613   .debug_str:0000000000000486 .LASF19
     /tmp/ccWGHpq4.s:1597   .debug_str:00000000000003f6 .LASF21
     /tmp/ccWGHpq4.s:1629   .debug_str:000000000000050a .LASF23
     /tmp/ccWGHpq4.s:1623   .debug_str:00000000000004e0 .LASF25
     /tmp/ccWGHpq4.s:1521   .debug_str:0000000000000184 .LASF26
     /tmp/ccWGHpq4.s:1499   .debug_str:00000000000000e4 .LASF27
     /tmp/ccWGHpq4.s:1465   .debug_str:0000000000000000 .LASF28
     /tmp/ccWGHpq4.s:1533   .debug_str:00000000000001e0 .LASF29
     /tmp/ccWGHpq4.s:1513   .debug_str:0000000000000150 .LASF30
     /tmp/ccWGHpq4.s:1485   .debug_str:000000000000007c .LASF31
     /tmp/ccWGHpq4.s:1657   .debug_str:0000000000000698 .LASF32
     /tmp/ccWGHpq4.s:1515   .debug_str:0000000000000158 .LASF33
GAS LISTING /tmp/ccWGHpq4.s 			page 10


     /tmp/ccWGHpq4.s:1571   .debug_str:0000000000000330 .LASF34
     /tmp/ccWGHpq4.s:1649   .debug_str:000000000000065d .LASF35
     /tmp/ccWGHpq4.s:1477   .debug_str:0000000000000059 .LASF36
     /tmp/ccWGHpq4.s:1519   .debug_str:0000000000000171 .LASF37
     /tmp/ccWGHpq4.s:1525   .debug_str:0000000000000195 .LASF38
     /tmp/ccWGHpq4.s:1627   .debug_str:00000000000004f8 .LASF39
     /tmp/ccWGHpq4.s:1475   .debug_str:0000000000000053 .LASF40
     /tmp/ccWGHpq4.s:1659   .debug_str:00000000000006a0 .LASF41
     /tmp/ccWGHpq4.s:1655   .debug_str:000000000000068d .LASF42
     /tmp/ccWGHpq4.s:1609   .debug_str:000000000000045c .LASF43
     /tmp/ccWGHpq4.s:1539   .debug_str:0000000000000211 .LASF44
     /tmp/ccWGHpq4.s:1621   .debug_str:00000000000004c8 .LASF45
     /tmp/ccWGHpq4.s:1491   .debug_str:00000000000000b2 .LASF46
     /tmp/ccWGHpq4.s:1535   .debug_str:00000000000001f4 .LASF47
     /tmp/ccWGHpq4.s:1557   .debug_str:00000000000002ce .LASF48
     /tmp/ccWGHpq4.s:1531   .debug_str:00000000000001ca .LASF49
     /tmp/ccWGHpq4.s:1615   .debug_str:000000000000048d .LASF51
     /tmp/ccWGHpq4.s:1487   .debug_str:0000000000000090 .LASF53
     /tmp/ccWGHpq4.s:1505   .debug_str:0000000000000110 .LASF54
     /tmp/ccWGHpq4.s:1637   .debug_str:00000000000005ea .LASF55
     /tmp/ccWGHpq4.s:1625   .debug_str:00000000000004f3 .LASF56
     /tmp/ccWGHpq4.s:1511   .debug_str:000000000000013f .LASF57
     /tmp/ccWGHpq4.s:1481   .debug_str:0000000000000067 .LASF58
     /tmp/ccWGHpq4.s:1559   .debug_str:00000000000002d8 .LASF59
     /tmp/ccWGHpq4.s:1643   .debug_str:0000000000000622 .LASF60
     /tmp/ccWGHpq4.s:1543   .debug_str:0000000000000228 .LASF62
     /tmp/ccWGHpq4.s:1579   .debug_str:000000000000035f .LASF61
     /tmp/ccWGHpq4.s:1585   .debug_str:000000000000038c .LASF63
     /tmp/ccWGHpq4.s:1617   .debug_str:000000000000049c .LASF64
     /tmp/ccWGHpq4.s:1473   .debug_str:000000000000002f .LASF65
     /tmp/ccWGHpq4.s:1495   .debug_str:00000000000000c8 .LASF94
     /tmp/ccWGHpq4.s:1561   .debug_str:00000000000002e9 .LASF66
     /tmp/ccWGHpq4.s:1647   .debug_str:0000000000000658 .LASF67
     /tmp/ccWGHpq4.s:1601   .debug_str:000000000000042f .LASF68
     /tmp/ccWGHpq4.s:1651   .debug_str:0000000000000670 .LASF69
     /tmp/ccWGHpq4.s:1517   .debug_str:000000000000016c .LASF70
     /tmp/ccWGHpq4.s:1551   .debug_str:00000000000002a2 .LASF72
     /tmp/ccWGHpq4.s:1501   .debug_str:00000000000000f8 .LASF95
     /tmp/ccWGHpq4.s:1583   .debug_str:0000000000000387 .LASF73
     /tmp/ccWGHpq4.s:1563   .debug_str:00000000000002ee .LASF74
     /tmp/ccWGHpq4.s:1641   .debug_str:0000000000000618 .LASF75
     /tmp/ccWGHpq4.s:1645   .debug_str:0000000000000637 .LASF77
     /tmp/ccWGHpq4.s:1595   .debug_str:00000000000003ed .LASF76
     /tmp/ccWGHpq4.s:1527   .debug_str:000000000000019b .LASF78
     /tmp/ccWGHpq4.s:1489   .debug_str:00000000000000ac .LASF79
     /tmp/ccWGHpq4.s:1599   .debug_str:0000000000000409 .LASF80
     /tmp/ccWGHpq4.s:1635   .debug_str:00000000000005e4 .LASF81
     /tmp/ccWGHpq4.s:1589   .debug_str:00000000000003b3 .LASF82
     /tmp/ccWGHpq4.s:1587   .debug_str:00000000000003ae .LASF96
     /tmp/ccWGHpq4.s:15     .text:0000000000000000 .LFB18
     /tmp/ccWGHpq4.s:169    .text:0000000000000138 .LFE18
     /tmp/ccWGHpq4.s:1421   .debug_loc:0000000000000000 .LLST0
     /tmp/ccWGHpq4.s:1428   .debug_loc:0000000000000023 .LLST1
     /tmp/ccWGHpq4.s:1439   .debug_loc:0000000000000059 .LLST2
     /tmp/ccWGHpq4.s:41     .text:000000000000002c .LBB4
     /tmp/ccWGHpq4.s:53     .text:0000000000000030 .LBE4
     /tmp/ccWGHpq4.s:36     .text:0000000000000024 .LVL0
GAS LISTING /tmp/ccWGHpq4.s 			page 11


     /tmp/ccWGHpq4.s:57     .text:0000000000000038 .LVL3
     /tmp/ccWGHpq4.s:62     .text:0000000000000044 .LVL4
     /tmp/ccWGHpq4.s:69     .text:0000000000000054 .LVL6
     /tmp/ccWGHpq4.s:77     .text:0000000000000064 .LVL9
     /tmp/ccWGHpq4.s:87     .text:000000000000007c .LVL12
     /tmp/ccWGHpq4.s:92     .text:000000000000008c .LVL13
     /tmp/ccWGHpq4.s:99     .text:00000000000000a0 .LVL14
     /tmp/ccWGHpq4.s:104    .text:00000000000000b0 .LVL15
     /tmp/ccWGHpq4.s:111    .text:00000000000000c4 .LVL16
     /tmp/ccWGHpq4.s:116    .text:00000000000000d4 .LVL17
     /tmp/ccWGHpq4.s:120    .text:00000000000000dc .LVL18
     /tmp/ccWGHpq4.s:125    .text:00000000000000e8 .LVL19
     /tmp/ccWGHpq4.s:129    .text:00000000000000f0 .LVL20
     /tmp/ccWGHpq4.s:134    .text:00000000000000fc .LVL21
     /tmp/ccWGHpq4.s:138    .text:0000000000000104 .LVL22
     /tmp/ccWGHpq4.s:143    .text:0000000000000110 .LVL23
     /tmp/ccWGHpq4.s:147    .text:0000000000000118 .LVL24
     /tmp/ccWGHpq4.s:1565   .debug_str:000000000000030a .LASF97
     /tmp/ccWGHpq4.s:1553   .debug_str:00000000000002b2 .LASF83
     /tmp/ccWGHpq4.s:1577   .debug_str:0000000000000350 .LASF84
     /tmp/ccWGHpq4.s:1523   .debug_str:000000000000018c .LASF85
     /tmp/ccWGHpq4.s:1503   .debug_str:00000000000000fd .LASF86
     /tmp/ccWGHpq4.s:1541   .debug_str:000000000000021c .LASF87
     /tmp/ccWGHpq4.s:1591   .debug_str:00000000000003d0 .LASF88
     /tmp/ccWGHpq4.s:64     .text:0000000000000048 .LVL5
     /tmp/ccWGHpq4.s:158    .text:0000000000000128 .LVL25
     /tmp/ccWGHpq4.s:71     .text:0000000000000058 .LVL7
     /tmp/ccWGHpq4.s:75     .text:000000000000005c .LVL8
     /tmp/ccWGHpq4.s:161    .text:000000000000012c .LVL26
     /tmp/ccWGHpq4.s:79     .text:0000000000000068 .LVL10
     /tmp/ccWGHpq4.s:85     .text:0000000000000074 .LVL11
     /tmp/ccWGHpq4.s:164    .text:0000000000000130 .LVL27
     /tmp/ccWGHpq4.s:177    .debug_info:0000000000000000 .Ldebug_info0

UNDEFINED SYMBOLS
_ZN15MemoryAllocator4initEv
rutina
_ZN15MemoryAllocator5printEv
_Z9mem_allocm
_Z8printIntiii
_Z11printStringPKc
_Z8mem_freePv
