GAS LISTING /tmp/ccTIHD4k.s 			page 1


   1              		.file	"MemoryAllocator.cpp"
   2              		.option pic
   3              		.option norelax
   4              		.text
   5              	.Ltext0:
   6              		.align	2
   7              		.globl	_ZN15MemoryAllocator4initEv
   9              	_ZN15MemoryAllocator4initEv:
  10              	.LFB0:
  11              		.file 1 "src/MemoryAllocator.cpp"
   1:src/MemoryAllocator.cpp **** #include "../h/MemoryAllocator.hpp"
   2:src/MemoryAllocator.cpp **** #include "../h/printing.hpp"
   3:src/MemoryAllocator.cpp **** 
   4:src/MemoryAllocator.cpp **** Block *MemoryAllocator::head = nullptr;
   5:src/MemoryAllocator.cpp **** 
   6:src/MemoryAllocator.cpp **** void MemoryAllocator::init() {
  12              		.loc 1 6 30
  13              		.cfi_startproc
  14 0000 130101FF 		addi	sp,sp,-16
  15              		.cfi_def_cfa_offset 16
  16 0004 23348100 		sd	s0,8(sp)
  17              		.cfi_offset 8, -8
  18 0008 13040101 		addi	s0,sp,16
  19              		.cfi_def_cfa 8, 0
   7:src/MemoryAllocator.cpp ****     size_t total_heap_size = (char *) HEAP_END_ADDR - (char *) HEAP_START_ADDR;
  20              		.loc 1 7 5
  21              		.loc 1 7 30 is_stmt 0
  22 000c 97070000 		la	a5,HEAP_END_ADDR
  22      83B70700 
  23 0014 03B70700 		ld	a4,0(a5)
  24              		.loc 1 7 55
  25 0018 97070000 		la	a5,HEAP_START_ADDR
  25      83B70700 
  26 0020 83B70700 		ld	a5,0(a5)
  27              		.loc 1 7 53
  28 0024 3307F740 		sub	a4,a4,a5
  29              	.LVL0:
   8:src/MemoryAllocator.cpp **** 
   9:src/MemoryAllocator.cpp ****     head = (Block *) HEAP_START_ADDR; //incijalizujemo listu blokova
  30              		.loc 1 9 5 is_stmt 1
  31              		.loc 1 9 10 is_stmt 0
  32 0028 97060000 		lla	a3,.LANCHOR0
  32      93860600 
  33 0030 23B0F600 		sd	a5,0(a3)
  10:src/MemoryAllocator.cpp ****     head->size = total_heap_size - sizeof(Block); //velicina 1.blk
  34              		.loc 1 10 5 is_stmt 1
  35              		.loc 1 10 34 is_stmt 0
  36 0034 1B0787FE 		addiw	a4,a4,-24
  37              	.LVL1:
  38              		.loc 1 10 16
  39 0038 23A8E700 		sw	a4,16(a5)
  11:src/MemoryAllocator.cpp ****     head->free = true;
  40              		.loc 1 11 5 is_stmt 1
  41              		.loc 1 11 16 is_stmt 0
  42 003c 13071000 		li	a4,1
  43 0040 238AE700 		sb	a4,20(a5)
  12:src/MemoryAllocator.cpp ****     head->next = nullptr; //nema sl nema prethodni
GAS LISTING /tmp/ccTIHD4k.s 			page 2


  44              		.loc 1 12 5 is_stmt 1
  45              		.loc 1 12 16 is_stmt 0
  46 0044 23B00700 		sd	zero,0(a5)
  47              	.LVL2:
  13:src/MemoryAllocator.cpp ****     head->prev = nullptr;
  48              		.loc 1 13 5 is_stmt 1
  49              		.loc 1 13 11 is_stmt 0
  50 0048 83B70600 		ld	a5,0(a3)
  51              		.loc 1 13 16
  52 004c 23B40700 		sd	zero,8(a5)
  14:src/MemoryAllocator.cpp **** }
  53              		.loc 1 14 1
  54 0050 03348100 		ld	s0,8(sp)
  55              		.cfi_restore 8
  56              		.cfi_def_cfa 2, 16
  57 0054 13010101 		addi	sp,sp,16
  58              		.cfi_def_cfa_offset 0
  59 0058 67800000 		jr	ra
  60              		.cfi_endproc
  61              	.LFE0:
  63              		.align	2
  64              		.globl	_ZN15MemoryAllocator9mem_allocEm
  66              	_ZN15MemoryAllocator9mem_allocEm:
  67              	.LFB1:
  15:src/MemoryAllocator.cpp **** 
  16:src/MemoryAllocator.cpp **** void *MemoryAllocator::mem_alloc(size_t s) {
  68              		.loc 1 16 44 is_stmt 1
  69              		.cfi_startproc
  70              	.LVL3:
  71 005c 130101FF 		addi	sp,sp,-16
  72              		.cfi_def_cfa_offset 16
  73 0060 23348100 		sd	s0,8(sp)
  74              		.cfi_offset 8, -8
  75 0064 13040101 		addi	s0,sp,16
  76              		.cfi_def_cfa 8, 0
  17:src/MemoryAllocator.cpp ****     if (s <= 0) return nullptr;
  77              		.loc 1 17 5
  78 0068 6304050C 		beqz	a0,.L12
  18:src/MemoryAllocator.cpp **** 
  19:src/MemoryAllocator.cpp ****     size_t size = s * MEM_BLOCK_SIZE;
  79              		.loc 1 19 5
  80              		.loc 1 19 12 is_stmt 0
  81 006c 13176500 		slli	a4,a0,6
  82              	.LVL4:
  20:src/MemoryAllocator.cpp ****     Block *blk = head;
  83              		.loc 1 20 5 is_stmt 1
  84              		.loc 1 20 12 is_stmt 0
  85 0070 17050000 		ld	a0,.LANCHOR0
  85      03350500 
  86              	.LVL5:
  87 0078 6F008000 		j	.L7
  88              	.L6:
  21:src/MemoryAllocator.cpp **** 
  22:src/MemoryAllocator.cpp ****     while (blk != nullptr) {
  23:src/MemoryAllocator.cpp ****         if (blk->free && blk->size >= size) {
  24:src/MemoryAllocator.cpp ****             break;
  25:src/MemoryAllocator.cpp ****         }
GAS LISTING /tmp/ccTIHD4k.s 			page 3


  26:src/MemoryAllocator.cpp ****         blk = blk->next;
  89              		.loc 1 26 9 is_stmt 1
  90              		.loc 1 26 13 is_stmt 0
  91 007c 03350500 		ld	a0,0(a0)
  92              	.LVL6:
  93              	.L7:
  22:src/MemoryAllocator.cpp ****         if (blk->free && blk->size >= size) {
  94              		.loc 1 22 5 is_stmt 1
  22:src/MemoryAllocator.cpp ****         if (blk->free && blk->size >= size) {
  95              		.loc 1 22 16
  96 0080 630A0500 		beqz	a0,.L5
  23:src/MemoryAllocator.cpp ****             break;
  97              		.loc 1 23 9
  23:src/MemoryAllocator.cpp ****             break;
  98              		.loc 1 23 18 is_stmt 0
  99 0084 83474501 		lbu	a5,20(a0)
  23:src/MemoryAllocator.cpp ****             break;
 100              		.loc 1 23 9
 101 0088 E38A07FE 		beqz	a5,.L6
  23:src/MemoryAllocator.cpp ****             break;
 102              		.loc 1 23 31 discriminator 1
 103 008c 83670501 		lwu	a5,16(a0)
  23:src/MemoryAllocator.cpp ****             break;
 104              		.loc 1 23 23 discriminator 1
 105 0090 E3E6E7FE 		bltu	a5,a4,.L6
 106              	.L5:
  27:src/MemoryAllocator.cpp ****     }
  28:src/MemoryAllocator.cpp **** 
  29:src/MemoryAllocator.cpp ****     if (blk == nullptr) return nullptr; // nema dovoljno velikog bloka
 107              		.loc 1 29 5 is_stmt 1
 108 0094 630E0504 		beqz	a0,.L3
  30:src/MemoryAllocator.cpp ****     if (blk->size > size + sizeof(Block)) {
 109              		.loc 1 30 5
 110              	.LBB2:
 111              		.loc 1 30 14 is_stmt 0
 112 0098 83260501 		lw	a3,16(a0)
 113 009c 13960602 		slli	a2,a3,32
 114 00a0 13560602 		srli	a2,a2,32
 115              		.loc 1 30 26
 116 00a4 93078701 		addi	a5,a4,24
 117              		.loc 1 30 5
 118 00a8 63FAC704 		bleu	a2,a5,.L8
 119              	.LBB3:
  31:src/MemoryAllocator.cpp ****         Block *newBlock = (Block *) ((char *) blk + sizeof(Block) + size);
 120              		.loc 1 31 9 is_stmt 1
 121              		.loc 1 31 16 is_stmt 0
 122 00ac B307F500 		add	a5,a0,a5
 123              	.LVL7:
  32:src/MemoryAllocator.cpp ****         newBlock->size = blk->size - size - sizeof(Block);
 124              		.loc 1 32 9 is_stmt 1
 125              		.loc 1 32 36 is_stmt 0
 126 00b0 BB86E640 		subw	a3,a3,a4
 127              		.loc 1 32 43
 128 00b4 9B8686FE 		addiw	a3,a3,-24
 129              		.loc 1 32 24
 130 00b8 23A8D700 		sw	a3,16(a5)
  33:src/MemoryAllocator.cpp ****         newBlock->free = true;
GAS LISTING /tmp/ccTIHD4k.s 			page 4


 131              		.loc 1 33 9 is_stmt 1
 132              		.loc 1 33 24 is_stmt 0
 133 00bc 93061000 		li	a3,1
 134 00c0 238AD700 		sb	a3,20(a5)
  34:src/MemoryAllocator.cpp ****         newBlock->next = blk->next;
 135              		.loc 1 34 9 is_stmt 1
 136              		.loc 1 34 31 is_stmt 0
 137 00c4 83360500 		ld	a3,0(a0)
 138              		.loc 1 34 24
 139 00c8 23B0D700 		sd	a3,0(a5)
  35:src/MemoryAllocator.cpp ****         newBlock->prev = blk->prev;
 140              		.loc 1 35 9 is_stmt 1
 141              		.loc 1 35 31 is_stmt 0
 142 00cc 83368500 		ld	a3,8(a0)
 143              		.loc 1 35 24
 144 00d0 23B4D700 		sd	a3,8(a5)
  36:src/MemoryAllocator.cpp **** 
  37:src/MemoryAllocator.cpp ****         blk->next = newBlock;
 145              		.loc 1 37 9 is_stmt 1
 146              		.loc 1 37 19 is_stmt 0
 147 00d4 2330F500 		sd	a5,0(a0)
  38:src/MemoryAllocator.cpp ****         blk->size = size;
 148              		.loc 1 38 9 is_stmt 1
 149              		.loc 1 38 19 is_stmt 0
 150 00d8 2328E500 		sw	a4,16(a0)
 151              	.LVL8:
 152              	.L9:
 153              	.LBE3:
 154              	.LBE2:
  39:src/MemoryAllocator.cpp ****     } else {
  40:src/MemoryAllocator.cpp ****         if (blk->prev) blk->prev->next = blk->next;
  41:src/MemoryAllocator.cpp ****         if (blk->next) blk->next->prev = blk->prev;
  42:src/MemoryAllocator.cpp ****     }
  43:src/MemoryAllocator.cpp ****     if (blk == head) head = blk->next;
 155              		.loc 1 43 5 is_stmt 1
 156              		.loc 1 43 13 is_stmt 0
 157 00dc 97070000 		ld	a5,.LANCHOR0
 157      83B70700 
 158              		.loc 1 43 5
 159 00e4 638EA702 		beq	a5,a0,.L14
 160              	.L11:
  44:src/MemoryAllocator.cpp ****     blk->free = false;
 161              		.loc 1 44 5 is_stmt 1
 162              		.loc 1 44 15 is_stmt 0
 163 00e8 230A0500 		sb	zero,20(a0)
  45:src/MemoryAllocator.cpp ****     return (void *) ((char *) blk + sizeof(Block));
 164              		.loc 1 45 5 is_stmt 1
 165              		.loc 1 45 50 is_stmt 0
 166 00ec 13058501 		addi	a0,a0,24
 167              	.LVL9:
 168              	.L3:
  46:src/MemoryAllocator.cpp **** }
 169              		.loc 1 46 1
 170 00f0 03348100 		ld	s0,8(sp)
 171              		.cfi_remember_state
 172              		.cfi_restore 8
 173              		.cfi_def_cfa 2, 16
GAS LISTING /tmp/ccTIHD4k.s 			page 5


 174 00f4 13010101 		addi	sp,sp,16
 175              		.cfi_def_cfa_offset 0
 176 00f8 67800000 		jr	ra
 177              	.LVL10:
 178              	.L8:
 179              		.cfi_restore_state
 180              	.LBB4:
  40:src/MemoryAllocator.cpp ****         if (blk->next) blk->next->prev = blk->prev;
 181              		.loc 1 40 9 is_stmt 1
  40:src/MemoryAllocator.cpp ****         if (blk->next) blk->next->prev = blk->prev;
 182              		.loc 1 40 18 is_stmt 0
 183 00fc 83378500 		ld	a5,8(a0)
  40:src/MemoryAllocator.cpp ****         if (blk->next) blk->next->prev = blk->prev;
 184              		.loc 1 40 9
 185 0100 63860700 		beqz	a5,.L10
  40:src/MemoryAllocator.cpp ****         if (blk->next) blk->next->prev = blk->prev;
 186              		.loc 1 40 24 is_stmt 1 discriminator 1
  40:src/MemoryAllocator.cpp ****         if (blk->next) blk->next->prev = blk->prev;
 187              		.loc 1 40 47 is_stmt 0 discriminator 1
 188 0104 03370500 		ld	a4,0(a0)
 189              	.LVL11:
  40:src/MemoryAllocator.cpp ****         if (blk->next) blk->next->prev = blk->prev;
 190              		.loc 1 40 40 discriminator 1
 191 0108 23B0E700 		sd	a4,0(a5)
 192              	.L10:
  41:src/MemoryAllocator.cpp ****     }
 193              		.loc 1 41 9 is_stmt 1
  41:src/MemoryAllocator.cpp ****     }
 194              		.loc 1 41 18 is_stmt 0
 195 010c 83370500 		ld	a5,0(a0)
  41:src/MemoryAllocator.cpp ****     }
 196              		.loc 1 41 9
 197 0110 E38607FC 		beqz	a5,.L9
  41:src/MemoryAllocator.cpp ****     }
 198              		.loc 1 41 24 is_stmt 1 discriminator 1
  41:src/MemoryAllocator.cpp ****     }
 199              		.loc 1 41 47 is_stmt 0 discriminator 1
 200 0114 03378500 		ld	a4,8(a0)
  41:src/MemoryAllocator.cpp ****     }
 201              		.loc 1 41 40 discriminator 1
 202 0118 23B4E700 		sd	a4,8(a5)
 203 011c 6FF01FFC 		j	.L9
 204              	.L14:
 205              	.LBE4:
  43:src/MemoryAllocator.cpp ****     blk->free = false;
 206              		.loc 1 43 22 is_stmt 1 discriminator 1
  43:src/MemoryAllocator.cpp ****     blk->free = false;
 207              		.loc 1 43 34 is_stmt 0 discriminator 1
 208 0120 83370500 		ld	a5,0(a0)
  43:src/MemoryAllocator.cpp ****     blk->free = false;
 209              		.loc 1 43 27 discriminator 1
 210 0124 17070000 		sd	a5,.LANCHOR0,a4
 210      2330F700 
 211 012c 6FF0DFFB 		j	.L11
 212              	.LVL12:
 213              	.L12:
  17:src/MemoryAllocator.cpp **** 
GAS LISTING /tmp/ccTIHD4k.s 			page 6


 214              		.loc 1 17 24
 215 0130 13050000 		li	a0,0
 216              	.LVL13:
 217 0134 6FF0DFFB 		j	.L3
 218              		.cfi_endproc
 219              	.LFE1:
 221              		.align	2
 222              		.globl	_ZN15MemoryAllocator5mergeEP5BlockS1_
 224              	_ZN15MemoryAllocator5mergeEP5BlockS1_:
 225              	.LFB3:
  47:src/MemoryAllocator.cpp **** 
  48:src/MemoryAllocator.cpp **** 
  49:src/MemoryAllocator.cpp **** int MemoryAllocator::mem_free(void *addr) {
  50:src/MemoryAllocator.cpp ****     if (addr == nullptr || addr > HEAP_END_ADDR || addr < HEAP_START_ADDR) return -1;
  51:src/MemoryAllocator.cpp **** 
  52:src/MemoryAllocator.cpp ****     Block *trenutni = (Block *) ((char *) addr - sizeof(Block)); // predji na blok
  53:src/MemoryAllocator.cpp **** 
  54:src/MemoryAllocator.cpp ****     if (trenutni->free) return -2; //slobodan
  55:src/MemoryAllocator.cpp **** 
  56:src/MemoryAllocator.cpp ****     trenutni->free = true;
  57:src/MemoryAllocator.cpp **** 
  58:src/MemoryAllocator.cpp ****     Block *sledeci = nullptr, *predhodni = nullptr;
  59:src/MemoryAllocator.cpp ****     for (sledeci = head; sledeci->next; sledeci = sledeci->next) {
  60:src/MemoryAllocator.cpp ****         if (sledeci > trenutni) break;
  61:src/MemoryAllocator.cpp ****     }
  62:src/MemoryAllocator.cpp **** 
  63:src/MemoryAllocator.cpp ****     if (!sledeci->next and trenutni > sledeci) {
  64:src/MemoryAllocator.cpp ****         predhodni = sledeci; sledeci = nullptr;
  65:src/MemoryAllocator.cpp ****     }
  66:src/MemoryAllocator.cpp **** 
  67:src/MemoryAllocator.cpp ****     else predhodni = sledeci->prev;
  68:src/MemoryAllocator.cpp **** 
  69:src/MemoryAllocator.cpp ****     if (predhodni) predhodni->next = trenutni;
  70:src/MemoryAllocator.cpp ****     trenutni->prev = predhodni;
  71:src/MemoryAllocator.cpp ****     if (sledeci) sledeci->prev = trenutni;
  72:src/MemoryAllocator.cpp ****     trenutni->next = sledeci;
  73:src/MemoryAllocator.cpp **** 
  74:src/MemoryAllocator.cpp ****     if (sledeci == head) head = trenutni;
  75:src/MemoryAllocator.cpp **** 
  76:src/MemoryAllocator.cpp ****     merge(trenutni, sledeci); // spoji sa sl blokom ako je slobodan
  77:src/MemoryAllocator.cpp **** 
  78:src/MemoryAllocator.cpp ****     merge(predhodni, trenutni); // sa prethodnim  ako je slobodan
  79:src/MemoryAllocator.cpp **** 
  80:src/MemoryAllocator.cpp ****     return 0;
  81:src/MemoryAllocator.cpp **** }
  82:src/MemoryAllocator.cpp **** 
  83:src/MemoryAllocator.cpp **** 
  84:src/MemoryAllocator.cpp **** void MemoryAllocator::merge(Block *prvi, Block *drugi) {
 226              		.loc 1 84 56 is_stmt 1
 227              		.cfi_startproc
 228              	.LVL14:
 229 0138 130101FF 		addi	sp,sp,-16
 230              		.cfi_def_cfa_offset 16
 231 013c 23348100 		sd	s0,8(sp)
 232              		.cfi_offset 8, -8
 233 0140 13040101 		addi	s0,sp,16
 234              		.cfi_def_cfa 8, 0
GAS LISTING /tmp/ccTIHD4k.s 			page 7


  85:src/MemoryAllocator.cpp ****     if (prvi == nullptr || drugi == nullptr) {
 235              		.loc 1 85 5
 236 0144 63000502 		beqz	a0,.L15
 237              		.loc 1 85 25 is_stmt 0 discriminator 1
 238 0148 638E0500 		beqz	a1,.L15
  86:src/MemoryAllocator.cpp ****         return;
  87:src/MemoryAllocator.cpp ****     }
  88:src/MemoryAllocator.cpp ****     if ((char *) prvi + prvi->size + sizeof(Block) != (char *) drugi) {
 239              		.loc 1 88 5 is_stmt 1
 240              		.loc 1 88 31 is_stmt 0
 241 014c 03270501 		lw	a4,16(a0)
 242 0150 93170702 		slli	a5,a4,32
 243 0154 93D70702 		srli	a5,a5,32
 244              		.loc 1 88 36
 245 0158 93878701 		addi	a5,a5,24
 246 015c B307F500 		add	a5,a0,a5
 247              		.loc 1 88 5
 248 0160 6388B700 		beq	a5,a1,.L18
 249              	.L15:
  89:src/MemoryAllocator.cpp ****         return;
  90:src/MemoryAllocator.cpp ****     }
  91:src/MemoryAllocator.cpp ****     prvi->size += drugi->size + sizeof(Block);
  92:src/MemoryAllocator.cpp ****     prvi->next = drugi->next;
  93:src/MemoryAllocator.cpp ****     if (prvi->next != nullptr) {
  94:src/MemoryAllocator.cpp ****         prvi->next->prev = prvi;
  95:src/MemoryAllocator.cpp ****     }
  96:src/MemoryAllocator.cpp **** 
  97:src/MemoryAllocator.cpp **** }
 250              		.loc 1 97 1
 251 0164 03348100 		ld	s0,8(sp)
 252              		.cfi_remember_state
 253              		.cfi_restore 8
 254              		.cfi_def_cfa 2, 16
 255 0168 13010101 		addi	sp,sp,16
 256              		.cfi_def_cfa_offset 0
 257 016c 67800000 		jr	ra
 258              	.L18:
 259              		.cfi_restore_state
  91:src/MemoryAllocator.cpp ****     prvi->next = drugi->next;
 260              		.loc 1 91 5 is_stmt 1
  91:src/MemoryAllocator.cpp ****     prvi->next = drugi->next;
 261              		.loc 1 91 26 is_stmt 0
 262 0170 83A70501 		lw	a5,16(a1)
  91:src/MemoryAllocator.cpp ****     prvi->next = drugi->next;
 263              		.loc 1 91 16
 264 0174 3B07F700 		addw	a4,a4,a5
 265 0178 1B078701 		addiw	a4,a4,24
 266 017c 2328E500 		sw	a4,16(a0)
  92:src/MemoryAllocator.cpp ****     if (prvi->next != nullptr) {
 267              		.loc 1 92 5 is_stmt 1
  92:src/MemoryAllocator.cpp ****     if (prvi->next != nullptr) {
 268              		.loc 1 92 25 is_stmt 0
 269 0180 83B70500 		ld	a5,0(a1)
  92:src/MemoryAllocator.cpp ****     if (prvi->next != nullptr) {
 270              		.loc 1 92 16
 271 0184 2330F500 		sd	a5,0(a0)
  93:src/MemoryAllocator.cpp ****         prvi->next->prev = prvi;
GAS LISTING /tmp/ccTIHD4k.s 			page 8


 272              		.loc 1 93 5 is_stmt 1
 273 0188 E38E07FC 		beqz	a5,.L15
  94:src/MemoryAllocator.cpp ****     }
 274              		.loc 1 94 9
  94:src/MemoryAllocator.cpp ****     }
 275              		.loc 1 94 26 is_stmt 0
 276 018c 23B4A700 		sd	a0,8(a5)
 277 0190 6FF05FFD 		j	.L15
 278              		.cfi_endproc
 279              	.LFE3:
 281              		.align	2
 282              		.globl	_ZN15MemoryAllocator8mem_freeEPv
 284              	_ZN15MemoryAllocator8mem_freeEPv:
 285              	.LFB2:
  49:src/MemoryAllocator.cpp ****     if (addr == nullptr || addr > HEAP_END_ADDR || addr < HEAP_START_ADDR) return -1;
 286              		.loc 1 49 43 is_stmt 1
 287              		.cfi_startproc
 288              	.LVL15:
  50:src/MemoryAllocator.cpp **** 
 289              		.loc 1 50 5
 290 0194 6304050E 		beqz	a0,.L28
  50:src/MemoryAllocator.cpp **** 
 291              		.loc 1 50 33 is_stmt 0 discriminator 2
 292 0198 97070000 		la	a5,HEAP_END_ADDR
 292      83B70700 
 293 01a0 83B70700 		ld	a5,0(a5)
  50:src/MemoryAllocator.cpp **** 
 294              		.loc 1 50 25 discriminator 2
 295 01a4 63E0A70E 		bltu	a5,a0,.L29
  50:src/MemoryAllocator.cpp **** 
 296              		.loc 1 50 57 discriminator 4
 297 01a8 97070000 		la	a5,HEAP_START_ADDR
 297      83B70700 
 298 01b0 83B70700 		ld	a5,0(a5)
  50:src/MemoryAllocator.cpp **** 
 299              		.loc 1 50 49 discriminator 4
 300 01b4 636CF50C 		bgtu	a5,a0,.L30
  49:src/MemoryAllocator.cpp ****     if (addr == nullptr || addr > HEAP_END_ADDR || addr < HEAP_START_ADDR) return -1;
 301              		.loc 1 49 43
 302 01b8 130101FE 		addi	sp,sp,-32
 303              		.cfi_def_cfa_offset 32
 304 01bc 233C1100 		sd	ra,24(sp)
 305 01c0 23388100 		sd	s0,16(sp)
 306 01c4 23349100 		sd	s1,8(sp)
 307 01c8 23302101 		sd	s2,0(sp)
 308              		.cfi_offset 1, -8
 309              		.cfi_offset 8, -16
 310              		.cfi_offset 9, -24
 311              		.cfi_offset 18, -32
 312 01cc 13040102 		addi	s0,sp,32
 313              		.cfi_def_cfa 8, 0
  52:src/MemoryAllocator.cpp **** 
 314              		.loc 1 52 5 is_stmt 1
  52:src/MemoryAllocator.cpp **** 
 315              		.loc 1 52 12 is_stmt 0
 316 01d0 930485FE 		addi	s1,a0,-24
 317              	.LVL16:
GAS LISTING /tmp/ccTIHD4k.s 			page 9


  54:src/MemoryAllocator.cpp **** 
 318              		.loc 1 54 5 is_stmt 1
  54:src/MemoryAllocator.cpp **** 
 319              		.loc 1 54 19 is_stmt 0
 320 01d4 8347C5FF 		lbu	a5,-4(a0)
  54:src/MemoryAllocator.cpp **** 
 321              		.loc 1 54 5
 322 01d8 639E070A 		bnez	a5,.L31
  56:src/MemoryAllocator.cpp **** 
 323              		.loc 1 56 5 is_stmt 1
  56:src/MemoryAllocator.cpp **** 
 324              		.loc 1 56 20 is_stmt 0
 325 01dc 93071000 		li	a5,1
 326 01e0 230EF5FE 		sb	a5,-4(a0)
  58:src/MemoryAllocator.cpp ****     for (sledeci = head; sledeci->next; sledeci = sledeci->next) {
 327              		.loc 1 58 5 is_stmt 1
 328              	.LVL17:
  59:src/MemoryAllocator.cpp ****         if (sledeci > trenutni) break;
 329              		.loc 1 59 5
  59:src/MemoryAllocator.cpp ****         if (sledeci > trenutni) break;
 330              		.loc 1 59 18 is_stmt 0
 331 01e4 97070000 		ld	a5,.LANCHOR0
 331      83B70700 
 332              	.LVL18:
 333              	.L22:
  59:src/MemoryAllocator.cpp ****         if (sledeci > trenutni) break;
 334              		.loc 1 59 35 is_stmt 1 discriminator 1
 335 01ec 93850700 		mv	a1,a5
 336 01f0 83B70700 		ld	a5,0(a5)
 337              	.LVL19:
 338 01f4 63840700 		beqz	a5,.L21
  60:src/MemoryAllocator.cpp ****     }
 339              		.loc 1 60 9
 340 01f8 E3FAB4FE 		bleu	a1,s1,.L22
 341              	.L21:
  63:src/MemoryAllocator.cpp ****         predhodni = sledeci; sledeci = nullptr;
 342              		.loc 1 63 5
 343 01fc 63820706 		beqz	a5,.L37
 344              	.L23:
  67:src/MemoryAllocator.cpp **** 
 345              		.loc 1 67 10
  67:src/MemoryAllocator.cpp **** 
 346              		.loc 1 67 20 is_stmt 0
 347 0200 03B98500 		ld	s2,8(a1)
 348              	.LVL20:
 349              	.L24:
  69:src/MemoryAllocator.cpp ****     trenutni->prev = predhodni;
 350              		.loc 1 69 5 is_stmt 1
 351 0204 63040900 		beqz	s2,.L25
  69:src/MemoryAllocator.cpp ****     trenutni->prev = predhodni;
 352              		.loc 1 69 20 discriminator 1
  69:src/MemoryAllocator.cpp ****     trenutni->prev = predhodni;
 353              		.loc 1 69 36 is_stmt 0 discriminator 1
 354 0208 23309900 		sd	s1,0(s2)
 355              	.L25:
  70:src/MemoryAllocator.cpp ****     if (sledeci) sledeci->prev = trenutni;
 356              		.loc 1 70 5 is_stmt 1
GAS LISTING /tmp/ccTIHD4k.s 			page 10


  70:src/MemoryAllocator.cpp ****     if (sledeci) sledeci->prev = trenutni;
 357              		.loc 1 70 20 is_stmt 0
 358 020c 233825FF 		sd	s2,-16(a0)
  71:src/MemoryAllocator.cpp ****     trenutni->next = sledeci;
 359              		.loc 1 71 5 is_stmt 1
 360 0210 63840500 		beqz	a1,.L26
  71:src/MemoryAllocator.cpp ****     trenutni->next = sledeci;
 361              		.loc 1 71 18 discriminator 1
  71:src/MemoryAllocator.cpp ****     trenutni->next = sledeci;
 362              		.loc 1 71 32 is_stmt 0 discriminator 1
 363 0214 23B49500 		sd	s1,8(a1)
 364              	.L26:
  72:src/MemoryAllocator.cpp **** 
 365              		.loc 1 72 5 is_stmt 1
  72:src/MemoryAllocator.cpp **** 
 366              		.loc 1 72 20 is_stmt 0
 367 0218 2334B5FE 		sd	a1,-24(a0)
  74:src/MemoryAllocator.cpp **** 
 368              		.loc 1 74 5 is_stmt 1
  74:src/MemoryAllocator.cpp **** 
 369              		.loc 1 74 17 is_stmt 0
 370 021c 97070000 		ld	a5,.LANCHOR0
 370      83B70700 
  74:src/MemoryAllocator.cpp **** 
 371              		.loc 1 74 5
 372 0224 6386B704 		beq	a5,a1,.L38
 373              	.L27:
  76:src/MemoryAllocator.cpp **** 
 374              		.loc 1 76 5 is_stmt 1
  76:src/MemoryAllocator.cpp **** 
 375              		.loc 1 76 10 is_stmt 0
 376 0228 13850400 		mv	a0,s1
 377              	.LVL21:
 378 022c 97000000 		call	_ZN15MemoryAllocator5mergeEP5BlockS1_
 378      E7800000 
 379              	.LVL22:
  78:src/MemoryAllocator.cpp **** 
 380              		.loc 1 78 5 is_stmt 1
  78:src/MemoryAllocator.cpp **** 
 381              		.loc 1 78 10 is_stmt 0
 382 0234 93850400 		mv	a1,s1
 383 0238 13050900 		mv	a0,s2
 384 023c 97000000 		call	_ZN15MemoryAllocator5mergeEP5BlockS1_
 384      E7800000 
 385              	.LVL23:
  80:src/MemoryAllocator.cpp **** }
 386              		.loc 1 80 5 is_stmt 1
  80:src/MemoryAllocator.cpp **** }
 387              		.loc 1 80 12 is_stmt 0
 388 0244 13050000 		li	a0,0
 389              	.LVL24:
 390              	.L20:
  81:src/MemoryAllocator.cpp **** 
 391              		.loc 1 81 1
 392 0248 83308101 		ld	ra,24(sp)
 393              		.cfi_remember_state
 394              		.cfi_restore 1
GAS LISTING /tmp/ccTIHD4k.s 			page 11


 395 024c 03340101 		ld	s0,16(sp)
 396              		.cfi_restore 8
 397              		.cfi_def_cfa 2, 32
 398 0250 83348100 		ld	s1,8(sp)
 399              		.cfi_restore 9
 400              	.LVL25:
 401 0254 03390100 		ld	s2,0(sp)
 402              		.cfi_restore 18
 403 0258 13010102 		addi	sp,sp,32
 404              		.cfi_def_cfa_offset 0
 405 025c 67800000 		jr	ra
 406              	.LVL26:
 407              	.L37:
 408              		.cfi_restore_state
  63:src/MemoryAllocator.cpp ****         predhodni = sledeci; sledeci = nullptr;
 409              		.loc 1 63 24 discriminator 1
 410 0260 E3F095FA 		bgeu	a1,s1,.L23
  64:src/MemoryAllocator.cpp ****     }
 411              		.loc 1 64 19
 412 0264 13890500 		mv	s2,a1
  64:src/MemoryAllocator.cpp ****     }
 413              		.loc 1 64 38
 414 0268 93850700 		mv	a1,a5
 415              	.LVL27:
 416 026c 6FF09FF9 		j	.L24
 417              	.LVL28:
 418              	.L38:
  74:src/MemoryAllocator.cpp **** 
 419              		.loc 1 74 26 is_stmt 1 discriminator 1
  74:src/MemoryAllocator.cpp **** 
 420              		.loc 1 74 31 is_stmt 0 discriminator 1
 421 0270 97070000 		sd	s1,.LANCHOR0,a5
 421      23B09700 
 422 0278 6FF01FFB 		j	.L27
 423              	.LVL29:
 424              	.L28:
 425              		.cfi_def_cfa_register 2
 426              		.cfi_restore 1
 427              		.cfi_restore 8
 428              		.cfi_restore 9
 429              		.cfi_restore 18
  50:src/MemoryAllocator.cpp **** 
 430              		.loc 1 50 84
 431 027c 1305F0FF 		li	a0,-1
 432              	.LVL30:
 433 0280 67800000 		ret
 434              	.LVL31:
 435              	.L29:
 436 0284 1305F0FF 		li	a0,-1
 437              	.LVL32:
 438 0288 67800000 		ret
 439              	.LVL33:
 440              	.L30:
 441 028c 1305F0FF 		li	a0,-1
 442              	.LVL34:
  81:src/MemoryAllocator.cpp **** 
 443              		.loc 1 81 1
GAS LISTING /tmp/ccTIHD4k.s 			page 12


 444 0290 67800000 		ret
 445              	.LVL35:
 446              	.L31:
 447              		.cfi_def_cfa_register 8
 448              		.cfi_offset 1, -8
 449              		.cfi_offset 8, -16
 450              		.cfi_offset 9, -24
 451              		.cfi_offset 18, -32
  54:src/MemoryAllocator.cpp **** 
 452              		.loc 1 54 33
 453 0294 1305E0FF 		li	a0,-2
 454              	.LVL36:
 455 0298 6FF01FFB 		j	.L20
 456              		.cfi_endproc
 457              	.LFE2:
 459              		.section	.rodata.str1.8,"aMS",@progbits,1
 460              		.align	3
 461              	.LC0:
 462 0000 2D2D2D2D 		.string	"--------------------------------------------------\n"
 462      2D2D2D2D 
 462      2D2D2D2D 
 462      2D2D2D2D 
 462      2D2D2D2D 
 463 0034 00000000 		.align	3
 464              	.LC1:
 465 0038 3A2000   		.string	": "
 466 003b 00000000 		.align	3
 466      00
 467              	.LC2:
 468 0040 2000     		.string	" "
 469 0042 00000000 		.align	3
 469      0000
 470              	.LC3:
 471 0048 0A00     		.string	"\n"
 472 004a 00000000 		.align	3
 472      0000
 473              	.LC4:
 474 0050 5F5F5F5F 		.string	"__________________________________________________\n"
 474      5F5F5F5F 
 474      5F5F5F5F 
 474      5F5F5F5F 
 474      5F5F5F5F 
 475              		.text
 476              		.align	2
 477              		.globl	_ZN15MemoryAllocator5printEv
 479              	_ZN15MemoryAllocator5printEv:
 480              	.LFB4:
  98:src/MemoryAllocator.cpp **** 
  99:src/MemoryAllocator.cpp **** void MemoryAllocator::print() {
 481              		.loc 1 99 31 is_stmt 1
 482              		.cfi_startproc
 483 029c 130101FE 		addi	sp,sp,-32
 484              		.cfi_def_cfa_offset 32
 485 02a0 233C1100 		sd	ra,24(sp)
 486 02a4 23388100 		sd	s0,16(sp)
 487 02a8 23349100 		sd	s1,8(sp)
 488              		.cfi_offset 1, -8
GAS LISTING /tmp/ccTIHD4k.s 			page 13


 489              		.cfi_offset 8, -16
 490              		.cfi_offset 9, -24
 491 02ac 13040102 		addi	s0,sp,32
 492              		.cfi_def_cfa 8, 0
 100:src/MemoryAllocator.cpp ****     printString("--------------------------------------------------\n");
 493              		.loc 1 100 5
 494              		.loc 1 100 16 is_stmt 0
 495 02b0 17050000 		lla	a0,.LC0
 495      13050500 
 496 02b8 97000000 		call	_Z11printStringPKc@plt
 496      E7800000 
 497              	.LVL37:
 101:src/MemoryAllocator.cpp ****     for (Block *curr = head; curr; curr = curr->next) {
 498              		.loc 1 101 5 is_stmt 1
 499              	.LBB5:
 500              		.loc 1 101 17 is_stmt 0
 501 02c0 97040000 		ld	s1,.LANCHOR0
 501      83B40400 
 502              	.LVL38:
 503              	.L41:
 504              		.loc 1 101 30 is_stmt 1 discriminator 3
 505 02c8 6380040C 		beqz	s1,.L40
 102:src/MemoryAllocator.cpp ****         printInt((uint64) curr);
 506              		.loc 1 102 9 discriminator 2
 507              		.loc 1 102 17 is_stmt 0 discriminator 2
 508 02cc 13060000 		li	a2,0
 509 02d0 9305A000 		li	a1,10
 510 02d4 1B850400 		sext.w	a0,s1
 511 02d8 97000000 		call	_Z8printIntiii@plt
 511      E7800000 
 512              	.LVL39:
 103:src/MemoryAllocator.cpp ****         printString(": ");
 513              		.loc 1 103 9 is_stmt 1 discriminator 2
 514              		.loc 1 103 20 is_stmt 0 discriminator 2
 515 02e0 17050000 		lla	a0,.LC1
 515      13050500 
 516 02e8 97000000 		call	_Z11printStringPKc@plt
 516      E7800000 
 517              	.LVL40:
 104:src/MemoryAllocator.cpp ****         printInt((uint64) curr->prev);
 518              		.loc 1 104 9 is_stmt 1 discriminator 2
 519              		.loc 1 104 17 is_stmt 0 discriminator 2
 520 02f0 13060000 		li	a2,0
 521 02f4 9305A000 		li	a1,10
 522 02f8 03A58400 		lw	a0,8(s1)
 523 02fc 97000000 		call	_Z8printIntiii@plt
 523      E7800000 
 524              	.LVL41:
 105:src/MemoryAllocator.cpp ****         printString(" ");
 525              		.loc 1 105 9 is_stmt 1 discriminator 2
 526              		.loc 1 105 20 is_stmt 0 discriminator 2
 527 0304 17050000 		lla	a0,.LC2
 527      13050500 
 528 030c 97000000 		call	_Z11printStringPKc@plt
 528      E7800000 
 529              	.LVL42:
 106:src/MemoryAllocator.cpp ****         printInt(curr->size);
GAS LISTING /tmp/ccTIHD4k.s 			page 14


 530              		.loc 1 106 9 is_stmt 1 discriminator 2
 531              		.loc 1 106 17 is_stmt 0 discriminator 2
 532 0314 13060000 		li	a2,0
 533 0318 9305A000 		li	a1,10
 534 031c 03A50401 		lw	a0,16(s1)
 535 0320 97000000 		call	_Z8printIntiii@plt
 535      E7800000 
 536              	.LVL43:
 107:src/MemoryAllocator.cpp ****         printString(" ");
 537              		.loc 1 107 9 is_stmt 1 discriminator 2
 538              		.loc 1 107 20 is_stmt 0 discriminator 2
 539 0328 17050000 		lla	a0,.LC2
 539      13050500 
 540 0330 97000000 		call	_Z11printStringPKc@plt
 540      E7800000 
 541              	.LVL44:
 108:src/MemoryAllocator.cpp ****         printInt(curr->free);
 542              		.loc 1 108 9 is_stmt 1 discriminator 2
 543              		.loc 1 108 17 is_stmt 0 discriminator 2
 544 0338 13060000 		li	a2,0
 545 033c 9305A000 		li	a1,10
 546 0340 03C54401 		lbu	a0,20(s1)
 547 0344 97000000 		call	_Z8printIntiii@plt
 547      E7800000 
 548              	.LVL45:
 109:src/MemoryAllocator.cpp ****         printString(" ");
 549              		.loc 1 109 9 is_stmt 1 discriminator 2
 550              		.loc 1 109 20 is_stmt 0 discriminator 2
 551 034c 17050000 		lla	a0,.LC2
 551      13050500 
 552 0354 97000000 		call	_Z11printStringPKc@plt
 552      E7800000 
 553              	.LVL46:
 110:src/MemoryAllocator.cpp ****         printInt((uint64) curr->next);
 554              		.loc 1 110 9 is_stmt 1 discriminator 2
 555              		.loc 1 110 17 is_stmt 0 discriminator 2
 556 035c 13060000 		li	a2,0
 557 0360 9305A000 		li	a1,10
 558 0364 03A50400 		lw	a0,0(s1)
 559 0368 97000000 		call	_Z8printIntiii@plt
 559      E7800000 
 560              	.LVL47:
 111:src/MemoryAllocator.cpp ****         printString("\n");
 561              		.loc 1 111 9 is_stmt 1 discriminator 2
 562              		.loc 1 111 20 is_stmt 0 discriminator 2
 563 0370 17050000 		lla	a0,.LC3
 563      13050500 
 564 0378 97000000 		call	_Z11printStringPKc@plt
 564      E7800000 
 565              	.LVL48:
 101:src/MemoryAllocator.cpp ****         printInt((uint64) curr);
 566              		.loc 1 101 5 is_stmt 1 discriminator 2
 101:src/MemoryAllocator.cpp ****         printInt((uint64) curr);
 567              		.loc 1 101 41 is_stmt 0 discriminator 2
 568 0380 83B40400 		ld	s1,0(s1)
 569              	.LVL49:
 101:src/MemoryAllocator.cpp ****         printInt((uint64) curr);
GAS LISTING /tmp/ccTIHD4k.s 			page 15


 570              		.loc 1 101 5 discriminator 2
 571 0384 6FF05FF4 		j	.L41
 572              	.L40:
 573              	.LBE5:
 112:src/MemoryAllocator.cpp ****     }
 113:src/MemoryAllocator.cpp ****     printString("__________________________________________________\n");
 574              		.loc 1 113 5 is_stmt 1
 575              		.loc 1 113 16 is_stmt 0
 576 0388 17050000 		lla	a0,.LC4
 576      13050500 
 577 0390 97000000 		call	_Z11printStringPKc@plt
 577      E7800000 
 578              	.LVL50:
 114:src/MemoryAllocator.cpp **** }
 579              		.loc 1 114 1
 580 0398 83308101 		ld	ra,24(sp)
 581              		.cfi_restore 1
 582 039c 03340101 		ld	s0,16(sp)
 583              		.cfi_restore 8
 584              		.cfi_def_cfa 2, 32
 585 03a0 83348100 		ld	s1,8(sp)
 586              		.cfi_restore 9
 587              	.LVL51:
 588 03a4 13010102 		addi	sp,sp,32
 589              		.cfi_def_cfa_offset 0
 590 03a8 67800000 		jr	ra
 591              		.cfi_endproc
 592              	.LFE4:
 594              		.globl	_ZN15MemoryAllocator4headE
 595              		.bss
 596              		.align	3
 597              		.set	.LANCHOR0,. + 0
 600              	_ZN15MemoryAllocator4headE:
 601 0000 00000000 		.zero	8
 601      00000000 
 602              		.text
 603              	.Letext0:
 604              		.file 2 "src/../h/../lib/hw.h"
 605              		.file 3 "src/../h/MemoryAllocator.hpp"
 606              		.file 4 "src/../h/printing.hpp"
GAS LISTING /tmp/ccTIHD4k.s 			page 16


DEFINED SYMBOLS
                            *ABS*:0000000000000000 MemoryAllocator.cpp
     /tmp/ccTIHD4k.s:9      .text:0000000000000000 _ZN15MemoryAllocator4initEv
     /tmp/ccTIHD4k.s:13     .text:0000000000000000 .L0 
     /tmp/ccTIHD4k.s:14     .text:0000000000000000 .L0 
     /tmp/ccTIHD4k.s:15     .text:0000000000000004 .L0 
     /tmp/ccTIHD4k.s:17     .text:0000000000000008 .L0 
     /tmp/ccTIHD4k.s:19     .text:000000000000000c .L0 
     /tmp/ccTIHD4k.s:21     .text:000000000000000c .L0 
     /tmp/ccTIHD4k.s:22     .text:000000000000000c .L0 
     /tmp/ccTIHD4k.s:25     .text:0000000000000018 .L0 
     /tmp/ccTIHD4k.s:28     .text:0000000000000024 .L0 
     /tmp/ccTIHD4k.s:31     .text:0000000000000028 .L0 
     /tmp/ccTIHD4k.s:32     .text:0000000000000028 .L0 
     /tmp/ccTIHD4k.s:35     .text:0000000000000034 .L0 
     /tmp/ccTIHD4k.s:36     .text:0000000000000034 .L0 
     /tmp/ccTIHD4k.s:39     .text:0000000000000038 .L0 
     /tmp/ccTIHD4k.s:41     .text:000000000000003c .L0 
     /tmp/ccTIHD4k.s:42     .text:000000000000003c .L0 
     /tmp/ccTIHD4k.s:45     .text:0000000000000044 .L0 
     /tmp/ccTIHD4k.s:46     .text:0000000000000044 .L0 
     /tmp/ccTIHD4k.s:49     .text:0000000000000048 .L0 
     /tmp/ccTIHD4k.s:50     .text:0000000000000048 .L0 
     /tmp/ccTIHD4k.s:52     .text:000000000000004c .L0 
     /tmp/ccTIHD4k.s:54     .text:0000000000000050 .L0 
     /tmp/ccTIHD4k.s:55     .text:0000000000000054 .L0 
     /tmp/ccTIHD4k.s:56     .text:0000000000000054 .L0 
     /tmp/ccTIHD4k.s:58     .text:0000000000000058 .L0 
     /tmp/ccTIHD4k.s:60     .text:000000000000005c .L0 
     /tmp/ccTIHD4k.s:66     .text:000000000000005c _ZN15MemoryAllocator9mem_allocEm
     /tmp/ccTIHD4k.s:69     .text:000000000000005c .L0 
     /tmp/ccTIHD4k.s:71     .text:000000000000005c .L0 
     /tmp/ccTIHD4k.s:72     .text:0000000000000060 .L0 
     /tmp/ccTIHD4k.s:74     .text:0000000000000064 .L0 
     /tmp/ccTIHD4k.s:76     .text:0000000000000068 .L0 
     /tmp/ccTIHD4k.s:78     .text:0000000000000068 .L0 
     /tmp/ccTIHD4k.s:80     .text:000000000000006c .L0 
     /tmp/ccTIHD4k.s:81     .text:000000000000006c .L0 
     /tmp/ccTIHD4k.s:84     .text:0000000000000070 .L0 
     /tmp/ccTIHD4k.s:85     .text:0000000000000070 .L0 
     /tmp/ccTIHD4k.s:90     .text:000000000000007c .L0 
     /tmp/ccTIHD4k.s:91     .text:000000000000007c .L0 
     /tmp/ccTIHD4k.s:95     .text:0000000000000080 .L0 
     /tmp/ccTIHD4k.s:96     .text:0000000000000080 .L0 
     /tmp/ccTIHD4k.s:98     .text:0000000000000084 .L0 
     /tmp/ccTIHD4k.s:99     .text:0000000000000084 .L0 
     /tmp/ccTIHD4k.s:101    .text:0000000000000088 .L0 
     /tmp/ccTIHD4k.s:103    .text:000000000000008c .L0 
     /tmp/ccTIHD4k.s:105    .text:0000000000000090 .L0 
     /tmp/ccTIHD4k.s:108    .text:0000000000000094 .L0 
     /tmp/ccTIHD4k.s:111    .text:0000000000000098 .L0 
     /tmp/ccTIHD4k.s:112    .text:0000000000000098 .L0 
     /tmp/ccTIHD4k.s:116    .text:00000000000000a4 .L0 
     /tmp/ccTIHD4k.s:118    .text:00000000000000a8 .L0 
     /tmp/ccTIHD4k.s:121    .text:00000000000000ac .L0 
     /tmp/ccTIHD4k.s:122    .text:00000000000000ac .L0 
     /tmp/ccTIHD4k.s:125    .text:00000000000000b0 .L0 
GAS LISTING /tmp/ccTIHD4k.s 			page 17


     /tmp/ccTIHD4k.s:126    .text:00000000000000b0 .L0 
     /tmp/ccTIHD4k.s:128    .text:00000000000000b4 .L0 
     /tmp/ccTIHD4k.s:130    .text:00000000000000b8 .L0 
     /tmp/ccTIHD4k.s:132    .text:00000000000000bc .L0 
     /tmp/ccTIHD4k.s:133    .text:00000000000000bc .L0 
     /tmp/ccTIHD4k.s:136    .text:00000000000000c4 .L0 
     /tmp/ccTIHD4k.s:137    .text:00000000000000c4 .L0 
     /tmp/ccTIHD4k.s:139    .text:00000000000000c8 .L0 
     /tmp/ccTIHD4k.s:141    .text:00000000000000cc .L0 
     /tmp/ccTIHD4k.s:142    .text:00000000000000cc .L0 
     /tmp/ccTIHD4k.s:144    .text:00000000000000d0 .L0 
     /tmp/ccTIHD4k.s:146    .text:00000000000000d4 .L0 
     /tmp/ccTIHD4k.s:147    .text:00000000000000d4 .L0 
     /tmp/ccTIHD4k.s:149    .text:00000000000000d8 .L0 
     /tmp/ccTIHD4k.s:150    .text:00000000000000d8 .L0 
     /tmp/ccTIHD4k.s:156    .text:00000000000000dc .L0 
     /tmp/ccTIHD4k.s:157    .text:00000000000000dc .L0 
     /tmp/ccTIHD4k.s:159    .text:00000000000000e4 .L0 
     /tmp/ccTIHD4k.s:162    .text:00000000000000e8 .L0 
     /tmp/ccTIHD4k.s:163    .text:00000000000000e8 .L0 
     /tmp/ccTIHD4k.s:165    .text:00000000000000ec .L0 
     /tmp/ccTIHD4k.s:166    .text:00000000000000ec .L0 
     /tmp/ccTIHD4k.s:170    .text:00000000000000f0 .L0 
     /tmp/ccTIHD4k.s:171    .text:00000000000000f4 .L0 
     /tmp/ccTIHD4k.s:172    .text:00000000000000f4 .L0 
     /tmp/ccTIHD4k.s:173    .text:00000000000000f4 .L0 
     /tmp/ccTIHD4k.s:175    .text:00000000000000f8 .L0 
     /tmp/ccTIHD4k.s:179    .text:00000000000000fc .L0 
     /tmp/ccTIHD4k.s:182    .text:00000000000000fc .L0 
     /tmp/ccTIHD4k.s:183    .text:00000000000000fc .L0 
     /tmp/ccTIHD4k.s:185    .text:0000000000000100 .L0 
     /tmp/ccTIHD4k.s:187    .text:0000000000000104 .L0 
     /tmp/ccTIHD4k.s:188    .text:0000000000000104 .L0 
     /tmp/ccTIHD4k.s:191    .text:0000000000000108 .L0 
     /tmp/ccTIHD4k.s:194    .text:000000000000010c .L0 
     /tmp/ccTIHD4k.s:195    .text:000000000000010c .L0 
     /tmp/ccTIHD4k.s:197    .text:0000000000000110 .L0 
     /tmp/ccTIHD4k.s:199    .text:0000000000000114 .L0 
     /tmp/ccTIHD4k.s:200    .text:0000000000000114 .L0 
     /tmp/ccTIHD4k.s:202    .text:0000000000000118 .L0 
     /tmp/ccTIHD4k.s:207    .text:0000000000000120 .L0 
     /tmp/ccTIHD4k.s:208    .text:0000000000000120 .L0 
     /tmp/ccTIHD4k.s:210    .text:0000000000000124 .L0 
     /tmp/ccTIHD4k.s:215    .text:0000000000000130 .L0 
     /tmp/ccTIHD4k.s:218    .text:0000000000000138 .L0 
     /tmp/ccTIHD4k.s:224    .text:0000000000000138 _ZN15MemoryAllocator5mergeEP5BlockS1_
     /tmp/ccTIHD4k.s:227    .text:0000000000000138 .L0 
     /tmp/ccTIHD4k.s:229    .text:0000000000000138 .L0 
     /tmp/ccTIHD4k.s:230    .text:000000000000013c .L0 
     /tmp/ccTIHD4k.s:232    .text:0000000000000140 .L0 
     /tmp/ccTIHD4k.s:234    .text:0000000000000144 .L0 
     /tmp/ccTIHD4k.s:236    .text:0000000000000144 .L0 
     /tmp/ccTIHD4k.s:238    .text:0000000000000148 .L0 
     /tmp/ccTIHD4k.s:240    .text:000000000000014c .L0 
     /tmp/ccTIHD4k.s:241    .text:000000000000014c .L0 
     /tmp/ccTIHD4k.s:245    .text:0000000000000158 .L0 
     /tmp/ccTIHD4k.s:248    .text:0000000000000160 .L0 
GAS LISTING /tmp/ccTIHD4k.s 			page 18


     /tmp/ccTIHD4k.s:251    .text:0000000000000164 .L0 
     /tmp/ccTIHD4k.s:252    .text:0000000000000168 .L0 
     /tmp/ccTIHD4k.s:253    .text:0000000000000168 .L0 
     /tmp/ccTIHD4k.s:254    .text:0000000000000168 .L0 
     /tmp/ccTIHD4k.s:256    .text:000000000000016c .L0 
     /tmp/ccTIHD4k.s:259    .text:0000000000000170 .L0 
     /tmp/ccTIHD4k.s:261    .text:0000000000000170 .L0 
     /tmp/ccTIHD4k.s:262    .text:0000000000000170 .L0 
     /tmp/ccTIHD4k.s:264    .text:0000000000000174 .L0 
     /tmp/ccTIHD4k.s:268    .text:0000000000000180 .L0 
     /tmp/ccTIHD4k.s:269    .text:0000000000000180 .L0 
     /tmp/ccTIHD4k.s:271    .text:0000000000000184 .L0 
     /tmp/ccTIHD4k.s:273    .text:0000000000000188 .L0 
     /tmp/ccTIHD4k.s:275    .text:000000000000018c .L0 
     /tmp/ccTIHD4k.s:276    .text:000000000000018c .L0 
     /tmp/ccTIHD4k.s:278    .text:0000000000000194 .L0 
     /tmp/ccTIHD4k.s:284    .text:0000000000000194 _ZN15MemoryAllocator8mem_freeEPv
     /tmp/ccTIHD4k.s:287    .text:0000000000000194 .L0 
     /tmp/ccTIHD4k.s:289    .text:0000000000000194 .L0 
     /tmp/ccTIHD4k.s:290    .text:0000000000000194 .L0 
     /tmp/ccTIHD4k.s:292    .text:0000000000000198 .L0 
     /tmp/ccTIHD4k.s:295    .text:00000000000001a4 .L0 
     /tmp/ccTIHD4k.s:297    .text:00000000000001a8 .L0 
     /tmp/ccTIHD4k.s:300    .text:00000000000001b4 .L0 
     /tmp/ccTIHD4k.s:302    .text:00000000000001b8 .L0 
     /tmp/ccTIHD4k.s:303    .text:00000000000001bc .L0 
     /tmp/ccTIHD4k.s:308    .text:00000000000001cc .L0 
     /tmp/ccTIHD4k.s:309    .text:00000000000001cc .L0 
     /tmp/ccTIHD4k.s:310    .text:00000000000001cc .L0 
     /tmp/ccTIHD4k.s:311    .text:00000000000001cc .L0 
     /tmp/ccTIHD4k.s:313    .text:00000000000001d0 .L0 
     /tmp/ccTIHD4k.s:315    .text:00000000000001d0 .L0 
     /tmp/ccTIHD4k.s:316    .text:00000000000001d0 .L0 
     /tmp/ccTIHD4k.s:319    .text:00000000000001d4 .L0 
     /tmp/ccTIHD4k.s:320    .text:00000000000001d4 .L0 
     /tmp/ccTIHD4k.s:322    .text:00000000000001d8 .L0 
     /tmp/ccTIHD4k.s:324    .text:00000000000001dc .L0 
     /tmp/ccTIHD4k.s:325    .text:00000000000001dc .L0 
     /tmp/ccTIHD4k.s:329    .text:00000000000001e4 .L0 
     /tmp/ccTIHD4k.s:330    .text:00000000000001e4 .L0 
     /tmp/ccTIHD4k.s:331    .text:00000000000001e4 .L0 
     /tmp/ccTIHD4k.s:335    .text:00000000000001ec .L0 
     /tmp/ccTIHD4k.s:340    .text:00000000000001f8 .L0 
     /tmp/ccTIHD4k.s:343    .text:00000000000001fc .L0 
     /tmp/ccTIHD4k.s:346    .text:0000000000000200 .L0 
     /tmp/ccTIHD4k.s:347    .text:0000000000000200 .L0 
     /tmp/ccTIHD4k.s:351    .text:0000000000000204 .L0 
     /tmp/ccTIHD4k.s:353    .text:0000000000000208 .L0 
     /tmp/ccTIHD4k.s:354    .text:0000000000000208 .L0 
     /tmp/ccTIHD4k.s:357    .text:000000000000020c .L0 
     /tmp/ccTIHD4k.s:358    .text:000000000000020c .L0 
     /tmp/ccTIHD4k.s:360    .text:0000000000000210 .L0 
     /tmp/ccTIHD4k.s:362    .text:0000000000000214 .L0 
     /tmp/ccTIHD4k.s:363    .text:0000000000000214 .L0 
     /tmp/ccTIHD4k.s:366    .text:0000000000000218 .L0 
     /tmp/ccTIHD4k.s:367    .text:0000000000000218 .L0 
     /tmp/ccTIHD4k.s:369    .text:000000000000021c .L0 
GAS LISTING /tmp/ccTIHD4k.s 			page 19


     /tmp/ccTIHD4k.s:370    .text:000000000000021c .L0 
     /tmp/ccTIHD4k.s:372    .text:0000000000000224 .L0 
     /tmp/ccTIHD4k.s:375    .text:0000000000000228 .L0 
     /tmp/ccTIHD4k.s:376    .text:0000000000000228 .L0 
     /tmp/ccTIHD4k.s:381    .text:0000000000000234 .L0 
     /tmp/ccTIHD4k.s:382    .text:0000000000000234 .L0 
     /tmp/ccTIHD4k.s:387    .text:0000000000000244 .L0 
     /tmp/ccTIHD4k.s:388    .text:0000000000000244 .L0 
     /tmp/ccTIHD4k.s:392    .text:0000000000000248 .L0 
     /tmp/ccTIHD4k.s:393    .text:000000000000024c .L0 
     /tmp/ccTIHD4k.s:394    .text:000000000000024c .L0 
     /tmp/ccTIHD4k.s:396    .text:0000000000000250 .L0 
     /tmp/ccTIHD4k.s:397    .text:0000000000000250 .L0 
     /tmp/ccTIHD4k.s:399    .text:0000000000000254 .L0 
     /tmp/ccTIHD4k.s:402    .text:0000000000000258 .L0 
     /tmp/ccTIHD4k.s:404    .text:000000000000025c .L0 
     /tmp/ccTIHD4k.s:408    .text:0000000000000260 .L0 
     /tmp/ccTIHD4k.s:410    .text:0000000000000260 .L0 
     /tmp/ccTIHD4k.s:412    .text:0000000000000264 .L0 
     /tmp/ccTIHD4k.s:414    .text:0000000000000268 .L0 
     /tmp/ccTIHD4k.s:420    .text:0000000000000270 .L0 
     /tmp/ccTIHD4k.s:421    .text:0000000000000270 .L0 
     /tmp/ccTIHD4k.s:425    .text:000000000000027c .L0 
     /tmp/ccTIHD4k.s:426    .text:000000000000027c .L0 
     /tmp/ccTIHD4k.s:427    .text:000000000000027c .L0 
     /tmp/ccTIHD4k.s:428    .text:000000000000027c .L0 
     /tmp/ccTIHD4k.s:429    .text:000000000000027c .L0 
     /tmp/ccTIHD4k.s:431    .text:000000000000027c .L0 
     /tmp/ccTIHD4k.s:444    .text:0000000000000290 .L0 
     /tmp/ccTIHD4k.s:447    .text:0000000000000294 .L0 
     /tmp/ccTIHD4k.s:448    .text:0000000000000294 .L0 
     /tmp/ccTIHD4k.s:449    .text:0000000000000294 .L0 
     /tmp/ccTIHD4k.s:450    .text:0000000000000294 .L0 
     /tmp/ccTIHD4k.s:451    .text:0000000000000294 .L0 
     /tmp/ccTIHD4k.s:453    .text:0000000000000294 .L0 
     /tmp/ccTIHD4k.s:456    .text:000000000000029c .L0 
     /tmp/ccTIHD4k.s:479    .text:000000000000029c _ZN15MemoryAllocator5printEv
     /tmp/ccTIHD4k.s:482    .text:000000000000029c .L0 
     /tmp/ccTIHD4k.s:483    .text:000000000000029c .L0 
     /tmp/ccTIHD4k.s:484    .text:00000000000002a0 .L0 
     /tmp/ccTIHD4k.s:488    .text:00000000000002ac .L0 
     /tmp/ccTIHD4k.s:489    .text:00000000000002ac .L0 
     /tmp/ccTIHD4k.s:490    .text:00000000000002ac .L0 
     /tmp/ccTIHD4k.s:492    .text:00000000000002b0 .L0 
     /tmp/ccTIHD4k.s:494    .text:00000000000002b0 .L0 
     /tmp/ccTIHD4k.s:495    .text:00000000000002b0 .L0 
     /tmp/ccTIHD4k.s:500    .text:00000000000002c0 .L0 
     /tmp/ccTIHD4k.s:501    .text:00000000000002c0 .L0 
     /tmp/ccTIHD4k.s:505    .text:00000000000002c8 .L0 
     /tmp/ccTIHD4k.s:507    .text:00000000000002cc .L0 
     /tmp/ccTIHD4k.s:508    .text:00000000000002cc .L0 
     /tmp/ccTIHD4k.s:514    .text:00000000000002e0 .L0 
     /tmp/ccTIHD4k.s:515    .text:00000000000002e0 .L0 
     /tmp/ccTIHD4k.s:519    .text:00000000000002f0 .L0 
     /tmp/ccTIHD4k.s:520    .text:00000000000002f0 .L0 
     /tmp/ccTIHD4k.s:526    .text:0000000000000304 .L0 
     /tmp/ccTIHD4k.s:527    .text:0000000000000304 .L0 
GAS LISTING /tmp/ccTIHD4k.s 			page 20


     /tmp/ccTIHD4k.s:531    .text:0000000000000314 .L0 
     /tmp/ccTIHD4k.s:532    .text:0000000000000314 .L0 
     /tmp/ccTIHD4k.s:538    .text:0000000000000328 .L0 
     /tmp/ccTIHD4k.s:539    .text:0000000000000328 .L0 
     /tmp/ccTIHD4k.s:543    .text:0000000000000338 .L0 
     /tmp/ccTIHD4k.s:544    .text:0000000000000338 .L0 
     /tmp/ccTIHD4k.s:550    .text:000000000000034c .L0 
     /tmp/ccTIHD4k.s:551    .text:000000000000034c .L0 
     /tmp/ccTIHD4k.s:555    .text:000000000000035c .L0 
     /tmp/ccTIHD4k.s:556    .text:000000000000035c .L0 
     /tmp/ccTIHD4k.s:562    .text:0000000000000370 .L0 
     /tmp/ccTIHD4k.s:563    .text:0000000000000370 .L0 
     /tmp/ccTIHD4k.s:567    .text:0000000000000380 .L0 
     /tmp/ccTIHD4k.s:568    .text:0000000000000380 .L0 
     /tmp/ccTIHD4k.s:571    .text:0000000000000384 .L0 
     /tmp/ccTIHD4k.s:575    .text:0000000000000388 .L0 
     /tmp/ccTIHD4k.s:576    .text:0000000000000388 .L0 
     /tmp/ccTIHD4k.s:580    .text:0000000000000398 .L0 
     /tmp/ccTIHD4k.s:581    .text:000000000000039c .L0 
     /tmp/ccTIHD4k.s:583    .text:00000000000003a0 .L0 
     /tmp/ccTIHD4k.s:584    .text:00000000000003a0 .L0 
     /tmp/ccTIHD4k.s:586    .text:00000000000003a4 .L0 
     /tmp/ccTIHD4k.s:589    .text:00000000000003a8 .L0 
     /tmp/ccTIHD4k.s:591    .text:00000000000003ac .L0 
     /tmp/ccTIHD4k.s:600    .bss:0000000000000000 _ZN15MemoryAllocator4headE
     /tmp/ccTIHD4k.s:597    .bss:0000000000000000 .LANCHOR0
     /tmp/ccTIHD4k.s:607    .text:00000000000003ac .L0 
     /tmp/ccTIHD4k.s:22     .text:000000000000000c .L0 
     /tmp/ccTIHD4k.s:25     .text:0000000000000018 .L0 
     /tmp/ccTIHD4k.s:32     .text:0000000000000028 .L0 
     /tmp/ccTIHD4k.s:85     .text:0000000000000070 .L0 
     /tmp/ccTIHD4k.s:157    .text:00000000000000dc .L0 
     /tmp/ccTIHD4k.s:210    .text:0000000000000124 .L0 
     /tmp/ccTIHD4k.s:292    .text:0000000000000198 .L0 
     /tmp/ccTIHD4k.s:297    .text:00000000000001a8 .L0 
     /tmp/ccTIHD4k.s:331    .text:00000000000001e4 .L0 
     /tmp/ccTIHD4k.s:370    .text:000000000000021c .L0 
     /tmp/ccTIHD4k.s:421    .text:0000000000000270 .L0 
     /tmp/ccTIHD4k.s:461    .rodata.str1.8:0000000000000000 .LC0
     /tmp/ccTIHD4k.s:495    .text:00000000000002b0 .L0 
     /tmp/ccTIHD4k.s:501    .text:00000000000002c0 .L0 
     /tmp/ccTIHD4k.s:464    .rodata.str1.8:0000000000000038 .LC1
     /tmp/ccTIHD4k.s:515    .text:00000000000002e0 .L0 
     /tmp/ccTIHD4k.s:467    .rodata.str1.8:0000000000000040 .LC2
     /tmp/ccTIHD4k.s:527    .text:0000000000000304 .L0 
     /tmp/ccTIHD4k.s:539    .text:0000000000000328 .L0 
     /tmp/ccTIHD4k.s:551    .text:000000000000034c .L0 
     /tmp/ccTIHD4k.s:470    .rodata.str1.8:0000000000000048 .LC3
     /tmp/ccTIHD4k.s:563    .text:0000000000000370 .L0 
     /tmp/ccTIHD4k.s:473    .rodata.str1.8:0000000000000050 .LC4
     /tmp/ccTIHD4k.s:576    .text:0000000000000388 .L0 
     /tmp/ccTIHD4k.s:213    .text:0000000000000130 .L12
     /tmp/ccTIHD4k.s:93     .text:0000000000000080 .L7
     /tmp/ccTIHD4k.s:106    .text:0000000000000094 .L5
     /tmp/ccTIHD4k.s:88     .text:000000000000007c .L6
     /tmp/ccTIHD4k.s:168    .text:00000000000000f0 .L3
     /tmp/ccTIHD4k.s:178    .text:00000000000000fc .L8
GAS LISTING /tmp/ccTIHD4k.s 			page 21


     /tmp/ccTIHD4k.s:204    .text:0000000000000120 .L14
     /tmp/ccTIHD4k.s:192    .text:000000000000010c .L10
     /tmp/ccTIHD4k.s:152    .text:00000000000000dc .L9
     /tmp/ccTIHD4k.s:160    .text:00000000000000e8 .L11
     /tmp/ccTIHD4k.s:249    .text:0000000000000164 .L15
     /tmp/ccTIHD4k.s:258    .text:0000000000000170 .L18
     /tmp/ccTIHD4k.s:424    .text:000000000000027c .L28
     /tmp/ccTIHD4k.s:435    .text:0000000000000284 .L29
     /tmp/ccTIHD4k.s:440    .text:000000000000028c .L30
     /tmp/ccTIHD4k.s:446    .text:0000000000000294 .L31
     /tmp/ccTIHD4k.s:341    .text:00000000000001fc .L21
     /tmp/ccTIHD4k.s:333    .text:00000000000001ec .L22
     /tmp/ccTIHD4k.s:407    .text:0000000000000260 .L37
     /tmp/ccTIHD4k.s:355    .text:000000000000020c .L25
     /tmp/ccTIHD4k.s:364    .text:0000000000000218 .L26
     /tmp/ccTIHD4k.s:418    .text:0000000000000270 .L38
     /tmp/ccTIHD4k.s:344    .text:0000000000000200 .L23
     /tmp/ccTIHD4k.s:349    .text:0000000000000204 .L24
     /tmp/ccTIHD4k.s:373    .text:0000000000000228 .L27
     /tmp/ccTIHD4k.s:390    .text:0000000000000248 .L20
     /tmp/ccTIHD4k.s:572    .text:0000000000000388 .L40
     /tmp/ccTIHD4k.s:503    .text:00000000000002c8 .L41
     /tmp/ccTIHD4k.s:1206   .debug_abbrev:0000000000000000 .Ldebug_abbrev0
     /tmp/ccTIHD4k.s:2000   .debug_str:0000000000000175 .LASF44
     /tmp/ccTIHD4k.s:2026   .debug_str:00000000000002ef .LASF45
     /tmp/ccTIHD4k.s:2002   .debug_str:0000000000000239 .LASF46
     /tmp/ccTIHD4k.s:5      .text:0000000000000000 .Ltext0
     /tmp/ccTIHD4k.s:603    .text:00000000000003ac .Letext0
     /tmp/ccTIHD4k.s:1946   .debug_line:0000000000000000 .Ldebug_line0
     /tmp/ccTIHD4k.s:2012   .debug_str:0000000000000289 .LASF0
     /tmp/ccTIHD4k.s:1992   .debug_str:000000000000012a .LASF1
     /tmp/ccTIHD4k.s:1986   .debug_str:0000000000000101 .LASF2
     /tmp/ccTIHD4k.s:2008   .debug_str:0000000000000278 .LASF3
     /tmp/ccTIHD4k.s:1964   .debug_str:0000000000000066 .LASF4
     /tmp/ccTIHD4k.s:1990   .debug_str:0000000000000118 .LASF5
     /tmp/ccTIHD4k.s:1952   .debug_str:0000000000000023 .LASF6
     /tmp/ccTIHD4k.s:1948   .debug_str:0000000000000000 .LASF7
     /tmp/ccTIHD4k.s:1980   .debug_str:00000000000000be .LASF8
     /tmp/ccTIHD4k.s:2018   .debug_str:00000000000002a4 .LASF9
     /tmp/ccTIHD4k.s:1962   .debug_str:0000000000000058 .LASF10
     /tmp/ccTIHD4k.s:2052   .debug_str:0000000000000397 .LASF11
     /tmp/ccTIHD4k.s:1982   .debug_str:00000000000000d1 .LASF12
     /tmp/ccTIHD4k.s:2042   .debug_str:0000000000000367 .LASF13
     /tmp/ccTIHD4k.s:2028   .debug_str:0000000000000307 .LASF14
     /tmp/ccTIHD4k.s:1994   .debug_str:000000000000013d .LASF15
     /tmp/ccTIHD4k.s:1972   .debug_str:0000000000000080 .LASF16
     /tmp/ccTIHD4k.s:2020   .debug_str:00000000000002b4 .LASF17
     /tmp/ccTIHD4k.s:1998   .debug_str:000000000000016f .LASF47
     /tmp/ccTIHD4k.s:1954   .debug_str:000000000000002a .LASF18
     /tmp/ccTIHD4k.s:2048   .debug_str:0000000000000386 .LASF19
     /tmp/ccTIHD4k.s:2046   .debug_str:0000000000000381 .LASF20
     /tmp/ccTIHD4k.s:2030   .debug_str:0000000000000317 .LASF21
     /tmp/ccTIHD4k.s:1966   .debug_str:000000000000006d .LASF22
     /tmp/ccTIHD4k.s:1950   .debug_str:0000000000000013 .LASF48
     /tmp/ccTIHD4k.s:2006   .debug_str:0000000000000273 .LASF49
     /tmp/ccTIHD4k.s:1970   .debug_str:000000000000007b .LASF27
     /tmp/ccTIHD4k.s:2024   .debug_str:00000000000002d3 .LASF29
GAS LISTING /tmp/ccTIHD4k.s 			page 22


     /tmp/ccTIHD4k.s:2044   .debug_str:0000000000000377 .LASF23
     /tmp/ccTIHD4k.s:2040   .debug_str:0000000000000346 .LASF25
     /tmp/ccTIHD4k.s:2022   .debug_str:00000000000002ca .LASF24
     /tmp/ccTIHD4k.s:1984   .debug_str:00000000000000e0 .LASF26
     /tmp/ccTIHD4k.s:2014   .debug_str:0000000000000296 .LASF50
     /tmp/ccTIHD4k.s:1996   .debug_str:0000000000000149 .LASF51
     /tmp/ccTIHD4k.s:2036   .debug_str:000000000000033b .LASF28
     /tmp/ccTIHD4k.s:1974   .debug_str:0000000000000096 .LASF30
     /tmp/ccTIHD4k.s:1956   .debug_str:000000000000002f .LASF52
     /tmp/ccTIHD4k.s:480    .text:000000000000029c .LFB4
     /tmp/ccTIHD4k.s:592    .text:00000000000003ac .LFE4
     /tmp/ccTIHD4k.s:499    .text:00000000000002c0 .LBB5
     /tmp/ccTIHD4k.s:573    .text:0000000000000388 .LBE5
     /tmp/ccTIHD4k.s:1958   .debug_str:000000000000004a .LASF31
     /tmp/ccTIHD4k.s:1711   .debug_loc:0000000000000000 .LLST9
     /tmp/ccTIHD4k.s:512    .text:00000000000002e0 .LVL39
     /tmp/ccTIHD4k.s:517    .text:00000000000002f0 .LVL40
     /tmp/ccTIHD4k.s:524    .text:0000000000000304 .LVL41
     /tmp/ccTIHD4k.s:529    .text:0000000000000314 .LVL42
     /tmp/ccTIHD4k.s:536    .text:0000000000000328 .LVL43
     /tmp/ccTIHD4k.s:541    .text:0000000000000338 .LVL44
     /tmp/ccTIHD4k.s:548    .text:000000000000034c .LVL45
     /tmp/ccTIHD4k.s:553    .text:000000000000035c .LVL46
     /tmp/ccTIHD4k.s:560    .text:0000000000000370 .LVL47
     /tmp/ccTIHD4k.s:565    .text:0000000000000380 .LVL48
     /tmp/ccTIHD4k.s:497    .text:00000000000002c0 .LVL37
     /tmp/ccTIHD4k.s:578    .text:0000000000000398 .LVL50
     /tmp/ccTIHD4k.s:225    .text:0000000000000138 .LFB3
     /tmp/ccTIHD4k.s:279    .text:0000000000000194 .LFE3
     /tmp/ccTIHD4k.s:2038   .debug_str:0000000000000341 .LASF32
     /tmp/ccTIHD4k.s:1976   .debug_str:00000000000000b3 .LASF33
     /tmp/ccTIHD4k.s:285    .text:0000000000000194 .LFB2
     /tmp/ccTIHD4k.s:457    .text:000000000000029c .LFE2
     /tmp/ccTIHD4k.s:1978   .debug_str:00000000000000b9 .LASF34
     /tmp/ccTIHD4k.s:1718   .debug_loc:0000000000000023 .LLST5
     /tmp/ccTIHD4k.s:1988   .debug_str:000000000000010f .LASF35
     /tmp/ccTIHD4k.s:1781   .debug_loc:0000000000000114 .LLST6
     /tmp/ccTIHD4k.s:2016   .debug_str:000000000000029c .LASF36
     /tmp/ccTIHD4k.s:1805   .debug_loc:0000000000000175 .LLST7
     /tmp/ccTIHD4k.s:2010   .debug_str:000000000000027f .LASF37
     /tmp/ccTIHD4k.s:1833   .debug_loc:00000000000001f8 .LLST8
     /tmp/ccTIHD4k.s:379    .text:0000000000000234 .LVL22
     /tmp/ccTIHD4k.s:385    .text:0000000000000244 .LVL23
     /tmp/ccTIHD4k.s:67     .text:000000000000005c .LFB1
     /tmp/ccTIHD4k.s:219    .text:0000000000000138 .LFE1
     /tmp/ccTIHD4k.s:1854   .debug_loc:0000000000000256 .LLST1
     /tmp/ccTIHD4k.s:1879   .debug_loc:00000000000002b8 .LLST2
     /tmp/ccTIHD4k.s:1908   .debug_loc:000000000000031e .LLST3
     /tmp/ccTIHD4k.s:119    .text:00000000000000ac .LBB3
     /tmp/ccTIHD4k.s:153    .text:00000000000000dc .LBE3
     /tmp/ccTIHD4k.s:1960   .debug_str:000000000000004f .LASF38
     /tmp/ccTIHD4k.s:1919   .debug_loc:0000000000000354 .LLST4
     /tmp/ccTIHD4k.s:10     .text:0000000000000000 .LFB0
     /tmp/ccTIHD4k.s:61     .text:000000000000005c .LFE0
     /tmp/ccTIHD4k.s:2034   .debug_str:000000000000032b .LASF39
     /tmp/ccTIHD4k.s:1926   .debug_loc:0000000000000377 .LLST0
     /tmp/ccTIHD4k.s:2032   .debug_str:000000000000031c .LASF40
GAS LISTING /tmp/ccTIHD4k.s 			page 23


     /tmp/ccTIHD4k.s:1968   .debug_str:0000000000000072 .LASF42
     /tmp/ccTIHD4k.s:2004   .debug_str:0000000000000260 .LASF41
     /tmp/ccTIHD4k.s:2050   .debug_str:000000000000038b .LASF43
     /tmp/ccTIHD4k.s:502    .text:00000000000002c8 .LVL38
     /tmp/ccTIHD4k.s:587    .text:00000000000003a4 .LVL51
     /tmp/ccTIHD4k.s:288    .text:0000000000000194 .LVL15
     /tmp/ccTIHD4k.s:377    .text:000000000000022c .LVL21
     /tmp/ccTIHD4k.s:400    .text:0000000000000254 .LVL25
     /tmp/ccTIHD4k.s:406    .text:0000000000000260 .LVL26
     /tmp/ccTIHD4k.s:432    .text:0000000000000280 .LVL30
     /tmp/ccTIHD4k.s:434    .text:0000000000000284 .LVL31
     /tmp/ccTIHD4k.s:437    .text:0000000000000288 .LVL32
     /tmp/ccTIHD4k.s:439    .text:000000000000028c .LVL33
     /tmp/ccTIHD4k.s:442    .text:0000000000000290 .LVL34
     /tmp/ccTIHD4k.s:445    .text:0000000000000294 .LVL35
     /tmp/ccTIHD4k.s:454    .text:0000000000000298 .LVL36
     /tmp/ccTIHD4k.s:317    .text:00000000000001d4 .LVL16
     /tmp/ccTIHD4k.s:423    .text:000000000000027c .LVL29
     /tmp/ccTIHD4k.s:328    .text:00000000000001e4 .LVL17
     /tmp/ccTIHD4k.s:332    .text:00000000000001ec .LVL18
     /tmp/ccTIHD4k.s:337    .text:00000000000001f4 .LVL19
     /tmp/ccTIHD4k.s:415    .text:000000000000026c .LVL27
     /tmp/ccTIHD4k.s:417    .text:0000000000000270 .LVL28
     /tmp/ccTIHD4k.s:348    .text:0000000000000204 .LVL20
     /tmp/ccTIHD4k.s:389    .text:0000000000000248 .LVL24
     /tmp/ccTIHD4k.s:70     .text:000000000000005c .LVL3
     /tmp/ccTIHD4k.s:86     .text:0000000000000078 .LVL5
     /tmp/ccTIHD4k.s:212    .text:0000000000000130 .LVL12
     /tmp/ccTIHD4k.s:216    .text:0000000000000134 .LVL13
     /tmp/ccTIHD4k.s:82     .text:0000000000000070 .LVL4
     /tmp/ccTIHD4k.s:151    .text:00000000000000dc .LVL8
     /tmp/ccTIHD4k.s:167    .text:00000000000000f0 .LVL9
     /tmp/ccTIHD4k.s:177    .text:00000000000000fc .LVL10
     /tmp/ccTIHD4k.s:189    .text:0000000000000108 .LVL11
     /tmp/ccTIHD4k.s:123    .text:00000000000000b0 .LVL7
     /tmp/ccTIHD4k.s:29     .text:0000000000000028 .LVL0
     /tmp/ccTIHD4k.s:37     .text:0000000000000038 .LVL1
     /tmp/ccTIHD4k.s:608    .debug_info:0000000000000000 .Ldebug_info0

UNDEFINED SYMBOLS
HEAP_END_ADDR
HEAP_START_ADDR
_Z11printStringPKc
_Z8printIntiii
