GAS LISTING /tmp/ccnP82yL.s 			page 1


   1              		.file	"MemoryAllocator.cpp"
   2              		.option pic
   3              		.option norelax
   4              		.text
   5              	.Ltext0:
   6              		.align	2
   7              		.globl	_ZN15MemoryAllocator4initEv
   9              	_ZN15MemoryAllocator4initEv:
  10              	.LFB0:
  11              		.file 1 "src/MemoryAllocator.cpp"
   1:src/MemoryAllocator.cpp **** #include "../h/MemoryAllocator.hpp"
   2:src/MemoryAllocator.cpp **** 
   3:src/MemoryAllocator.cpp **** Block* MemoryAllocator::head = nullptr;
   4:src/MemoryAllocator.cpp **** void MemoryAllocator::init() {
  12              		.loc 1 4 30
  13              		.cfi_startproc
  14 0000 130101FF 		addi	sp,sp,-16
  15              		.cfi_def_cfa_offset 16
  16 0004 23348100 		sd	s0,8(sp)
  17              		.cfi_offset 8, -8
  18 0008 13040101 		addi	s0,sp,16
  19              		.cfi_def_cfa 8, 0
   5:src/MemoryAllocator.cpp ****     size_t total_heap_size = (char*)HEAP_END_ADDR - (char*)HEAP_START_ADDR;
  20              		.loc 1 5 5
  21              		.loc 1 5 30 is_stmt 0
  22 000c 97070000 		la	a5,HEAP_END_ADDR
  22      83B70700 
  23 0014 03B70700 		ld	a4,0(a5)
  24              		.loc 1 5 53
  25 0018 97070000 		la	a5,HEAP_START_ADDR
  25      83B70700 
  26 0020 83B70700 		ld	a5,0(a5)
  27              		.loc 1 5 51
  28 0024 3307F740 		sub	a4,a4,a5
  29              	.LVL0:
   6:src/MemoryAllocator.cpp **** 
   7:src/MemoryAllocator.cpp ****     head = (Block*)HEAP_START_ADDR; //incijalizujemo listu blokova
  30              		.loc 1 7 5 is_stmt 1
  31              		.loc 1 7 10 is_stmt 0
  32 0028 97060000 		lla	a3,.LANCHOR0
  32      93860600 
  33 0030 23B0F600 		sd	a5,0(a3)
   8:src/MemoryAllocator.cpp ****     head->size = total_heap_size - sizeof(Block); //velicina 1.blk
  34              		.loc 1 8 5 is_stmt 1
  35              		.loc 1 8 34 is_stmt 0
  36 0034 1B0787FE 		addiw	a4,a4,-24
  37              	.LVL1:
  38              		.loc 1 8 16
  39 0038 23A8E700 		sw	a4,16(a5)
   9:src/MemoryAllocator.cpp ****     head->free = true;
  40              		.loc 1 9 5 is_stmt 1
  41              		.loc 1 9 16 is_stmt 0
  42 003c 13071000 		li	a4,1
  43 0040 238AE700 		sb	a4,20(a5)
  10:src/MemoryAllocator.cpp ****     head->next = nullptr; //nema sl nema prethodni
  44              		.loc 1 10 5 is_stmt 1
  45              		.loc 1 10 16 is_stmt 0
GAS LISTING /tmp/ccnP82yL.s 			page 2


  46 0044 23B00700 		sd	zero,0(a5)
  47              	.LVL2:
  11:src/MemoryAllocator.cpp ****     head->prev = nullptr;
  48              		.loc 1 11 5 is_stmt 1
  49              		.loc 1 11 11 is_stmt 0
  50 0048 83B70600 		ld	a5,0(a3)
  51              		.loc 1 11 16
  52 004c 23B40700 		sd	zero,8(a5)
  12:src/MemoryAllocator.cpp **** }
  53              		.loc 1 12 1
  54 0050 03348100 		ld	s0,8(sp)
  55              		.cfi_restore 8
  56              		.cfi_def_cfa 2, 16
  57 0054 13010101 		addi	sp,sp,16
  58              		.cfi_def_cfa_offset 0
  59 0058 67800000 		jr	ra
  60              		.cfi_endproc
  61              	.LFE0:
  63              		.align	2
  64              		.globl	_ZN15MemoryAllocator9mem_allocEm
  66              	_ZN15MemoryAllocator9mem_allocEm:
  67              	.LFB1:
  13:src/MemoryAllocator.cpp **** 
  14:src/MemoryAllocator.cpp **** void *MemoryAllocator::mem_alloc(size_t s) {
  68              		.loc 1 14 44 is_stmt 1
  69              		.cfi_startproc
  70              	.LVL3:
  71 005c 130101FF 		addi	sp,sp,-16
  72              		.cfi_def_cfa_offset 16
  73 0060 23348100 		sd	s0,8(sp)
  74              		.cfi_offset 8, -8
  75 0064 13040101 		addi	s0,sp,16
  76              		.cfi_def_cfa 8, 0
  15:src/MemoryAllocator.cpp ****     if (s <= 0) return 0;
  77              		.loc 1 15 5
  78 0068 630C0506 		beqz	a0,.L7
  79 006c 93070500 		mv	a5,a0
  16:src/MemoryAllocator.cpp ****     size_t size=s;
  80              		.loc 1 16 5
  81              	.LVL4:
  17:src/MemoryAllocator.cpp **** 
  18:src/MemoryAllocator.cpp ****     Block* blk=head; //pronadji prvi slobodan blok dovoljne velicine
  82              		.loc 1 18 5
  83              		.loc 1 18 12 is_stmt 0
  84 0070 17050000 		ld	a0,.LANCHOR0
  84      03350500 
  85              	.LVL5:
  19:src/MemoryAllocator.cpp **** 
  20:src/MemoryAllocator.cpp ****     if (blk == nullptr) return nullptr;// ako nema dovoljno velikog bloka, vrati nullptr ??
  86              		.loc 1 20 5 is_stmt 1
  87 0078 630E0504 		beqz	a0,.L3
  21:src/MemoryAllocator.cpp **** 
  22:src/MemoryAllocator.cpp ****     if (blk->size > size + sizeof(Block)) { //ako moze da stane super
  88              		.loc 1 22 5
  89              	.LBB2:
  90              		.loc 1 22 14 is_stmt 0
  91 007c 83260501 		lw	a3,16(a0)
GAS LISTING /tmp/ccnP82yL.s 			page 3


  92 0080 13960602 		slli	a2,a3,32
  93 0084 13560602 		srli	a2,a2,32
  94              		.loc 1 22 26
  95 0088 13878701 		addi	a4,a5,24
  96              		.loc 1 22 5
  97 008c 6370C704 		bleu	a2,a4,.L5
  98              	.LBB3:
  23:src/MemoryAllocator.cpp ****         Block* newBlock = (Block*)((char*)blk + sizeof(Block) + size);
  99              		.loc 1 23 9 is_stmt 1
 100              		.loc 1 23 16 is_stmt 0
 101 0090 3307E500 		add	a4,a0,a4
 102              	.LVL6:
  24:src/MemoryAllocator.cpp ****         newBlock->size = blk->size - size - sizeof(Block);
 103              		.loc 1 24 9 is_stmt 1
 104              		.loc 1 24 36 is_stmt 0
 105 0094 1B860700 		sext.w	a2,a5
 106 0098 BB87F640 		subw	a5,a3,a5
 107              	.LVL7:
 108              		.loc 1 24 43
 109 009c 9B8787FE 		addiw	a5,a5,-24
 110              		.loc 1 24 24
 111 00a0 2328F700 		sw	a5,16(a4)
  25:src/MemoryAllocator.cpp ****         newBlock->free = true;
 112              		.loc 1 25 9 is_stmt 1
 113              		.loc 1 25 24 is_stmt 0
 114 00a4 93071000 		li	a5,1
 115 00a8 230AF700 		sb	a5,20(a4)
  26:src/MemoryAllocator.cpp ****         newBlock->next = blk->next;
 116              		.loc 1 26 9 is_stmt 1
 117              		.loc 1 26 31 is_stmt 0
 118 00ac 83370500 		ld	a5,0(a0)
 119              		.loc 1 26 24
 120 00b0 2330F700 		sd	a5,0(a4)
  27:src/MemoryAllocator.cpp ****         newBlock->prev = blk;
 121              		.loc 1 27 9 is_stmt 1
 122              		.loc 1 27 24 is_stmt 0
 123 00b4 2334A700 		sd	a0,8(a4)
  28:src/MemoryAllocator.cpp **** 
  29:src/MemoryAllocator.cpp ****         if (blk->next) {
 124              		.loc 1 29 9 is_stmt 1
 125              		.loc 1 29 18 is_stmt 0
 126 00b8 83370500 		ld	a5,0(a0)
 127              		.loc 1 29 9
 128 00bc 63840700 		beqz	a5,.L6
  30:src/MemoryAllocator.cpp ****             blk->next->prev = newBlock;
 129              		.loc 1 30 13 is_stmt 1
 130              		.loc 1 30 29 is_stmt 0
 131 00c0 23B4E700 		sd	a4,8(a5)
 132              	.L6:
  31:src/MemoryAllocator.cpp ****         }
  32:src/MemoryAllocator.cpp **** 
  33:src/MemoryAllocator.cpp ****         blk->next = newBlock;
 133              		.loc 1 33 9 is_stmt 1
 134              		.loc 1 33 19 is_stmt 0
 135 00c4 2330E500 		sd	a4,0(a0)
  34:src/MemoryAllocator.cpp ****         blk->size = size;
 136              		.loc 1 34 9 is_stmt 1
GAS LISTING /tmp/ccnP82yL.s 			page 4


 137              		.loc 1 34 19 is_stmt 0
 138 00c8 2328C500 		sw	a2,16(a0)
 139              	.LVL8:
 140              	.L5:
 141              	.LBE3:
 142              	.LBE2:
  35:src/MemoryAllocator.cpp ****     }
  36:src/MemoryAllocator.cpp ****     blk->free = false;
 143              		.loc 1 36 5 is_stmt 1
 144              		.loc 1 36 15 is_stmt 0
 145 00cc 230A0500 		sb	zero,20(a0)
  37:src/MemoryAllocator.cpp ****     return (void*)((char*)blk + sizeof(Block)); // korisni deo bloka
 146              		.loc 1 37 5 is_stmt 1
 147              		.loc 1 37 46 is_stmt 0
 148 00d0 13058501 		addi	a0,a0,24
 149              	.LVL9:
 150              	.L3:
  38:src/MemoryAllocator.cpp **** }
 151              		.loc 1 38 1
 152 00d4 03348100 		ld	s0,8(sp)
 153              		.cfi_remember_state
 154              		.cfi_restore 8
 155              		.cfi_def_cfa 2, 16
 156 00d8 13010101 		addi	sp,sp,16
 157              		.cfi_def_cfa_offset 0
 158 00dc 67800000 		jr	ra
 159              	.LVL10:
 160              	.L7:
 161              		.cfi_restore_state
  15:src/MemoryAllocator.cpp ****     size_t size=s;
 162              		.loc 1 15 24
 163 00e0 13050000 		li	a0,0
 164              	.LVL11:
 165 00e4 6FF01FFF 		j	.L3
 166              		.cfi_endproc
 167              	.LFE1:
 169              		.align	2
 170              		.globl	_ZN15MemoryAllocator8mem_freeEPv
 172              	_ZN15MemoryAllocator8mem_freeEPv:
 173              	.LFB2:
  39:src/MemoryAllocator.cpp **** 
  40:src/MemoryAllocator.cpp **** int MemoryAllocator::mem_free(void* addr) {
 174              		.loc 1 40 43 is_stmt 1
 175              		.cfi_startproc
 176              	.LVL12:
 177 00e8 130101FF 		addi	sp,sp,-16
 178              		.cfi_def_cfa_offset 16
 179 00ec 23348100 		sd	s0,8(sp)
 180              		.cfi_offset 8, -8
 181 00f0 13040101 		addi	s0,sp,16
 182              		.cfi_def_cfa 8, 0
  41:src/MemoryAllocator.cpp ****     if(addr==nullptr || addr > HEAP_END_ADDR || addr<HEAP_START_ADDR) return -1; //adresa nula
 183              		.loc 1 41 5
 184 00f4 63020504 		beqz	a0,.L11
 185              		.loc 1 41 30 is_stmt 0 discriminator 2
 186 00f8 97070000 		la	a5,HEAP_END_ADDR
 186      83B70700 
GAS LISTING /tmp/ccnP82yL.s 			page 5


 187 0100 83B70700 		ld	a5,0(a5)
 188              		.loc 1 41 22 discriminator 2
 189 0104 63EEA702 		bltu	a5,a0,.L12
 190              		.loc 1 41 53 discriminator 4
 191 0108 97070000 		la	a5,HEAP_START_ADDR
 191      83B70700 
 192 0110 83B70700 		ld	a5,0(a5)
 193              		.loc 1 41 46 discriminator 4
 194 0114 636AF502 		bgtu	a5,a0,.L13
  42:src/MemoryAllocator.cpp ****     Block* trenutni = (Block*)((char*)addr - sizeof(Block)); // da dobijem blok iz adrese??
 195              		.loc 1 42 5 is_stmt 1
 196              	.LVL13:
  43:src/MemoryAllocator.cpp **** 
  44:src/MemoryAllocator.cpp ****     if (trenutni->free) return -2; // vec slobodno
 197              		.loc 1 44 5
 198              		.loc 1 44 19 is_stmt 0
 199 0118 8347C5FF 		lbu	a5,-4(a0)
 200              		.loc 1 44 5
 201 011c 639A0702 		bnez	a5,.L14
  45:src/MemoryAllocator.cpp ****     trenutni->free=true;
 202              		.loc 1 45 5 is_stmt 1
 203              		.loc 1 45 19 is_stmt 0
 204 0120 93071000 		li	a5,1
 205 0124 230EF5FE 		sb	a5,-4(a0)
  46:src/MemoryAllocator.cpp ****     if (!trenutni->next && trenutni->next->free) {
 206              		.loc 1 46 5 is_stmt 1
  47:src/MemoryAllocator.cpp ****         merge(trenutni, trenutni->next);
  48:src/MemoryAllocator.cpp ****     }
  49:src/MemoryAllocator.cpp ****     if (!trenutni->prev && trenutni->prev->free)
 207              		.loc 1 49 5
  50:src/MemoryAllocator.cpp ****         merge(trenutni, trenutni->prev);
  51:src/MemoryAllocator.cpp **** 
  52:src/MemoryAllocator.cpp ****     trenutni = nullptr;
  53:src/MemoryAllocator.cpp ****     return 0;
 208              		.loc 1 53 12 is_stmt 0
 209 0128 13050000 		li	a0,0
 210              	.LVL14:
 211              	.L10:
  54:src/MemoryAllocator.cpp **** }
 212              		.loc 1 54 1
 213 012c 03348100 		ld	s0,8(sp)
 214              		.cfi_remember_state
 215              		.cfi_restore 8
 216              		.cfi_def_cfa 2, 16
 217 0130 13010101 		addi	sp,sp,16
 218              		.cfi_def_cfa_offset 0
 219 0134 67800000 		jr	ra
 220              	.LVL15:
 221              	.L11:
 222              		.cfi_restore_state
  41:src/MemoryAllocator.cpp ****     Block* trenutni = (Block*)((char*)addr - sizeof(Block)); // da dobijem blok iz adrese??
 223              		.loc 1 41 79
 224 0138 1305F0FF 		li	a0,-1
 225              	.LVL16:
 226 013c 6FF01FFF 		j	.L10
 227              	.LVL17:
 228              	.L12:
GAS LISTING /tmp/ccnP82yL.s 			page 6


 229 0140 1305F0FF 		li	a0,-1
 230              	.LVL18:
 231 0144 6FF09FFE 		j	.L10
 232              	.LVL19:
 233              	.L13:
 234 0148 1305F0FF 		li	a0,-1
 235              	.LVL20:
 236 014c 6FF01FFE 		j	.L10
 237              	.LVL21:
 238              	.L14:
  44:src/MemoryAllocator.cpp ****     trenutni->free=true;
 239              		.loc 1 44 33
 240 0150 1305E0FF 		li	a0,-2
 241              	.LVL22:
 242 0154 6FF09FFD 		j	.L10
 243              		.cfi_endproc
 244              	.LFE2:
 246              		.align	2
 247              		.globl	_ZN15MemoryAllocator5mergeEP5BlockS1_
 249              	_ZN15MemoryAllocator5mergeEP5BlockS1_:
 250              	.LFB3:
  55:src/MemoryAllocator.cpp **** 
  56:src/MemoryAllocator.cpp **** 
  57:src/MemoryAllocator.cpp **** void MemoryAllocator::merge(Block *prvi,Block *drugi) {
 251              		.loc 1 57 55 is_stmt 1
 252              		.cfi_startproc
 253              	.LVL23:
 254 0158 130101FF 		addi	sp,sp,-16
 255              		.cfi_def_cfa_offset 16
 256 015c 23348100 		sd	s0,8(sp)
 257              		.cfi_offset 8, -8
 258 0160 13040101 		addi	s0,sp,16
 259              		.cfi_def_cfa 8, 0
  58:src/MemoryAllocator.cpp ****     if (prvi == nullptr || drugi == nullptr) {
 260              		.loc 1 58 5
  59:src/MemoryAllocator.cpp ****         return;
  60:src/MemoryAllocator.cpp ****     }
  61:src/MemoryAllocator.cpp **** 
  62:src/MemoryAllocator.cpp **** 
  63:src/MemoryAllocator.cpp **** }
 261              		.loc 1 63 1 is_stmt 0
 262 0164 03348100 		ld	s0,8(sp)
 263              		.cfi_restore 8
 264              		.cfi_def_cfa 2, 16
 265 0168 13010101 		addi	sp,sp,16
 266              		.cfi_def_cfa_offset 0
 267 016c 67800000 		jr	ra
 268              		.cfi_endproc
 269              	.LFE3:
 271              		.globl	_ZN15MemoryAllocator4headE
 272              		.bss
 273              		.align	3
 274              		.set	.LANCHOR0,. + 0
 277              	_ZN15MemoryAllocator4headE:
 278 0000 00000000 		.zero	8
 278      00000000 
 279              		.text
GAS LISTING /tmp/ccnP82yL.s 			page 7


 280              	.Letext0:
 281              		.file 2 "src/../h/../lib/hw.h"
 282              		.file 3 "src/../h/MemoryAllocator.hpp"
GAS LISTING /tmp/ccnP82yL.s 			page 8

