GAS LISTING /tmp/ccN53Vba.s 			page 1


   1              		.file	"scheduler.cpp"
   2              		.option pic
   3              		.option norelax
   4              		.text
   5              	.Ltext0:
   6              		.align	2
   8              	_Z41__static_initialization_and_destruction_0ii:
   9              	.LFB19:
  10              		.file 1 "src/scheduler.cpp"
   1:src/scheduler.cpp **** //
   2:src/scheduler.cpp **** // Created by os on 9/13/24.
   3:src/scheduler.cpp **** //
   4:src/scheduler.cpp **** #include "../h/scheduler.hpp"
   5:src/scheduler.cpp **** List<TCB> Scheduler::readyThreadQueue;
   6:src/scheduler.cpp **** 
   7:src/scheduler.cpp **** 
   8:src/scheduler.cpp **** void Scheduler::put(TCB *ccb) {
   9:src/scheduler.cpp ****     readyThreadQueue.addLast(ccb);
  10:src/scheduler.cpp **** }
  11:src/scheduler.cpp **** 
  12:src/scheduler.cpp **** 
  13:src/scheduler.cpp **** TCB *Scheduler::get() {
  14:src/scheduler.cpp ****     return readyThreadQueue.removeFirst();
  15:src/scheduler.cpp **** }...
  11              		.loc 1 15 1
  12              		.cfi_startproc
  13              	.LVL0:
  14 0000 130101FF 		addi	sp,sp,-16
  15              		.cfi_def_cfa_offset 16
  16 0004 23348100 		sd	s0,8(sp)
  17              		.cfi_offset 8, -8
  18 0008 13040101 		addi	s0,sp,16
  19              		.cfi_def_cfa 8, 0
  20              		.loc 1 15 1 is_stmt 0
  21 000c 93071000 		li	a5,1
  22 0010 6308F500 		beq	a0,a5,.L4
  23              	.L1:
  24 0014 03348100 		ld	s0,8(sp)
  25              		.cfi_remember_state
  26              		.cfi_restore 8
  27              		.cfi_def_cfa 2, 16
  28 0018 13010101 		addi	sp,sp,16
  29              		.cfi_def_cfa_offset 0
  30 001c 67800000 		jr	ra
  31              	.L4:
  32              		.cfi_restore_state
  33              		.loc 1 15 1 discriminator 1
  34 0020 B7070100 		li	a5,65536
  35 0024 9387F7FF 		addi	a5,a5,-1
  36 0028 E396F5FE 		bne	a1,a5,.L1
  37              	.LVL1:
  38              	.LBB15:
  39              	.LBB16:
  40              	.LBB17:
  41              		.file 2 "src/../h/list.hpp"
   1:src/../h/list.hpp **** //
   2:src/../h/list.hpp **** // Created by os on 9/13/24.
GAS LISTING /tmp/ccN53Vba.s 			page 2


   3:src/../h/list.hpp **** //
   4:src/../h/list.hpp **** 
   5:src/../h/list.hpp **** #ifndef LIST_HPP
   6:src/../h/list.hpp **** #define LIST_HPP
   7:src/../h/list.hpp **** 
   8:src/../h/list.hpp **** #include "../lib/mem.h"
   9:src/../h/list.hpp **** #include "MemoryAllocator.hpp"
  10:src/../h/list.hpp **** template<typename T>
  11:src/../h/list.hpp **** class List{
  12:src/../h/list.hpp ****         private:
  13:src/../h/list.hpp ****         struct Elem
  14:src/../h/list.hpp ****         {
  15:src/../h/list.hpp ****             T *data;
  16:src/../h/list.hpp ****             Elem *next;
  17:src/../h/list.hpp **** 
  18:src/../h/list.hpp ****             Elem(T *data, Elem *next) : data(data), next(next) {}
  19:src/../h/list.hpp **** 
  20:src/../h/list.hpp ****         };
  21:src/../h/list.hpp **** 
  22:src/../h/list.hpp ****         public:
  23:src/../h/list.hpp **** 
  24:src/../h/list.hpp ****         Elem *head, *tail;
  25:src/../h/list.hpp ****         List() : head(0), tail(0) {}
  42              		.loc 2 25 33
  43 002c 97070000 		lla	a5,.LANCHOR0
  43      93870700 
  44 0034 23B00700 		sd	zero,0(a5)
  45 0038 23B40700 		sd	zero,8(a5)
  46              	.LVL2:
  47              	.LBE17:
  48              	.LBE16:
  49              	.LBE15:
  50              		.loc 1 15 1
  51 003c 6FF09FFD 		j	.L1
  52              		.cfi_endproc
  53              	.LFE19:
  55              		.align	2
  56              		.globl	_ZN9Scheduler3putEP3TCB
  58              	_ZN9Scheduler3putEP3TCB:
  59              	.LFB9:
   8:src/scheduler.cpp **** void Scheduler::put(TCB *ccb) {
  60              		.loc 1 8 31 is_stmt 1
  61              		.cfi_startproc
  62              	.LVL3:
  63 0040 130101FE 		addi	sp,sp,-32
  64              		.cfi_def_cfa_offset 32
  65 0044 233C1100 		sd	ra,24(sp)
  66 0048 23388100 		sd	s0,16(sp)
  67 004c 23349100 		sd	s1,8(sp)
  68              		.cfi_offset 1, -8
  69              		.cfi_offset 8, -16
  70              		.cfi_offset 9, -24
  71 0050 13040102 		addi	s0,sp,32
  72              		.cfi_def_cfa 8, 0
  73 0054 93040500 		mv	s1,a0
   9:src/scheduler.cpp ****     readyThreadQueue.addLast(ccb);
  74              		.loc 1 9 5
GAS LISTING /tmp/ccN53Vba.s 			page 3


  75              	.LVL4:
  76              	.LBB18:
  77              	.LBB19:
  26:src/../h/list.hpp **** 
  27:src/../h/list.hpp ****         List(const List<T> &) = delete;
  28:src/../h/list.hpp **** 
  29:src/../h/list.hpp **** 
  30:src/../h/list.hpp ****         List<T> &operator=(const List<T> &) = delete;
  31:src/../h/list.hpp **** 
  32:src/../h/list.hpp ****         void addFirst(T *data)
  33:src/../h/list.hpp ****         {
  34:src/../h/list.hpp ****             Elem *elem = new Elem(data, head);
  35:src/../h/list.hpp ****             head = elem;
  36:src/../h/list.hpp ****             if (!tail) { tail = head; }
  37:src/../h/list.hpp ****         }
  38:src/../h/list.hpp **** 
  39:src/../h/list.hpp ****         void addLast(T *data)
  40:src/../h/list.hpp ****         {
  41:src/../h/list.hpp ****             Elem *elem = new Elem(data, 0);
  78              		.loc 2 41 26 is_stmt 0
  79 0058 13050001 		li	a0,16
  80              	.LVL5:
  81 005c 97000000 		call	_Znwm@plt
  81      E7800000 
  82              	.LVL6:
  83              	.LBB20:
  84              	.LBB21:
  18:src/../h/list.hpp **** 
  85              		.loc 2 18 62
  86 0064 23309500 		sd	s1,0(a0)
  87 0068 23340500 		sd	zero,8(a0)
  88              	.LVL7:
  89              	.LBE21:
  90              	.LBE20:
  42:src/../h/list.hpp ****             if (tail)
  91              		.loc 2 42 17
  92 006c 97070000 		ld	a5,.LANCHOR0+8
  92      83B70700 
  93              		.loc 2 42 13
  94 0074 63820702 		beqz	a5,.L6
  43:src/../h/list.hpp ****             {
  44:src/../h/list.hpp ****                 tail->next = elem;
  95              		.loc 2 44 17
  96 0078 23B4A700 		sd	a0,8(a5)
  45:src/../h/list.hpp ****                 tail = elem;
  97              		.loc 2 45 17
  98 007c 97070000 		sd	a0,.LANCHOR0+8,a5
  98      23B0A700 
  99              	.LVL8:
 100              	.L5:
 101              	.LBE19:
 102              	.LBE18:
  10:src/scheduler.cpp **** }
 103              		.loc 1 10 1
 104 0084 83308101 		ld	ra,24(sp)
 105              		.cfi_remember_state
 106              		.cfi_restore 1
GAS LISTING /tmp/ccN53Vba.s 			page 4


 107 0088 03340101 		ld	s0,16(sp)
 108              		.cfi_restore 8
 109              		.cfi_def_cfa 2, 32
 110 008c 83348100 		ld	s1,8(sp)
 111              		.cfi_restore 9
 112              	.LVL9:
 113 0090 13010102 		addi	sp,sp,32
 114              		.cfi_def_cfa_offset 0
 115 0094 67800000 		jr	ra
 116              	.LVL10:
 117              	.L6:
 118              		.cfi_restore_state
 119              	.LBB23:
 120              	.LBB22:
  46:src/../h/list.hpp ****             } else
  47:src/../h/list.hpp ****             {
  48:src/../h/list.hpp ****                 head = tail = elem;
 121              		.loc 2 48 17
 122 0098 97070000 		lla	a5,.LANCHOR0
 122      93870700 
 123 00a0 23B4A700 		sd	a0,8(a5)
 124 00a4 23B0A700 		sd	a0,0(a5)
 125              	.LVL11:
 126              	.LBE22:
 127              	.LBE23:
  10:src/scheduler.cpp **** }
 128              		.loc 1 10 1
 129 00a8 6FF0DFFD 		j	.L5
 130              		.cfi_endproc
 131              	.LFE9:
 133              		.align	2
 134              		.globl	_ZN9Scheduler3getEv
 136              	_ZN9Scheduler3getEv:
 137              	.LFB10:
  13:src/scheduler.cpp **** TCB *Scheduler::get() {
 138              		.loc 1 13 23 is_stmt 1
 139              		.cfi_startproc
 140 00ac 130101FE 		addi	sp,sp,-32
 141              		.cfi_def_cfa_offset 32
 142 00b0 233C1100 		sd	ra,24(sp)
 143 00b4 23388100 		sd	s0,16(sp)
 144 00b8 23349100 		sd	s1,8(sp)
 145              		.cfi_offset 1, -8
 146              		.cfi_offset 8, -16
 147              		.cfi_offset 9, -24
 148 00bc 13040102 		addi	s0,sp,32
 149              		.cfi_def_cfa 8, 0
  14:src/scheduler.cpp ****     return readyThreadQueue.removeFirst();
 150              		.loc 1 14 5
 151              	.LVL12:
 152              	.LBB24:
 153              	.LBB25:
  49:src/../h/list.hpp ****             }
  50:src/../h/list.hpp ****         }
  51:src/../h/list.hpp **** 
  52:src/../h/list.hpp ****         T *removeFirst()
  53:src/../h/list.hpp ****         {
GAS LISTING /tmp/ccN53Vba.s 			page 5


  54:src/../h/list.hpp ****             if (!head) { return 0; }
 154              		.loc 2 54 18 is_stmt 0
 155 00c0 17050000 		ld	a0,.LANCHOR0
 155      03350500 
 156              		.loc 2 54 13
 157 00c8 63020504 		beqz	a0,.L12
 158              	.LVL13:
  55:src/../h/list.hpp **** 
  56:src/../h/list.hpp ****             Elem *elem = head;
  57:src/../h/list.hpp ****             head = head->next;
 159              		.loc 2 57 26
 160 00cc 83378500 		ld	a5,8(a0)
 161              		.loc 2 57 13
 162 00d0 17070000 		sd	a5,.LANCHOR0,a4
 162      2330F700 
  58:src/../h/list.hpp ****             if (!head) { tail = 0; }
 163              		.loc 2 58 13
 164 00d8 63840702 		beqz	a5,.L14
 165              	.L11:
  59:src/../h/list.hpp **** 
  60:src/../h/list.hpp ****             T *ret = elem->data;
 166              		.loc 2 60 16
 167 00dc 83340500 		ld	s1,0(a0)
 168              	.LVL14:
  61:src/../h/list.hpp ****             delete elem;
 169              		.loc 2 61 13
 170 00e0 97000000 		call	_ZdlPv@plt
 170      E7800000 
 171              	.LVL15:
 172              	.L9:
 173              	.LBE25:
 174              	.LBE24:
 175              		.loc 1 15 1
 176 00e8 13850400 		mv	a0,s1
 177 00ec 83308101 		ld	ra,24(sp)
 178              		.cfi_remember_state
 179              		.cfi_restore 1
 180 00f0 03340101 		ld	s0,16(sp)
 181              		.cfi_restore 8
 182              		.cfi_def_cfa 2, 32
 183 00f4 83348100 		ld	s1,8(sp)
 184              		.cfi_restore 9
 185 00f8 13010102 		addi	sp,sp,32
 186              		.cfi_def_cfa_offset 0
 187 00fc 67800000 		jr	ra
 188              	.LVL16:
 189              	.L14:
 190              		.cfi_restore_state
 191              	.LBB27:
 192              	.LBB26:
  58:src/../h/list.hpp ****             if (!head) { tail = 0; }
 193              		.loc 2 58 26
 194 0100 97070000 		sd	zero,.LANCHOR0+8,a5
 194      23B00700 
 195 0108 6FF05FFD 		j	.L11
 196              	.LVL17:
 197              	.L12:
GAS LISTING /tmp/ccN53Vba.s 			page 6


  54:src/../h/list.hpp **** 
 198              		.loc 2 54 33
 199 010c 93040500 		mv	s1,a0
 200              	.LVL18:
 201              	.LBE26:
 202              	.LBE27:
  14:src/scheduler.cpp ****     return readyThreadQueue.removeFirst();
 203              		.loc 1 14 41
 204 0110 6FF09FFD 		j	.L9
 205              		.cfi_endproc
 206              	.LFE10:
 208              		.align	2
 210              	_GLOBAL__sub_I__ZN9Scheduler16readyThreadQueueE:
 211              	.LFB20:
 212              		.loc 1 15 1 is_stmt 1
 213              		.cfi_startproc
 214 0114 130101FF 		addi	sp,sp,-16
 215              		.cfi_def_cfa_offset 16
 216 0118 23341100 		sd	ra,8(sp)
 217 011c 23308100 		sd	s0,0(sp)
 218              		.cfi_offset 1, -8
 219              		.cfi_offset 8, -16
 220 0120 13040101 		addi	s0,sp,16
 221              		.cfi_def_cfa 8, 0
 222              		.loc 1 15 1 is_stmt 0
 223 0124 B7050100 		li	a1,65536
 224 0128 9385F5FF 		addi	a1,a1,-1
 225 012c 13051000 		li	a0,1
 226 0130 97000000 		call	_Z41__static_initialization_and_destruction_0ii
 226      E7800000 
 227              	.LVL19:
 228 0138 83308100 		ld	ra,8(sp)
 229              		.cfi_restore 1
 230 013c 03340100 		ld	s0,0(sp)
 231              		.cfi_restore 8
 232              		.cfi_def_cfa 2, 16
 233 0140 13010101 		addi	sp,sp,16
 234              		.cfi_def_cfa_offset 0
 235 0144 67800000 		jr	ra
 236              		.cfi_endproc
 237              	.LFE20:
 239              		.section	.init_array,"aw"
 240              		.align	3
 241 0000 00000000 		.dword	_GLOBAL__sub_I__ZN9Scheduler16readyThreadQueueE
 241      00000000 
 242              		.globl	_ZN9Scheduler16readyThreadQueueE
 243              		.bss
 244              		.align	3
 245              		.set	.LANCHOR0,. + 0
 248              	_ZN9Scheduler16readyThreadQueueE:
 249 0000 00000000 		.zero	16
 249      00000000 
 249      00000000 
 249      00000000 
 250              		.text
 251              	.Letext0:
 252              		.file 3 "src/../h/../lib/hw.h"
GAS LISTING /tmp/ccN53Vba.s 			page 7


 253              		.file 4 "src/../h/scheduler.hpp"
GAS LISTING /tmp/ccN53Vba.s 			page 8


DEFINED SYMBOLS
                            *ABS*:0000000000000000 scheduler.cpp
     /tmp/ccN53Vba.s:8      .text:0000000000000000 _Z41__static_initialization_and_destruction_0ii
     /tmp/ccN53Vba.s:12     .text:0000000000000000 .L0 
     /tmp/ccN53Vba.s:14     .text:0000000000000000 .L0 
     /tmp/ccN53Vba.s:15     .text:0000000000000004 .L0 
     /tmp/ccN53Vba.s:17     .text:0000000000000008 .L0 
     /tmp/ccN53Vba.s:19     .text:000000000000000c .L0 
     /tmp/ccN53Vba.s:21     .text:000000000000000c .L0 
     /tmp/ccN53Vba.s:25     .text:0000000000000018 .L0 
     /tmp/ccN53Vba.s:26     .text:0000000000000018 .L0 
     /tmp/ccN53Vba.s:27     .text:0000000000000018 .L0 
     /tmp/ccN53Vba.s:29     .text:000000000000001c .L0 
     /tmp/ccN53Vba.s:32     .text:0000000000000020 .L0 
     /tmp/ccN53Vba.s:34     .text:0000000000000020 .L0 
     /tmp/ccN53Vba.s:43     .text:000000000000002c .L0 
     /tmp/ccN53Vba.s:51     .text:000000000000003c .L0 
     /tmp/ccN53Vba.s:52     .text:0000000000000040 .L0 
     /tmp/ccN53Vba.s:58     .text:0000000000000040 _ZN9Scheduler3putEP3TCB
     /tmp/ccN53Vba.s:61     .text:0000000000000040 .L0 
     /tmp/ccN53Vba.s:63     .text:0000000000000040 .L0 
     /tmp/ccN53Vba.s:64     .text:0000000000000044 .L0 
     /tmp/ccN53Vba.s:68     .text:0000000000000050 .L0 
     /tmp/ccN53Vba.s:69     .text:0000000000000050 .L0 
     /tmp/ccN53Vba.s:70     .text:0000000000000050 .L0 
     /tmp/ccN53Vba.s:72     .text:0000000000000054 .L0 
     /tmp/ccN53Vba.s:78     .text:0000000000000058 .L0 
     /tmp/ccN53Vba.s:79     .text:0000000000000058 .L0 
     /tmp/ccN53Vba.s:86     .text:0000000000000064 .L0 
     /tmp/ccN53Vba.s:92     .text:000000000000006c .L0 
     /tmp/ccN53Vba.s:94     .text:0000000000000074 .L0 
     /tmp/ccN53Vba.s:96     .text:0000000000000078 .L0 
     /tmp/ccN53Vba.s:98     .text:000000000000007c .L0 
     /tmp/ccN53Vba.s:104    .text:0000000000000084 .L0 
     /tmp/ccN53Vba.s:105    .text:0000000000000088 .L0 
     /tmp/ccN53Vba.s:106    .text:0000000000000088 .L0 
     /tmp/ccN53Vba.s:108    .text:000000000000008c .L0 
     /tmp/ccN53Vba.s:109    .text:000000000000008c .L0 
     /tmp/ccN53Vba.s:111    .text:0000000000000090 .L0 
     /tmp/ccN53Vba.s:114    .text:0000000000000094 .L0 
     /tmp/ccN53Vba.s:118    .text:0000000000000098 .L0 
     /tmp/ccN53Vba.s:122    .text:0000000000000098 .L0 
     /tmp/ccN53Vba.s:129    .text:00000000000000a8 .L0 
     /tmp/ccN53Vba.s:130    .text:00000000000000ac .L0 
     /tmp/ccN53Vba.s:136    .text:00000000000000ac _ZN9Scheduler3getEv
     /tmp/ccN53Vba.s:139    .text:00000000000000ac .L0 
     /tmp/ccN53Vba.s:140    .text:00000000000000ac .L0 
     /tmp/ccN53Vba.s:141    .text:00000000000000b0 .L0 
     /tmp/ccN53Vba.s:145    .text:00000000000000bc .L0 
     /tmp/ccN53Vba.s:146    .text:00000000000000bc .L0 
     /tmp/ccN53Vba.s:147    .text:00000000000000bc .L0 
     /tmp/ccN53Vba.s:149    .text:00000000000000c0 .L0 
     /tmp/ccN53Vba.s:154    .text:00000000000000c0 .L0 
     /tmp/ccN53Vba.s:155    .text:00000000000000c0 .L0 
     /tmp/ccN53Vba.s:157    .text:00000000000000c8 .L0 
     /tmp/ccN53Vba.s:160    .text:00000000000000cc .L0 
     /tmp/ccN53Vba.s:162    .text:00000000000000d0 .L0 
GAS LISTING /tmp/ccN53Vba.s 			page 9


     /tmp/ccN53Vba.s:164    .text:00000000000000d8 .L0 
     /tmp/ccN53Vba.s:167    .text:00000000000000dc .L0 
     /tmp/ccN53Vba.s:170    .text:00000000000000e0 .L0 
     /tmp/ccN53Vba.s:176    .text:00000000000000e8 .L0 
     /tmp/ccN53Vba.s:178    .text:00000000000000f0 .L0 
     /tmp/ccN53Vba.s:179    .text:00000000000000f0 .L0 
     /tmp/ccN53Vba.s:181    .text:00000000000000f4 .L0 
     /tmp/ccN53Vba.s:182    .text:00000000000000f4 .L0 
     /tmp/ccN53Vba.s:184    .text:00000000000000f8 .L0 
     /tmp/ccN53Vba.s:186    .text:00000000000000fc .L0 
     /tmp/ccN53Vba.s:190    .text:0000000000000100 .L0 
     /tmp/ccN53Vba.s:194    .text:0000000000000100 .L0 
     /tmp/ccN53Vba.s:199    .text:000000000000010c .L0 
     /tmp/ccN53Vba.s:204    .text:0000000000000110 .L0 
     /tmp/ccN53Vba.s:205    .text:0000000000000114 .L0 
     /tmp/ccN53Vba.s:210    .text:0000000000000114 _GLOBAL__sub_I__ZN9Scheduler16readyThreadQueueE
     /tmp/ccN53Vba.s:213    .text:0000000000000114 .L0 
     /tmp/ccN53Vba.s:214    .text:0000000000000114 .L0 
     /tmp/ccN53Vba.s:215    .text:0000000000000118 .L0 
     /tmp/ccN53Vba.s:218    .text:0000000000000120 .L0 
     /tmp/ccN53Vba.s:219    .text:0000000000000120 .L0 
     /tmp/ccN53Vba.s:221    .text:0000000000000124 .L0 
     /tmp/ccN53Vba.s:223    .text:0000000000000124 .L0 
     /tmp/ccN53Vba.s:229    .text:000000000000013c .L0 
     /tmp/ccN53Vba.s:231    .text:0000000000000140 .L0 
     /tmp/ccN53Vba.s:232    .text:0000000000000140 .L0 
     /tmp/ccN53Vba.s:234    .text:0000000000000144 .L0 
     /tmp/ccN53Vba.s:236    .text:0000000000000148 .L0 
     /tmp/ccN53Vba.s:248    .bss:0000000000000000 _ZN9Scheduler16readyThreadQueueE
     /tmp/ccN53Vba.s:245    .bss:0000000000000000 .LANCHOR0
     /tmp/ccN53Vba.s:254    .text:0000000000000148 .L0 
     /tmp/ccN53Vba.s:43     .text:000000000000002c .L0 
     /tmp/ccN53Vba.s:92     .text:000000000000006c .L0 
     /tmp/ccN53Vba.s:98     .text:000000000000007c .L0 
     /tmp/ccN53Vba.s:122    .text:0000000000000098 .L0 
     /tmp/ccN53Vba.s:155    .text:00000000000000c0 .L0 
     /tmp/ccN53Vba.s:162    .text:00000000000000d0 .L0 
     /tmp/ccN53Vba.s:194    .text:0000000000000100 .L0 
     /tmp/ccN53Vba.s:31     .text:0000000000000020 .L4
     /tmp/ccN53Vba.s:23     .text:0000000000000014 .L1
     /tmp/ccN53Vba.s:117    .text:0000000000000098 .L6
     /tmp/ccN53Vba.s:100    .text:0000000000000084 .L5
     /tmp/ccN53Vba.s:197    .text:000000000000010c .L12
     /tmp/ccN53Vba.s:189    .text:0000000000000100 .L14
     /tmp/ccN53Vba.s:165    .text:00000000000000dc .L11
     /tmp/ccN53Vba.s:172    .text:00000000000000e8 .L9
     /tmp/ccN53Vba.s:906    .debug_abbrev:0000000000000000 .Ldebug_abbrev0
     /tmp/ccN53Vba.s:1859   .debug_str:00000000000001e9 .LASF55
     /tmp/ccN53Vba.s:1847   .debug_str:0000000000000172 .LASF56
     /tmp/ccN53Vba.s:1897   .debug_str:00000000000003ab .LASF57
     /tmp/ccN53Vba.s:5      .text:0000000000000000 .Ltext0
     /tmp/ccN53Vba.s:251    .text:0000000000000148 .Letext0
     /tmp/ccN53Vba.s:1797   .debug_line:0000000000000000 .Ldebug_line0
     /tmp/ccN53Vba.s:1869   .debug_str:00000000000002ca .LASF0
     /tmp/ccN53Vba.s:1851   .debug_str:0000000000000196 .LASF1
     /tmp/ccN53Vba.s:1841   .debug_str:0000000000000142 .LASF2
     /tmp/ccN53Vba.s:1813   .debug_str:0000000000000057 .LASF4
GAS LISTING /tmp/ccN53Vba.s 			page 10


     /tmp/ccN53Vba.s:1849   .debug_str:0000000000000184 .LASF3
     /tmp/ccN53Vba.s:1803   .debug_str:000000000000001e .LASF5
     /tmp/ccN53Vba.s:1799   .debug_str:0000000000000000 .LASF6
     /tmp/ccN53Vba.s:1831   .debug_str:00000000000000f3 .LASF7
     /tmp/ccN53Vba.s:1883   .debug_str:0000000000000322 .LASF8
     /tmp/ccN53Vba.s:1811   .debug_str:0000000000000049 .LASF9
     /tmp/ccN53Vba.s:1925   .debug_str:00000000000004d8 .LASF10
     /tmp/ccN53Vba.s:1837   .debug_str:0000000000000129 .LASF11
     /tmp/ccN53Vba.s:1915   .debug_str:000000000000047b .LASF12
     /tmp/ccN53Vba.s:1889   .debug_str:000000000000034d .LASF13
     /tmp/ccN53Vba.s:1853   .debug_str:00000000000001a9 .LASF14
     /tmp/ccN53Vba.s:1823   .debug_str:00000000000000b7 .LASF15
     /tmp/ccN53Vba.s:1885   .debug_str:0000000000000332 .LASF16
     /tmp/ccN53Vba.s:1817   .debug_str:000000000000008e .LASF17
     /tmp/ccN53Vba.s:1829   .debug_str:00000000000000e9 .LASF18
     /tmp/ccN53Vba.s:1879   .debug_str:0000000000000308 .LASF23
     /tmp/ccN53Vba.s:1809   .debug_str:0000000000000035 .LASF58
     /tmp/ccN53Vba.s:1821   .debug_str:000000000000009f .LASF59
     /tmp/ccN53Vba.s:1909   .debug_str:0000000000000436 .LASF19
     /tmp/ccN53Vba.s:1887   .debug_str:0000000000000348 .LASF22
     /tmp/ccN53Vba.s:1835   .debug_str:0000000000000124 .LASF20
     /tmp/ccN53Vba.s:1805   .debug_str:0000000000000025 .LASF21
     /tmp/ccN53Vba.s:1911   .debug_str:0000000000000440 .LASF60
     /tmp/ccN53Vba.s:1863   .debug_str:00000000000002b5 .LASF24
     /tmp/ccN53Vba.s:1905   .debug_str:0000000000000417 .LASF25
     /tmp/ccN53Vba.s:1825   .debug_str:00000000000000cd .LASF26
     /tmp/ccN53Vba.s:1923   .debug_str:00000000000004c5 .LASF28
     /tmp/ccN53Vba.s:1827   .debug_str:00000000000000d2 .LASF33
     /tmp/ccN53Vba.s:1917   .debug_str:000000000000048b .LASF61
     /tmp/ccN53Vba.s:1893   .debug_str:000000000000037a .LASF62
     /tmp/ccN53Vba.s:1867   .debug_str:00000000000002c1 .LASF27
     /tmp/ccN53Vba.s:1891   .debug_str:000000000000035d .LASF29
     /tmp/ccN53Vba.s:1861   .debug_str:00000000000002ad .LASF30
     /tmp/ccN53Vba.s:1913   .debug_str:000000000000045f .LASF31
     /tmp/ccN53Vba.s:1819   .debug_str:0000000000000093 .LASF32
     /tmp/ccN53Vba.s:1833   .debug_str:0000000000000106 .LASF34
     /tmp/ccN53Vba.s:1839   .debug_str:0000000000000138 .LASF35
     /tmp/ccN53Vba.s:1903   .debug_str:00000000000003fc .LASF36
     /tmp/ccN53Vba.s:1807   .debug_str:000000000000002a .LASF37
     /tmp/ccN53Vba.s:1845   .debug_str:0000000000000155 .LASF38
     /tmp/ccN53Vba.s:1881   .debug_str:0000000000000319 .LASF39
     /tmp/ccN53Vba.s:1895   .debug_str:0000000000000391 .LASF40
     /tmp/ccN53Vba.s:1901   .debug_str:00000000000003f4 .LASF41
     /tmp/ccN53Vba.s:1907   .debug_str:000000000000041c .LASF42
     /tmp/ccN53Vba.s:1857   .debug_str:00000000000001c8 .LASF63
     /tmp/ccN53Vba.s:1815   .debug_str:000000000000005e .LASF43
     /tmp/ccN53Vba.s:211    .text:0000000000000114 .LFB20
     /tmp/ccN53Vba.s:237    .text:0000000000000148 .LFE20
     /tmp/ccN53Vba.s:227    .text:0000000000000138 .LVL19
     /tmp/ccN53Vba.s:1921   .debug_str:000000000000049b .LASF44
     /tmp/ccN53Vba.s:9      .text:0000000000000000 .LFB19
     /tmp/ccN53Vba.s:53     .text:0000000000000040 .LFE19
     /tmp/ccN53Vba.s:1875   .debug_str:00000000000002ec .LASF45
     /tmp/ccN53Vba.s:1801   .debug_str:0000000000000013 .LASF46
     /tmp/ccN53Vba.s:38     .text:000000000000002c .LBB15
     /tmp/ccN53Vba.s:49     .text:000000000000003c .LBE15
     /tmp/ccN53Vba.s:1654   .debug_loc:0000000000000000 .LLST0
GAS LISTING /tmp/ccN53Vba.s 			page 11


     /tmp/ccN53Vba.s:1843   .debug_str:0000000000000150 .LASF47
     /tmp/ccN53Vba.s:1899   .debug_str:00000000000003d5 .LASF49
     /tmp/ccN53Vba.s:1871   .debug_str:00000000000002d7 .LASF48
     /tmp/ccN53Vba.s:1855   .debug_str:00000000000001b5 .LASF50
     /tmp/ccN53Vba.s:137    .text:00000000000000ac .LFB10
     /tmp/ccN53Vba.s:206    .text:0000000000000114 .LFE10
     /tmp/ccN53Vba.s:152    .text:00000000000000c0 .LBB24
     /tmp/ccN53Vba.s:1783   .debug_ranges:0000000000000000 .Ldebug_ranges0
     /tmp/ccN53Vba.s:1663   .debug_loc:000000000000002c .LLST7
     /tmp/ccN53Vba.s:1678   .debug_loc:0000000000000074 .LLST8
     /tmp/ccN53Vba.s:1689   .debug_loc:00000000000000aa .LLST9
     /tmp/ccN53Vba.s:171    .text:00000000000000e8 .LVL15
     /tmp/ccN53Vba.s:59     .text:0000000000000040 .LFB9
     /tmp/ccN53Vba.s:131    .text:00000000000000ac .LFE9
     /tmp/ccN53Vba.s:1696   .debug_loc:00000000000000cd .LLST1
     /tmp/ccN53Vba.s:76     .text:0000000000000058 .LBB18
     /tmp/ccN53Vba.s:1718   .debug_loc:000000000000012c .LLST2
     /tmp/ccN53Vba.s:1733   .debug_loc:0000000000000175 .LLST3
     /tmp/ccN53Vba.s:83     .text:0000000000000064 .LBB20
     /tmp/ccN53Vba.s:90     .text:000000000000006c .LBE20
     /tmp/ccN53Vba.s:1748   .debug_loc:00000000000001bd .LLST4
     /tmp/ccN53Vba.s:1756   .debug_loc:00000000000001e1 .LLST5
     /tmp/ccN53Vba.s:1763   .debug_loc:0000000000000204 .LLST6
     /tmp/ccN53Vba.s:82     .text:0000000000000064 .LVL6
     /tmp/ccN53Vba.s:1865   .debug_str:00000000000002ba .LASF51
     /tmp/ccN53Vba.s:1873   .debug_str:00000000000002dc .LASF53
     /tmp/ccN53Vba.s:1919   .debug_str:0000000000000495 .LASF52
     /tmp/ccN53Vba.s:1877   .debug_str:00000000000002fb .LASF54
     /tmp/ccN53Vba.s:37     .text:000000000000002c .LVL1
     /tmp/ccN53Vba.s:46     .text:000000000000003c .LVL2
     /tmp/ccN53Vba.s:151    .text:00000000000000c0 .LVL12
     /tmp/ccN53Vba.s:188    .text:0000000000000100 .LVL16
     /tmp/ccN53Vba.s:200    .text:0000000000000110 .LVL18
     /tmp/ccN53Vba.s:158    .text:00000000000000cc .LVL13
     /tmp/ccN53Vba.s:196    .text:000000000000010c .LVL17
     /tmp/ccN53Vba.s:168    .text:00000000000000e0 .LVL14
     /tmp/ccN53Vba.s:62     .text:0000000000000040 .LVL3
     /tmp/ccN53Vba.s:80     .text:000000000000005c .LVL5
     /tmp/ccN53Vba.s:112    .text:0000000000000090 .LVL9
     /tmp/ccN53Vba.s:116    .text:0000000000000098 .LVL10
     /tmp/ccN53Vba.s:75     .text:0000000000000058 .LVL4
     /tmp/ccN53Vba.s:99     .text:0000000000000084 .LVL8
     /tmp/ccN53Vba.s:125    .text:00000000000000a8 .LVL11
     /tmp/ccN53Vba.s:88     .text:000000000000006c .LVL7
     /tmp/ccN53Vba.s:255    .debug_info:0000000000000000 .Ldebug_info0
     /tmp/ccN53Vba.s:102    .text:0000000000000084 .LBE18
     /tmp/ccN53Vba.s:119    .text:0000000000000098 .LBB23
     /tmp/ccN53Vba.s:127    .text:00000000000000a8 .LBE23
     /tmp/ccN53Vba.s:174    .text:00000000000000e8 .LBE24
     /tmp/ccN53Vba.s:191    .text:0000000000000100 .LBB27
     /tmp/ccN53Vba.s:202    .text:0000000000000110 .LBE27

UNDEFINED SYMBOLS
_Znwm
_ZdlPv
