GAS LISTING /tmp/ccSz0p0X.s 			page 1


   1              		.file	"syscall_c.cpp"
   2              		.option pic
   3              		.option norelax
   4              		.text
   5              	.Ltext0:
   6              		.align	2
   7              		.globl	_Z7syscallmmmmm
   9              	_Z7syscallmmmmm:
  10              	.LFB18:
  11              		.file 1 "src/syscall_c.cpp"
   1:src/syscall_c.cpp **** #include "../h/syscall_c.hpp"
   2:src/syscall_c.cpp **** #include "../h/riscv.hpp"
   3:src/syscall_c.cpp **** 
   4:src/syscall_c.cpp **** 
   5:src/syscall_c.cpp **** uint64 syscall(uint64 code, uint64 arg = 0, uint64 arg2 = 0, uint64 arg3 = 0, uint64 arg4 = 0) {
  12              		.loc 1 5 96
  13              		.cfi_startproc
  14              	.LVL0:
  15 0000 130101FE 		addi	sp,sp,-32
  16              		.cfi_def_cfa_offset 32
  17 0004 233C8100 		sd	s0,24(sp)
  18              		.cfi_offset 8, -8
  19 0008 13040102 		addi	s0,sp,32
  20              		.cfi_def_cfa 8, 0
   6:src/syscall_c.cpp ****     __asm__ volatile ("ecall");
  21              		.loc 1 6 5
  22              		.loc 1 6 31 is_stmt 0
  23              	#APP
  24              	# 6 "src/syscall_c.cpp" 1
   7              	    return Riscv::r_a0();
  25              		ecall
  26              	# 0 "" 2
  27              		.loc 1 7 5 is_stmt 1
  28              	#NO_APP
  29              	.LBB4:
  30              	.LBB5:
  31              		.file 2 "src/../h/riscv.hpp"
   1:src/../h/riscv.hpp **** #ifndef RISCV_HPP
   2:src/../h/riscv.hpp **** #define RISCV_HPP
   3:src/../h/riscv.hpp **** 
   4:src/../h/riscv.hpp **** #include "../lib/hw.h"
   5:src/../h/riscv.hpp **** 
   6:src/../h/riscv.hpp **** class Riscv{
   7:src/../h/riscv.hpp **** 
   8:src/../h/riscv.hpp ****     static void obradaprekida(uint64 code, uint64 arg1, uint64 arg2, uint64 arg3, uint64 arg4);
   9:src/../h/riscv.hpp **** public:
  10:src/../h/riscv.hpp **** 
  11:src/../h/riscv.hpp ****   static void pushRegisters();
  12:src/../h/riscv.hpp ****   static void popRegisters();
  13:src/../h/riscv.hpp **** 
  14:src/../h/riscv.hpp ****     // pop sstatus.spp and sstatus.spie bits (has to be a non inline function)
  15:src/../h/riscv.hpp ****     static void popSppSpie();
  16:src/../h/riscv.hpp **** 
  17:src/../h/riscv.hpp ****     // read register scause
  18:src/../h/riscv.hpp ****     static uint64 r_scause();
  19:src/../h/riscv.hpp **** 
  20:src/../h/riscv.hpp ****     // write register scause
GAS LISTING /tmp/ccSz0p0X.s 			page 2


  21:src/../h/riscv.hpp ****     static void w_scause(uint64 scause);
  22:src/../h/riscv.hpp **** 
  23:src/../h/riscv.hpp ****     // read register sepc
  24:src/../h/riscv.hpp ****     static uint64 r_sepc();
  25:src/../h/riscv.hpp **** 
  26:src/../h/riscv.hpp ****     // write register sepc
  27:src/../h/riscv.hpp ****     static void w_sepc(uint64 sepc);
  28:src/../h/riscv.hpp **** 
  29:src/../h/riscv.hpp ****     // read register stvec
  30:src/../h/riscv.hpp ****     static uint64 r_stvec();
  31:src/../h/riscv.hpp **** 
  32:src/../h/riscv.hpp ****     // write register stvec
  33:src/../h/riscv.hpp ****     static void w_stvec(uint64 stvec);
  34:src/../h/riscv.hpp **** 
  35:src/../h/riscv.hpp ****     // read register stval
  36:src/../h/riscv.hpp ****     static uint64 r_stval();
  37:src/../h/riscv.hpp **** 
  38:src/../h/riscv.hpp ****     // write register stval
  39:src/../h/riscv.hpp ****     static void w_stval(uint64 stval);
  40:src/../h/riscv.hpp **** 
  41:src/../h/riscv.hpp ****     enum BitMaskSip
  42:src/../h/riscv.hpp ****     {
  43:src/../h/riscv.hpp ****         SIP_SSIE = (1 << 1),
  44:src/../h/riscv.hpp ****         SIP_STIP = (1 << 5),
  45:src/../h/riscv.hpp ****         SIP_SEIP = (1 << 9),
  46:src/../h/riscv.hpp ****     };
  47:src/../h/riscv.hpp **** 
  48:src/../h/riscv.hpp ****     // mask set register sip
  49:src/../h/riscv.hpp ****     static void ms_sip(uint64 mask);
  50:src/../h/riscv.hpp **** 
  51:src/../h/riscv.hpp ****     // mask clear register sip
  52:src/../h/riscv.hpp ****     static void mc_sip(uint64 mask);
  53:src/../h/riscv.hpp **** 
  54:src/../h/riscv.hpp ****     // read register sip
  55:src/../h/riscv.hpp ****     static uint64 r_sip();
  56:src/../h/riscv.hpp **** 
  57:src/../h/riscv.hpp ****     // write register sip
  58:src/../h/riscv.hpp ****     static void w_sip(uint64 sip);
  59:src/../h/riscv.hpp **** 
  60:src/../h/riscv.hpp ****     enum BitMaskSstatus
  61:src/../h/riscv.hpp ****     {
  62:src/../h/riscv.hpp ****         SSTATUS_SIE = (1 << 1),
  63:src/../h/riscv.hpp ****         SSTATUS_SPIE = (1 << 5),
  64:src/../h/riscv.hpp ****         SSTATUS_SPP = (1 << 8),
  65:src/../h/riscv.hpp ****     };
  66:src/../h/riscv.hpp **** 
  67:src/../h/riscv.hpp ****     // mask set register sstatus
  68:src/../h/riscv.hpp ****     static void ms_sstatus(uint64 mask);
  69:src/../h/riscv.hpp **** 
  70:src/../h/riscv.hpp ****     // mask clear register sstatus
  71:src/../h/riscv.hpp ****     static void mc_sstatus(uint64 mask);
  72:src/../h/riscv.hpp **** 
  73:src/../h/riscv.hpp ****     // read register sstatus
  74:src/../h/riscv.hpp ****     static uint64 r_sstatus();
  75:src/../h/riscv.hpp **** 
  76:src/../h/riscv.hpp ****     // write register sstatus
  77:src/../h/riscv.hpp ****     static void w_sstatus(uint64 sstatus);
GAS LISTING /tmp/ccSz0p0X.s 			page 3


  78:src/../h/riscv.hpp **** 
  79:src/../h/riscv.hpp ****     // supervisor trap
  80:src/../h/riscv.hpp ****     static void supervisorTrap();
  81:src/../h/riscv.hpp **** 
  82:src/../h/riscv.hpp ****     //stvec Vector "table"
  83:src/../h/riscv.hpp ****     static void stvecVectorTable();
  84:src/../h/riscv.hpp **** 
  85:src/../h/riscv.hpp ****     //read a0 register
  86:src/../h/riscv.hpp ****     static uint64 r_a0();
  87:src/../h/riscv.hpp **** 
  88:src/../h/riscv.hpp ****     //write to a0 register
  89:src/../h/riscv.hpp ****     static void w_a0(uint64 writeValue);
  90:src/../h/riscv.hpp **** 
  91:src/../h/riscv.hpp **** 
  92:src/../h/riscv.hpp **** private:
  93:src/../h/riscv.hpp **** 
  94:src/../h/riscv.hpp ****     // supervisor trap handler
  95:src/../h/riscv.hpp ****     static void handleSupervisorTrap();
  96:src/../h/riscv.hpp **** 
  97:src/../h/riscv.hpp ****     static void handleTimerInterrupt();
  98:src/../h/riscv.hpp **** 
  99:src/../h/riscv.hpp ****     static void handleConsoleInterrupt();
 100:src/../h/riscv.hpp **** };
 101:src/../h/riscv.hpp **** 
 102:src/../h/riscv.hpp **** 
 103:src/../h/riscv.hpp **** inline uint64 Riscv::r_scause()
 104:src/../h/riscv.hpp **** {
 105:src/../h/riscv.hpp ****     uint64 volatile scause;
 106:src/../h/riscv.hpp ****     __asm__ volatile ("csrr %[scause], scause" : [scause] "=r"(scause));
 107:src/../h/riscv.hpp ****     return scause;
 108:src/../h/riscv.hpp **** }
 109:src/../h/riscv.hpp **** 
 110:src/../h/riscv.hpp **** inline void Riscv::w_scause(uint64 scause)
 111:src/../h/riscv.hpp **** {
 112:src/../h/riscv.hpp ****     __asm__ volatile ("csrw scause, %[scause]" : : [scause] "r"(scause));
 113:src/../h/riscv.hpp **** }
 114:src/../h/riscv.hpp **** 
 115:src/../h/riscv.hpp **** inline uint64 Riscv::r_sepc()
 116:src/../h/riscv.hpp **** {
 117:src/../h/riscv.hpp ****     uint64 volatile sepc;
 118:src/../h/riscv.hpp ****     __asm__ volatile ("csrr %[sepc], sepc" : [sepc] "=r"(sepc));
 119:src/../h/riscv.hpp ****     return sepc;
 120:src/../h/riscv.hpp **** }
 121:src/../h/riscv.hpp **** 
 122:src/../h/riscv.hpp **** inline void Riscv::w_sepc(uint64 sepc)
 123:src/../h/riscv.hpp **** {
 124:src/../h/riscv.hpp ****     __asm__ volatile ("csrw sepc, %[sepc]" : : [sepc] "r"(sepc));
 125:src/../h/riscv.hpp **** }
 126:src/../h/riscv.hpp **** 
 127:src/../h/riscv.hpp **** inline uint64 Riscv::r_stvec()
 128:src/../h/riscv.hpp **** {
 129:src/../h/riscv.hpp ****     uint64 volatile stvec;
 130:src/../h/riscv.hpp ****     __asm__ volatile ("csrr %[stvec], stvec" : [stvec] "=r"(stvec));
 131:src/../h/riscv.hpp ****     return stvec;
 132:src/../h/riscv.hpp **** }
 133:src/../h/riscv.hpp **** 
 134:src/../h/riscv.hpp **** inline void Riscv::w_stvec(uint64 stvec)
GAS LISTING /tmp/ccSz0p0X.s 			page 4


 135:src/../h/riscv.hpp **** {
 136:src/../h/riscv.hpp ****     __asm__ volatile ("csrw stvec, %[stvec]" : : [stvec] "r"(stvec));
 137:src/../h/riscv.hpp **** }
 138:src/../h/riscv.hpp **** 
 139:src/../h/riscv.hpp **** inline uint64 Riscv::r_stval()
 140:src/../h/riscv.hpp **** {
 141:src/../h/riscv.hpp ****     uint64 volatile stval;
 142:src/../h/riscv.hpp ****     __asm__ volatile ("csrr %[stval], stval" : [stval] "=r"(stval));
 143:src/../h/riscv.hpp ****     return stval;
 144:src/../h/riscv.hpp **** }
 145:src/../h/riscv.hpp **** 
 146:src/../h/riscv.hpp **** inline void Riscv::w_stval(uint64 stval)
 147:src/../h/riscv.hpp **** {
 148:src/../h/riscv.hpp ****     __asm__ volatile ("csrw stval, %[stval]" : : [stval] "r"(stval));
 149:src/../h/riscv.hpp **** }
 150:src/../h/riscv.hpp **** 
 151:src/../h/riscv.hpp **** inline void Riscv::ms_sip(uint64 mask)
 152:src/../h/riscv.hpp **** {
 153:src/../h/riscv.hpp ****     __asm__ volatile ("csrs sip, %[mask]" : : [mask] "r"(mask));
 154:src/../h/riscv.hpp **** }
 155:src/../h/riscv.hpp **** 
 156:src/../h/riscv.hpp **** inline void Riscv::mc_sip(uint64 mask)
 157:src/../h/riscv.hpp **** {
 158:src/../h/riscv.hpp ****     __asm__ volatile ("csrc sip, %[mask]" : : [mask] "r"(mask));
 159:src/../h/riscv.hpp **** }
 160:src/../h/riscv.hpp **** 
 161:src/../h/riscv.hpp **** inline uint64 Riscv::r_sip()
 162:src/../h/riscv.hpp **** {
 163:src/../h/riscv.hpp ****     uint64 volatile sip;
 164:src/../h/riscv.hpp ****     __asm__ volatile ("csrr %[sip], sip" : [sip] "=r"(sip));
 165:src/../h/riscv.hpp ****     return sip;
 166:src/../h/riscv.hpp **** }
 167:src/../h/riscv.hpp **** 
 168:src/../h/riscv.hpp **** inline void Riscv::w_sip(uint64 sip)
 169:src/../h/riscv.hpp **** {
 170:src/../h/riscv.hpp ****     __asm__ volatile ("csrw sip, %[sip]" : : [sip] "r"(sip));
 171:src/../h/riscv.hpp **** }
 172:src/../h/riscv.hpp **** 
 173:src/../h/riscv.hpp **** inline void Riscv::ms_sstatus(uint64 mask)
 174:src/../h/riscv.hpp **** {
 175:src/../h/riscv.hpp ****     __asm__ volatile ("csrs sstatus, %[mask]" : : [mask] "r"(mask));
 176:src/../h/riscv.hpp **** }
 177:src/../h/riscv.hpp **** 
 178:src/../h/riscv.hpp **** inline void Riscv::mc_sstatus(uint64 mask)
 179:src/../h/riscv.hpp **** {
 180:src/../h/riscv.hpp ****     __asm__ volatile ("csrc sstatus, %[mask]" : : [mask] "r"(mask));
 181:src/../h/riscv.hpp **** }
 182:src/../h/riscv.hpp **** 
 183:src/../h/riscv.hpp **** inline uint64 Riscv::r_sstatus()
 184:src/../h/riscv.hpp **** {
 185:src/../h/riscv.hpp ****     uint64 volatile sstatus;
 186:src/../h/riscv.hpp ****     __asm__ volatile ("csrr %[sstatus], sstatus" : [sstatus] "=r"(sstatus));
 187:src/../h/riscv.hpp ****     return sstatus;
 188:src/../h/riscv.hpp **** }
 189:src/../h/riscv.hpp **** 
 190:src/../h/riscv.hpp **** inline void Riscv::w_sstatus(uint64 sstatus)
 191:src/../h/riscv.hpp **** {
GAS LISTING /tmp/ccSz0p0X.s 			page 5


 192:src/../h/riscv.hpp ****     __asm__ volatile ("csrw sstatus, %[sstatus]" : : [sstatus] "r"(sstatus));
 193:src/../h/riscv.hpp **** }
 194:src/../h/riscv.hpp **** 
 195:src/../h/riscv.hpp **** //a0
 196:src/../h/riscv.hpp **** inline uint64 Riscv::r_a0()
 197:src/../h/riscv.hpp **** {
 198:src/../h/riscv.hpp ****     uint64 volatile a0;
  32              		.loc 2 198 5
 199:src/../h/riscv.hpp ****     __asm__ volatile ("mv %0, a0" : "=r"(a0));
  33              		.loc 2 199 5
  34              		.loc 2 199 46 is_stmt 0
  35              	#APP
  36              	# 199 "src/../h/riscv.hpp" 1
 200              	    return a0;
  37              		mv a5, a0
  38              	# 0 "" 2
  39              	#NO_APP
  40 0014 2334F4FE 		sd	a5,-24(s0)
  41              		.loc 2 200 5 is_stmt 1
  42              		.loc 2 200 12 is_stmt 0
  43 0018 033584FE 		ld	a0,-24(s0)
  44              	.LVL1:
  45              	.LBE5:
  46              	.LBE4:
   8:src/syscall_c.cpp **** }
  47              		.loc 1 8 1
  48 001c 03348101 		ld	s0,24(sp)
  49              		.cfi_restore 8
  50              		.cfi_def_cfa 2, 32
  51 0020 13010102 		addi	sp,sp,32
  52              		.cfi_def_cfa_offset 0
  53 0024 67800000 		jr	ra
  54              		.cfi_endproc
  55              	.LFE18:
  57              		.align	2
  58              		.globl	_Z9mem_allocm
  60              	_Z9mem_allocm:
  61              	.LFB19:
   9:src/syscall_c.cpp **** //-------------------------memorija
  10:src/syscall_c.cpp **** void *mem_alloc(size_t size) {
  62              		.loc 1 10 30 is_stmt 1
  63              		.cfi_startproc
  64              	.LVL2:
  65 0028 130101FF 		addi	sp,sp,-16
  66              		.cfi_def_cfa_offset 16
  67 002c 23341100 		sd	ra,8(sp)
  68 0030 23308100 		sd	s0,0(sp)
  69              		.cfi_offset 1, -8
  70              		.cfi_offset 8, -16
  71 0034 13040101 		addi	s0,sp,16
  72              		.cfi_def_cfa 8, 0
  11:src/syscall_c.cpp ****     int blocks = (size - 1) / MEM_BLOCK_SIZE + 1;
  73              		.loc 1 11 5
  74              		.loc 1 11 24 is_stmt 0
  75 0038 9305F5FF 		addi	a1,a0,-1
  76              		.loc 1 11 29
  77 003c 93D56500 		srli	a1,a1,6
GAS LISTING /tmp/ccSz0p0X.s 			page 6


  78              	.LVL3:
  12:src/syscall_c.cpp ****     return (void *) syscall(MEM_ALLOC, blocks);
  79              		.loc 1 12 5 is_stmt 1
  80              		.loc 1 12 28 is_stmt 0
  81 0040 13070000 		li	a4,0
  82 0044 93060000 		li	a3,0
  83 0048 13060000 		li	a2,0
  84 004c 9B851500 		addiw	a1,a1,1
  85              	.LVL4:
  86 0050 13051000 		li	a0,1
  87              	.LVL5:
  88 0054 97000000 		call	_Z7syscallmmmmm
  88      E7800000 
  89              	.LVL6:
  13:src/syscall_c.cpp **** }
  90              		.loc 1 13 1
  91 005c 83308100 		ld	ra,8(sp)
  92              		.cfi_restore 1
  93 0060 03340100 		ld	s0,0(sp)
  94              		.cfi_restore 8
  95              		.cfi_def_cfa 2, 16
  96 0064 13010101 		addi	sp,sp,16
  97              		.cfi_def_cfa_offset 0
  98 0068 67800000 		jr	ra
  99              		.cfi_endproc
 100              	.LFE19:
 102              		.align	2
 103              		.globl	_Z8mem_freePv
 105              	_Z8mem_freePv:
 106              	.LFB20:
  14:src/syscall_c.cpp **** 
  15:src/syscall_c.cpp **** int mem_free(void *ptr) {
 107              		.loc 1 15 25 is_stmt 1
 108              		.cfi_startproc
 109              	.LVL7:
 110 006c 130101FF 		addi	sp,sp,-16
 111              		.cfi_def_cfa_offset 16
 112 0070 23341100 		sd	ra,8(sp)
 113 0074 23308100 		sd	s0,0(sp)
 114              		.cfi_offset 1, -8
 115              		.cfi_offset 8, -16
 116 0078 13040101 		addi	s0,sp,16
 117              		.cfi_def_cfa 8, 0
 118 007c 93050500 		mv	a1,a0
  16:src/syscall_c.cpp ****     return syscall(MEM_FREE, (uint64)ptr);
 119              		.loc 1 16 5
 120              		.loc 1 16 19 is_stmt 0
 121 0080 13070000 		li	a4,0
 122 0084 93060000 		li	a3,0
 123 0088 13060000 		li	a2,0
 124 008c 13052000 		li	a0,2
 125              	.LVL8:
 126 0090 97000000 		call	_Z7syscallmmmmm
 126      E7800000 
 127              	.LVL9:
  17:src/syscall_c.cpp **** }
 128              		.loc 1 17 1
GAS LISTING /tmp/ccSz0p0X.s 			page 7


 129 0098 1B050500 		sext.w	a0,a0
 130 009c 83308100 		ld	ra,8(sp)
 131              		.cfi_restore 1
 132 00a0 03340100 		ld	s0,0(sp)
 133              		.cfi_restore 8
 134              		.cfi_def_cfa 2, 16
 135 00a4 13010101 		addi	sp,sp,16
 136              		.cfi_def_cfa_offset 0
 137 00a8 67800000 		jr	ra
 138              		.cfi_endproc
 139              	.LFE20:
 141              		.align	2
 142              		.globl	_Z13thread_createPP3TCBPFvPvES2_
 144              	_Z13thread_createPP3TCBPFvPvES2_:
 145              	.LFB21:
  18:src/syscall_c.cpp **** 
  19:src/syscall_c.cpp **** //-------------------------niti
  20:src/syscall_c.cpp **** int thread_create(thread_t *handle,void(*start_routine)(void *),void *arg){
 146              		.loc 1 20 75 is_stmt 1
 147              		.cfi_startproc
 148              	.LVL10:
 149 00ac 130101FD 		addi	sp,sp,-48
 150              		.cfi_def_cfa_offset 48
 151 00b0 23341102 		sd	ra,40(sp)
 152 00b4 23308102 		sd	s0,32(sp)
 153 00b8 233C9100 		sd	s1,24(sp)
 154 00bc 23382101 		sd	s2,16(sp)
 155 00c0 23343101 		sd	s3,8(sp)
 156              		.cfi_offset 1, -8
 157              		.cfi_offset 8, -16
 158              		.cfi_offset 9, -24
 159              		.cfi_offset 18, -32
 160              		.cfi_offset 19, -40
 161 00c4 13040103 		addi	s0,sp,48
 162              		.cfi_def_cfa 8, 0
 163 00c8 13090500 		mv	s2,a0
 164 00cc 93840500 		mv	s1,a1
 165 00d0 93090600 		mv	s3,a2
  21:src/syscall_c.cpp ****     void *space = nullptr;
 166              		.loc 1 21 5
 167              	.LVL11:
  22:src/syscall_c.cpp ****     if (start_routine) {
 168              		.loc 1 22 5
 169 00d4 63860504 		beqz	a1,.L9
  23:src/syscall_c.cpp ****         space = mem_alloc(DEFAULT_STACK_SIZE);
 170              		.loc 1 23 9
 171              		.loc 1 23 26 is_stmt 0
 172 00d8 37150000 		li	a0,4096
 173              	.LVL12:
 174 00dc 97000000 		call	_Z9mem_allocm
 174      E7800000 
 175              	.LVL13:
 176 00e4 13070500 		mv	a4,a0
 177              	.LVL14:
 178              	.L8:
  24:src/syscall_c.cpp ****     }
  25:src/syscall_c.cpp ****   return  (int) syscall(THREAD_CREATE, (uint64) handle, (uint64) start_routine, (uint64) arg, (uint
GAS LISTING /tmp/ccSz0p0X.s 			page 8


 179              		.loc 1 25 3 is_stmt 1
 180              		.loc 1 25 24 is_stmt 0
 181 00e8 93860900 		mv	a3,s3
 182 00ec 13860400 		mv	a2,s1
 183 00f0 93050900 		mv	a1,s2
 184 00f4 13051001 		li	a0,17
 185 00f8 97000000 		call	_Z7syscallmmmmm
 185      E7800000 
 186              	.LVL15:
  26:src/syscall_c.cpp **** }
 187              		.loc 1 26 1
 188 0100 1B050500 		sext.w	a0,a0
 189 0104 83308102 		ld	ra,40(sp)
 190              		.cfi_remember_state
 191              		.cfi_restore 1
 192 0108 03340102 		ld	s0,32(sp)
 193              		.cfi_restore 8
 194              		.cfi_def_cfa 2, 48
 195 010c 83348101 		ld	s1,24(sp)
 196              		.cfi_restore 9
 197              	.LVL16:
 198 0110 03390101 		ld	s2,16(sp)
 199              		.cfi_restore 18
 200              	.LVL17:
 201 0114 83398100 		ld	s3,8(sp)
 202              		.cfi_restore 19
 203              	.LVL18:
 204 0118 13010103 		addi	sp,sp,48
 205              		.cfi_def_cfa_offset 0
 206 011c 67800000 		jr	ra
 207              	.LVL19:
 208              	.L9:
 209              		.cfi_restore_state
  21:src/syscall_c.cpp ****     if (start_routine) {
 210              		.loc 1 21 11
 211 0120 13070000 		li	a4,0
 212 0124 6FF05FFC 		j	.L8
 213              		.cfi_endproc
 214              	.LFE21:
 216              		.align	2
 217              		.globl	_Z11thread_exitv
 219              	_Z11thread_exitv:
 220              	.LFB22:
  27:src/syscall_c.cpp **** 
  28:src/syscall_c.cpp **** int thread_exit(){
 221              		.loc 1 28 18 is_stmt 1
 222              		.cfi_startproc
 223 0128 130101FF 		addi	sp,sp,-16
 224              		.cfi_def_cfa_offset 16
 225 012c 23341100 		sd	ra,8(sp)
 226 0130 23308100 		sd	s0,0(sp)
 227              		.cfi_offset 1, -8
 228              		.cfi_offset 8, -16
 229 0134 13040101 		addi	s0,sp,16
 230              		.cfi_def_cfa 8, 0
  29:src/syscall_c.cpp ****   return (int) syscall(THREAD_EXIT);
 231              		.loc 1 29 3
GAS LISTING /tmp/ccSz0p0X.s 			page 9


 232              		.loc 1 29 23 is_stmt 0
 233 0138 13070000 		li	a4,0
 234 013c 93060000 		li	a3,0
 235 0140 13060000 		li	a2,0
 236 0144 93050000 		li	a1,0
 237 0148 13052001 		li	a0,18
 238 014c 97000000 		call	_Z7syscallmmmmm
 238      E7800000 
 239              	.LVL20:
  30:src/syscall_c.cpp ****   }
 240              		.loc 1 30 3
 241 0154 1B050500 		sext.w	a0,a0
 242 0158 83308100 		ld	ra,8(sp)
 243              		.cfi_restore 1
 244 015c 03340100 		ld	s0,0(sp)
 245              		.cfi_restore 8
 246              		.cfi_def_cfa 2, 16
 247 0160 13010101 		addi	sp,sp,16
 248              		.cfi_def_cfa_offset 0
 249 0164 67800000 		jr	ra
 250              		.cfi_endproc
 251              	.LFE22:
 253              		.align	2
 254              		.globl	_Z15thread_dispatchv
 256              	_Z15thread_dispatchv:
 257              	.LFB23:
  31:src/syscall_c.cpp **** 
  32:src/syscall_c.cpp **** 
  33:src/syscall_c.cpp **** void thread_dispatch(){
 258              		.loc 1 33 23 is_stmt 1
 259              		.cfi_startproc
 260 0168 130101FF 		addi	sp,sp,-16
 261              		.cfi_def_cfa_offset 16
 262 016c 23341100 		sd	ra,8(sp)
 263 0170 23308100 		sd	s0,0(sp)
 264              		.cfi_offset 1, -8
 265              		.cfi_offset 8, -16
 266 0174 13040101 		addi	s0,sp,16
 267              		.cfi_def_cfa 8, 0
  34:src/syscall_c.cpp ****     (void) syscall(THREAD_DISPATCH);
 268              		.loc 1 34 5
 269              		.loc 1 34 19 is_stmt 0
 270 0178 13070000 		li	a4,0
 271 017c 93060000 		li	a3,0
 272 0180 13060000 		li	a2,0
 273 0184 93050000 		li	a1,0
 274 0188 13053001 		li	a0,19
 275 018c 97000000 		call	_Z7syscallmmmmm
 275      E7800000 
 276              	.LVL21:
  35:src/syscall_c.cpp ****  }
 277              		.loc 1 35 2
 278 0194 83308100 		ld	ra,8(sp)
 279              		.cfi_restore 1
 280 0198 03340100 		ld	s0,0(sp)
 281              		.cfi_restore 8
 282              		.cfi_def_cfa 2, 16
GAS LISTING /tmp/ccSz0p0X.s 			page 10


 283 019c 13010101 		addi	sp,sp,16
 284              		.cfi_def_cfa_offset 0
 285 01a0 67800000 		jr	ra
 286              		.cfi_endproc
 287              	.LFE23:
 289              		.align	2
 290              		.globl	_Z8sem_openPP4_semj
 292              	_Z8sem_openPP4_semj:
 293              	.LFB24:
  36:src/syscall_c.cpp **** 
  37:src/syscall_c.cpp **** //-------------------------semafori
  38:src/syscall_c.cpp **** int sem_open(sem_t* handle,unsigned int init){
 294              		.loc 1 38 46 is_stmt 1
 295              		.cfi_startproc
 296              	.LVL22:
 297 01a4 130101FF 		addi	sp,sp,-16
 298              		.cfi_def_cfa_offset 16
 299 01a8 23341100 		sd	ra,8(sp)
 300 01ac 23308100 		sd	s0,0(sp)
 301              		.cfi_offset 1, -8
 302              		.cfi_offset 8, -16
 303 01b0 13040101 		addi	s0,sp,16
 304              		.cfi_def_cfa 8, 0
  39:src/syscall_c.cpp ****   return (int)syscall(SEM_OPEN, (uint64) handle, init);
 305              		.loc 1 39 3
 306              		.loc 1 39 22 is_stmt 0
 307 01b4 13070000 		li	a4,0
 308 01b8 93060000 		li	a3,0
 309 01bc 13960502 		slli	a2,a1,32
 310 01c0 13560602 		srli	a2,a2,32
 311 01c4 93050500 		mv	a1,a0
 312              	.LVL23:
 313 01c8 13051002 		li	a0,33
 314              	.LVL24:
 315 01cc 97000000 		call	_Z7syscallmmmmm
 315      E7800000 
 316              	.LVL25:
  40:src/syscall_c.cpp **** }
 317              		.loc 1 40 1
 318 01d4 1B050500 		sext.w	a0,a0
 319 01d8 83308100 		ld	ra,8(sp)
 320              		.cfi_restore 1
 321 01dc 03340100 		ld	s0,0(sp)
 322              		.cfi_restore 8
 323              		.cfi_def_cfa 2, 16
 324 01e0 13010101 		addi	sp,sp,16
 325              		.cfi_def_cfa_offset 0
 326 01e4 67800000 		jr	ra
 327              		.cfi_endproc
 328              	.LFE24:
 330              		.align	2
 331              		.globl	_Z9sem_closeP4_sem
 333              	_Z9sem_closeP4_sem:
 334              	.LFB25:
  41:src/syscall_c.cpp **** int sem_close(sem_t handle){
 335              		.loc 1 41 28 is_stmt 1
 336              		.cfi_startproc
GAS LISTING /tmp/ccSz0p0X.s 			page 11


 337              	.LVL26:
 338 01e8 130101FF 		addi	sp,sp,-16
 339              		.cfi_def_cfa_offset 16
 340 01ec 23341100 		sd	ra,8(sp)
 341 01f0 23308100 		sd	s0,0(sp)
 342              		.cfi_offset 1, -8
 343              		.cfi_offset 8, -16
 344 01f4 13040101 		addi	s0,sp,16
 345              		.cfi_def_cfa 8, 0
 346 01f8 93050500 		mv	a1,a0
  42:src/syscall_c.cpp ****     return (int)syscall(SEM_OPEN, (uint64) handle);
 347              		.loc 1 42 5
 348              		.loc 1 42 24 is_stmt 0
 349 01fc 13070000 		li	a4,0
 350 0200 93060000 		li	a3,0
 351 0204 13060000 		li	a2,0
 352 0208 13051002 		li	a0,33
 353              	.LVL27:
 354 020c 97000000 		call	_Z7syscallmmmmm
 354      E7800000 
 355              	.LVL28:
  43:src/syscall_c.cpp **** }
 356              		.loc 1 43 1
 357 0214 1B050500 		sext.w	a0,a0
 358 0218 83308100 		ld	ra,8(sp)
 359              		.cfi_restore 1
 360 021c 03340100 		ld	s0,0(sp)
 361              		.cfi_restore 8
 362              		.cfi_def_cfa 2, 16
 363 0220 13010101 		addi	sp,sp,16
 364              		.cfi_def_cfa_offset 0
 365 0224 67800000 		jr	ra
 366              		.cfi_endproc
 367              	.LFE25:
 369              		.align	2
 370              		.globl	_Z8sem_waitP4_sem
 372              	_Z8sem_waitP4_sem:
 373              	.LFB26:
  44:src/syscall_c.cpp **** int sem_wait(sem_t id){
 374              		.loc 1 44 23 is_stmt 1
 375              		.cfi_startproc
 376              	.LVL29:
 377 0228 130101FF 		addi	sp,sp,-16
 378              		.cfi_def_cfa_offset 16
 379 022c 23341100 		sd	ra,8(sp)
 380 0230 23308100 		sd	s0,0(sp)
 381              		.cfi_offset 1, -8
 382              		.cfi_offset 8, -16
 383 0234 13040101 		addi	s0,sp,16
 384              		.cfi_def_cfa 8, 0
 385 0238 93050500 		mv	a1,a0
  45:src/syscall_c.cpp ****     return (int)syscall(SEM_WAIT, (uint64) id);
 386              		.loc 1 45 5
 387              		.loc 1 45 24 is_stmt 0
 388 023c 13070000 		li	a4,0
 389 0240 93060000 		li	a3,0
 390 0244 13060000 		li	a2,0
GAS LISTING /tmp/ccSz0p0X.s 			page 12


 391 0248 13053002 		li	a0,35
 392              	.LVL30:
 393 024c 97000000 		call	_Z7syscallmmmmm
 393      E7800000 
 394              	.LVL31:
  46:src/syscall_c.cpp **** }
 395              		.loc 1 46 1
 396 0254 1B050500 		sext.w	a0,a0
 397 0258 83308100 		ld	ra,8(sp)
 398              		.cfi_restore 1
 399 025c 03340100 		ld	s0,0(sp)
 400              		.cfi_restore 8
 401              		.cfi_def_cfa 2, 16
 402 0260 13010101 		addi	sp,sp,16
 403              		.cfi_def_cfa_offset 0
 404 0264 67800000 		jr	ra
 405              		.cfi_endproc
 406              	.LFE26:
 408              		.align	2
 409              		.globl	_Z10sem_signalP4_sem
 411              	_Z10sem_signalP4_sem:
 412              	.LFB27:
  47:src/syscall_c.cpp **** int sem_signal(sem_t id){
 413              		.loc 1 47 25 is_stmt 1
 414              		.cfi_startproc
 415              	.LVL32:
 416 0268 130101FF 		addi	sp,sp,-16
 417              		.cfi_def_cfa_offset 16
 418 026c 23341100 		sd	ra,8(sp)
 419 0270 23308100 		sd	s0,0(sp)
 420              		.cfi_offset 1, -8
 421              		.cfi_offset 8, -16
 422 0274 13040101 		addi	s0,sp,16
 423              		.cfi_def_cfa 8, 0
 424 0278 93050500 		mv	a1,a0
  48:src/syscall_c.cpp ****     return (int)syscall(SEM_SIGNAL, (uint64) id);
 425              		.loc 1 48 5
 426              		.loc 1 48 24 is_stmt 0
 427 027c 13070000 		li	a4,0
 428 0280 93060000 		li	a3,0
 429 0284 13060000 		li	a2,0
 430 0288 13054002 		li	a0,36
 431              	.LVL33:
 432 028c 97000000 		call	_Z7syscallmmmmm
 432      E7800000 
 433              	.LVL34:
  49:src/syscall_c.cpp **** }
 434              		.loc 1 49 1
 435 0294 1B050500 		sext.w	a0,a0
 436 0298 83308100 		ld	ra,8(sp)
 437              		.cfi_restore 1
 438 029c 03340100 		ld	s0,0(sp)
 439              		.cfi_restore 8
 440              		.cfi_def_cfa 2, 16
 441 02a0 13010101 		addi	sp,sp,16
 442              		.cfi_def_cfa_offset 0
 443 02a4 67800000 		jr	ra
GAS LISTING /tmp/ccSz0p0X.s 			page 13


 444              		.cfi_endproc
 445              	.LFE27:
 447              		.align	2
 448              		.globl	_Z11sem_trywaitP4_sem
 450              	_Z11sem_trywaitP4_sem:
 451              	.LFB28:
  50:src/syscall_c.cpp **** int sem_trywait(sem_t id){
 452              		.loc 1 50 26 is_stmt 1
 453              		.cfi_startproc
 454              	.LVL35:
 455 02a8 130101FF 		addi	sp,sp,-16
 456              		.cfi_def_cfa_offset 16
 457 02ac 23341100 		sd	ra,8(sp)
 458 02b0 23308100 		sd	s0,0(sp)
 459              		.cfi_offset 1, -8
 460              		.cfi_offset 8, -16
 461 02b4 13040101 		addi	s0,sp,16
 462              		.cfi_def_cfa 8, 0
 463 02b8 93050500 		mv	a1,a0
  51:src/syscall_c.cpp ****     return (int)syscall(SEM_TRYWAIT, (uint64) id);
 464              		.loc 1 51 5
 465              		.loc 1 51 24 is_stmt 0
 466 02bc 13070000 		li	a4,0
 467 02c0 93060000 		li	a3,0
 468 02c4 13060000 		li	a2,0
 469 02c8 13056002 		li	a0,38
 470              	.LVL36:
 471 02cc 97000000 		call	_Z7syscallmmmmm
 471      E7800000 
 472              	.LVL37:
  52:src/syscall_c.cpp **** }
 473              		.loc 1 52 1
 474 02d4 1B050500 		sext.w	a0,a0
 475 02d8 83308100 		ld	ra,8(sp)
 476              		.cfi_restore 1
 477 02dc 03340100 		ld	s0,0(sp)
 478              		.cfi_restore 8
 479              		.cfi_def_cfa 2, 16
 480 02e0 13010101 		addi	sp,sp,16
 481              		.cfi_def_cfa_offset 0
 482 02e4 67800000 		jr	ra
 483              		.cfi_endproc
 484              	.LFE28:
 486              		.align	2
 487              		.globl	_Z4getcv
 489              	_Z4getcv:
 490              	.LFB29:
  53:src/syscall_c.cpp **** 
  54:src/syscall_c.cpp **** //-------------------------------------
  55:src/syscall_c.cpp **** char getc () {
 491              		.loc 1 55 14 is_stmt 1
 492              		.cfi_startproc
 493 02e8 130101FF 		addi	sp,sp,-16
 494              		.cfi_def_cfa_offset 16
 495 02ec 23341100 		sd	ra,8(sp)
 496 02f0 23308100 		sd	s0,0(sp)
 497              		.cfi_offset 1, -8
GAS LISTING /tmp/ccSz0p0X.s 			page 14


 498              		.cfi_offset 8, -16
 499 02f4 13040101 		addi	s0,sp,16
 500              		.cfi_def_cfa 8, 0
  56:src/syscall_c.cpp ****     return syscall(GETC);
 501              		.loc 1 56 5
 502              		.loc 1 56 19 is_stmt 0
 503 02f8 13070000 		li	a4,0
 504 02fc 93060000 		li	a3,0
 505 0300 13060000 		li	a2,0
 506 0304 93050000 		li	a1,0
 507 0308 13051004 		li	a0,65
 508 030c 97000000 		call	_Z7syscallmmmmm
 508      E7800000 
 509              	.LVL38:
  57:src/syscall_c.cpp **** }
 510              		.loc 1 57 1
 511 0314 1375F50F 		andi	a0,a0,0xff
 512 0318 83308100 		ld	ra,8(sp)
 513              		.cfi_restore 1
 514 031c 03340100 		ld	s0,0(sp)
 515              		.cfi_restore 8
 516              		.cfi_def_cfa 2, 16
 517 0320 13010101 		addi	sp,sp,16
 518              		.cfi_def_cfa_offset 0
 519 0324 67800000 		jr	ra
 520              		.cfi_endproc
 521              	.LFE29:
 523              		.align	2
 524              		.globl	_Z4putcc
 526              	_Z4putcc:
 527              	.LFB30:
  58:src/syscall_c.cpp **** 
  59:src/syscall_c.cpp **** void putc (char c) {
 528              		.loc 1 59 20 is_stmt 1
 529              		.cfi_startproc
 530              	.LVL39:
 531 0328 130101FF 		addi	sp,sp,-16
 532              		.cfi_def_cfa_offset 16
 533 032c 23341100 		sd	ra,8(sp)
 534 0330 23308100 		sd	s0,0(sp)
 535              		.cfi_offset 1, -8
 536              		.cfi_offset 8, -16
 537 0334 13040101 		addi	s0,sp,16
 538              		.cfi_def_cfa 8, 0
 539 0338 93050500 		mv	a1,a0
  60:src/syscall_c.cpp ****     syscall(PUTC, c);
 540              		.loc 1 60 5
 541              		.loc 1 60 12 is_stmt 0
 542 033c 13070000 		li	a4,0
 543 0340 93060000 		li	a3,0
 544 0344 13060000 		li	a2,0
 545 0348 13052004 		li	a0,66
 546              	.LVL40:
 547 034c 97000000 		call	_Z7syscallmmmmm
 547      E7800000 
 548              	.LVL41:
  61:src/syscall_c.cpp **** }
GAS LISTING /tmp/ccSz0p0X.s 			page 15


 549              		.loc 1 61 1
 550 0354 83308100 		ld	ra,8(sp)
 551              		.cfi_restore 1
 552 0358 03340100 		ld	s0,0(sp)
 553              		.cfi_restore 8
 554              		.cfi_def_cfa 2, 16
 555 035c 13010101 		addi	sp,sp,16
 556              		.cfi_def_cfa_offset 0
 557 0360 67800000 		jr	ra
 558              		.cfi_endproc
 559              	.LFE30:
 561              	.Letext0:
 562              		.file 3 "src/../h/../lib/hw.h"
 563              		.file 4 "src/../h/syscall_c.hpp"
GAS LISTING /tmp/ccSz0p0X.s 			page 16


DEFINED SYMBOLS
                            *ABS*:0000000000000000 syscall_c.cpp
     /tmp/ccSz0p0X.s:9      .text:0000000000000000 _Z7syscallmmmmm
     /tmp/ccSz0p0X.s:13     .text:0000000000000000 .L0 
     /tmp/ccSz0p0X.s:15     .text:0000000000000000 .L0 
     /tmp/ccSz0p0X.s:16     .text:0000000000000004 .L0 
     /tmp/ccSz0p0X.s:18     .text:0000000000000008 .L0 
     /tmp/ccSz0p0X.s:20     .text:000000000000000c .L0 
     /tmp/ccSz0p0X.s:22     .text:000000000000000c .L0 
   src/syscall_c.cpp:6      .text:000000000000000c .L0 
     /tmp/ccSz0p0X.s:32     .text:0000000000000010 .L0 
     /tmp/ccSz0p0X.s:33     .text:0000000000000010 .L0 
     /tmp/ccSz0p0X.s:34     .text:0000000000000010 .L0 
  src/../h/riscv.hpp:199    .text:0000000000000010 .L0 
     /tmp/ccSz0p0X.s:42     .text:0000000000000018 .L0 
     /tmp/ccSz0p0X.s:43     .text:0000000000000018 .L0 
     /tmp/ccSz0p0X.s:48     .text:000000000000001c .L0 
     /tmp/ccSz0p0X.s:49     .text:0000000000000020 .L0 
     /tmp/ccSz0p0X.s:50     .text:0000000000000020 .L0 
     /tmp/ccSz0p0X.s:52     .text:0000000000000024 .L0 
     /tmp/ccSz0p0X.s:54     .text:0000000000000028 .L0 
     /tmp/ccSz0p0X.s:60     .text:0000000000000028 _Z9mem_allocm
     /tmp/ccSz0p0X.s:63     .text:0000000000000028 .L0 
     /tmp/ccSz0p0X.s:65     .text:0000000000000028 .L0 
     /tmp/ccSz0p0X.s:66     .text:000000000000002c .L0 
     /tmp/ccSz0p0X.s:69     .text:0000000000000034 .L0 
     /tmp/ccSz0p0X.s:70     .text:0000000000000034 .L0 
     /tmp/ccSz0p0X.s:72     .text:0000000000000038 .L0 
     /tmp/ccSz0p0X.s:74     .text:0000000000000038 .L0 
     /tmp/ccSz0p0X.s:75     .text:0000000000000038 .L0 
     /tmp/ccSz0p0X.s:77     .text:000000000000003c .L0 
     /tmp/ccSz0p0X.s:80     .text:0000000000000040 .L0 
     /tmp/ccSz0p0X.s:81     .text:0000000000000040 .L0 
     /tmp/ccSz0p0X.s:91     .text:000000000000005c .L0 
     /tmp/ccSz0p0X.s:92     .text:0000000000000060 .L0 
     /tmp/ccSz0p0X.s:94     .text:0000000000000064 .L0 
     /tmp/ccSz0p0X.s:95     .text:0000000000000064 .L0 
     /tmp/ccSz0p0X.s:97     .text:0000000000000068 .L0 
     /tmp/ccSz0p0X.s:99     .text:000000000000006c .L0 
     /tmp/ccSz0p0X.s:105    .text:000000000000006c _Z8mem_freePv
     /tmp/ccSz0p0X.s:108    .text:000000000000006c .L0 
     /tmp/ccSz0p0X.s:110    .text:000000000000006c .L0 
     /tmp/ccSz0p0X.s:111    .text:0000000000000070 .L0 
     /tmp/ccSz0p0X.s:114    .text:0000000000000078 .L0 
     /tmp/ccSz0p0X.s:115    .text:0000000000000078 .L0 
     /tmp/ccSz0p0X.s:117    .text:000000000000007c .L0 
     /tmp/ccSz0p0X.s:120    .text:0000000000000080 .L0 
     /tmp/ccSz0p0X.s:121    .text:0000000000000080 .L0 
     /tmp/ccSz0p0X.s:129    .text:0000000000000098 .L0 
     /tmp/ccSz0p0X.s:131    .text:00000000000000a0 .L0 
     /tmp/ccSz0p0X.s:133    .text:00000000000000a4 .L0 
     /tmp/ccSz0p0X.s:134    .text:00000000000000a4 .L0 
     /tmp/ccSz0p0X.s:136    .text:00000000000000a8 .L0 
     /tmp/ccSz0p0X.s:138    .text:00000000000000ac .L0 
     /tmp/ccSz0p0X.s:144    .text:00000000000000ac _Z13thread_createPP3TCBPFvPvES2_
     /tmp/ccSz0p0X.s:147    .text:00000000000000ac .L0 
     /tmp/ccSz0p0X.s:149    .text:00000000000000ac .L0 
GAS LISTING /tmp/ccSz0p0X.s 			page 17


     /tmp/ccSz0p0X.s:150    .text:00000000000000b0 .L0 
     /tmp/ccSz0p0X.s:156    .text:00000000000000c4 .L0 
     /tmp/ccSz0p0X.s:157    .text:00000000000000c4 .L0 
     /tmp/ccSz0p0X.s:158    .text:00000000000000c4 .L0 
     /tmp/ccSz0p0X.s:159    .text:00000000000000c4 .L0 
     /tmp/ccSz0p0X.s:160    .text:00000000000000c4 .L0 
     /tmp/ccSz0p0X.s:162    .text:00000000000000c8 .L0 
     /tmp/ccSz0p0X.s:168    .text:00000000000000d4 .L0 
     /tmp/ccSz0p0X.s:169    .text:00000000000000d4 .L0 
     /tmp/ccSz0p0X.s:171    .text:00000000000000d8 .L0 
     /tmp/ccSz0p0X.s:172    .text:00000000000000d8 .L0 
     /tmp/ccSz0p0X.s:180    .text:00000000000000e8 .L0 
     /tmp/ccSz0p0X.s:181    .text:00000000000000e8 .L0 
     /tmp/ccSz0p0X.s:188    .text:0000000000000100 .L0 
     /tmp/ccSz0p0X.s:190    .text:0000000000000108 .L0 
     /tmp/ccSz0p0X.s:191    .text:0000000000000108 .L0 
     /tmp/ccSz0p0X.s:193    .text:000000000000010c .L0 
     /tmp/ccSz0p0X.s:194    .text:000000000000010c .L0 
     /tmp/ccSz0p0X.s:196    .text:0000000000000110 .L0 
     /tmp/ccSz0p0X.s:199    .text:0000000000000114 .L0 
     /tmp/ccSz0p0X.s:202    .text:0000000000000118 .L0 
     /tmp/ccSz0p0X.s:205    .text:000000000000011c .L0 
     /tmp/ccSz0p0X.s:209    .text:0000000000000120 .L0 
     /tmp/ccSz0p0X.s:211    .text:0000000000000120 .L0 
     /tmp/ccSz0p0X.s:213    .text:0000000000000128 .L0 
     /tmp/ccSz0p0X.s:219    .text:0000000000000128 _Z11thread_exitv
     /tmp/ccSz0p0X.s:222    .text:0000000000000128 .L0 
     /tmp/ccSz0p0X.s:223    .text:0000000000000128 .L0 
     /tmp/ccSz0p0X.s:224    .text:000000000000012c .L0 
     /tmp/ccSz0p0X.s:227    .text:0000000000000134 .L0 
     /tmp/ccSz0p0X.s:228    .text:0000000000000134 .L0 
     /tmp/ccSz0p0X.s:230    .text:0000000000000138 .L0 
     /tmp/ccSz0p0X.s:232    .text:0000000000000138 .L0 
     /tmp/ccSz0p0X.s:233    .text:0000000000000138 .L0 
     /tmp/ccSz0p0X.s:241    .text:0000000000000154 .L0 
     /tmp/ccSz0p0X.s:243    .text:000000000000015c .L0 
     /tmp/ccSz0p0X.s:245    .text:0000000000000160 .L0 
     /tmp/ccSz0p0X.s:246    .text:0000000000000160 .L0 
     /tmp/ccSz0p0X.s:248    .text:0000000000000164 .L0 
     /tmp/ccSz0p0X.s:250    .text:0000000000000168 .L0 
     /tmp/ccSz0p0X.s:256    .text:0000000000000168 _Z15thread_dispatchv
     /tmp/ccSz0p0X.s:259    .text:0000000000000168 .L0 
     /tmp/ccSz0p0X.s:260    .text:0000000000000168 .L0 
     /tmp/ccSz0p0X.s:261    .text:000000000000016c .L0 
     /tmp/ccSz0p0X.s:264    .text:0000000000000174 .L0 
     /tmp/ccSz0p0X.s:265    .text:0000000000000174 .L0 
     /tmp/ccSz0p0X.s:267    .text:0000000000000178 .L0 
     /tmp/ccSz0p0X.s:269    .text:0000000000000178 .L0 
     /tmp/ccSz0p0X.s:270    .text:0000000000000178 .L0 
     /tmp/ccSz0p0X.s:278    .text:0000000000000194 .L0 
     /tmp/ccSz0p0X.s:279    .text:0000000000000198 .L0 
     /tmp/ccSz0p0X.s:281    .text:000000000000019c .L0 
     /tmp/ccSz0p0X.s:282    .text:000000000000019c .L0 
     /tmp/ccSz0p0X.s:284    .text:00000000000001a0 .L0 
     /tmp/ccSz0p0X.s:286    .text:00000000000001a4 .L0 
     /tmp/ccSz0p0X.s:292    .text:00000000000001a4 _Z8sem_openPP4_semj
     /tmp/ccSz0p0X.s:295    .text:00000000000001a4 .L0 
GAS LISTING /tmp/ccSz0p0X.s 			page 18


     /tmp/ccSz0p0X.s:297    .text:00000000000001a4 .L0 
     /tmp/ccSz0p0X.s:298    .text:00000000000001a8 .L0 
     /tmp/ccSz0p0X.s:301    .text:00000000000001b0 .L0 
     /tmp/ccSz0p0X.s:302    .text:00000000000001b0 .L0 
     /tmp/ccSz0p0X.s:304    .text:00000000000001b4 .L0 
     /tmp/ccSz0p0X.s:306    .text:00000000000001b4 .L0 
     /tmp/ccSz0p0X.s:307    .text:00000000000001b4 .L0 
     /tmp/ccSz0p0X.s:318    .text:00000000000001d4 .L0 
     /tmp/ccSz0p0X.s:320    .text:00000000000001dc .L0 
     /tmp/ccSz0p0X.s:322    .text:00000000000001e0 .L0 
     /tmp/ccSz0p0X.s:323    .text:00000000000001e0 .L0 
     /tmp/ccSz0p0X.s:325    .text:00000000000001e4 .L0 
     /tmp/ccSz0p0X.s:327    .text:00000000000001e8 .L0 
     /tmp/ccSz0p0X.s:333    .text:00000000000001e8 _Z9sem_closeP4_sem
     /tmp/ccSz0p0X.s:336    .text:00000000000001e8 .L0 
     /tmp/ccSz0p0X.s:338    .text:00000000000001e8 .L0 
     /tmp/ccSz0p0X.s:339    .text:00000000000001ec .L0 
     /tmp/ccSz0p0X.s:342    .text:00000000000001f4 .L0 
     /tmp/ccSz0p0X.s:343    .text:00000000000001f4 .L0 
     /tmp/ccSz0p0X.s:345    .text:00000000000001f8 .L0 
     /tmp/ccSz0p0X.s:348    .text:00000000000001fc .L0 
     /tmp/ccSz0p0X.s:349    .text:00000000000001fc .L0 
     /tmp/ccSz0p0X.s:357    .text:0000000000000214 .L0 
     /tmp/ccSz0p0X.s:359    .text:000000000000021c .L0 
     /tmp/ccSz0p0X.s:361    .text:0000000000000220 .L0 
     /tmp/ccSz0p0X.s:362    .text:0000000000000220 .L0 
     /tmp/ccSz0p0X.s:364    .text:0000000000000224 .L0 
     /tmp/ccSz0p0X.s:366    .text:0000000000000228 .L0 
     /tmp/ccSz0p0X.s:372    .text:0000000000000228 _Z8sem_waitP4_sem
     /tmp/ccSz0p0X.s:375    .text:0000000000000228 .L0 
     /tmp/ccSz0p0X.s:377    .text:0000000000000228 .L0 
     /tmp/ccSz0p0X.s:378    .text:000000000000022c .L0 
     /tmp/ccSz0p0X.s:381    .text:0000000000000234 .L0 
     /tmp/ccSz0p0X.s:382    .text:0000000000000234 .L0 
     /tmp/ccSz0p0X.s:384    .text:0000000000000238 .L0 
     /tmp/ccSz0p0X.s:387    .text:000000000000023c .L0 
     /tmp/ccSz0p0X.s:388    .text:000000000000023c .L0 
     /tmp/ccSz0p0X.s:396    .text:0000000000000254 .L0 
     /tmp/ccSz0p0X.s:398    .text:000000000000025c .L0 
     /tmp/ccSz0p0X.s:400    .text:0000000000000260 .L0 
     /tmp/ccSz0p0X.s:401    .text:0000000000000260 .L0 
     /tmp/ccSz0p0X.s:403    .text:0000000000000264 .L0 
     /tmp/ccSz0p0X.s:405    .text:0000000000000268 .L0 
     /tmp/ccSz0p0X.s:411    .text:0000000000000268 _Z10sem_signalP4_sem
     /tmp/ccSz0p0X.s:414    .text:0000000000000268 .L0 
     /tmp/ccSz0p0X.s:416    .text:0000000000000268 .L0 
     /tmp/ccSz0p0X.s:417    .text:000000000000026c .L0 
     /tmp/ccSz0p0X.s:420    .text:0000000000000274 .L0 
     /tmp/ccSz0p0X.s:421    .text:0000000000000274 .L0 
     /tmp/ccSz0p0X.s:423    .text:0000000000000278 .L0 
     /tmp/ccSz0p0X.s:426    .text:000000000000027c .L0 
     /tmp/ccSz0p0X.s:427    .text:000000000000027c .L0 
     /tmp/ccSz0p0X.s:435    .text:0000000000000294 .L0 
     /tmp/ccSz0p0X.s:437    .text:000000000000029c .L0 
     /tmp/ccSz0p0X.s:439    .text:00000000000002a0 .L0 
     /tmp/ccSz0p0X.s:440    .text:00000000000002a0 .L0 
     /tmp/ccSz0p0X.s:442    .text:00000000000002a4 .L0 
GAS LISTING /tmp/ccSz0p0X.s 			page 19


     /tmp/ccSz0p0X.s:444    .text:00000000000002a8 .L0 
     /tmp/ccSz0p0X.s:450    .text:00000000000002a8 _Z11sem_trywaitP4_sem
     /tmp/ccSz0p0X.s:453    .text:00000000000002a8 .L0 
     /tmp/ccSz0p0X.s:455    .text:00000000000002a8 .L0 
     /tmp/ccSz0p0X.s:456    .text:00000000000002ac .L0 
     /tmp/ccSz0p0X.s:459    .text:00000000000002b4 .L0 
     /tmp/ccSz0p0X.s:460    .text:00000000000002b4 .L0 
     /tmp/ccSz0p0X.s:462    .text:00000000000002b8 .L0 
     /tmp/ccSz0p0X.s:465    .text:00000000000002bc .L0 
     /tmp/ccSz0p0X.s:466    .text:00000000000002bc .L0 
     /tmp/ccSz0p0X.s:474    .text:00000000000002d4 .L0 
     /tmp/ccSz0p0X.s:476    .text:00000000000002dc .L0 
     /tmp/ccSz0p0X.s:478    .text:00000000000002e0 .L0 
     /tmp/ccSz0p0X.s:479    .text:00000000000002e0 .L0 
     /tmp/ccSz0p0X.s:481    .text:00000000000002e4 .L0 
     /tmp/ccSz0p0X.s:483    .text:00000000000002e8 .L0 
     /tmp/ccSz0p0X.s:489    .text:00000000000002e8 _Z4getcv
     /tmp/ccSz0p0X.s:492    .text:00000000000002e8 .L0 
     /tmp/ccSz0p0X.s:493    .text:00000000000002e8 .L0 
     /tmp/ccSz0p0X.s:494    .text:00000000000002ec .L0 
     /tmp/ccSz0p0X.s:497    .text:00000000000002f4 .L0 
     /tmp/ccSz0p0X.s:498    .text:00000000000002f4 .L0 
     /tmp/ccSz0p0X.s:500    .text:00000000000002f8 .L0 
     /tmp/ccSz0p0X.s:502    .text:00000000000002f8 .L0 
     /tmp/ccSz0p0X.s:503    .text:00000000000002f8 .L0 
     /tmp/ccSz0p0X.s:511    .text:0000000000000314 .L0 
     /tmp/ccSz0p0X.s:513    .text:000000000000031c .L0 
     /tmp/ccSz0p0X.s:515    .text:0000000000000320 .L0 
     /tmp/ccSz0p0X.s:516    .text:0000000000000320 .L0 
     /tmp/ccSz0p0X.s:518    .text:0000000000000324 .L0 
     /tmp/ccSz0p0X.s:520    .text:0000000000000328 .L0 
     /tmp/ccSz0p0X.s:526    .text:0000000000000328 _Z4putcc
     /tmp/ccSz0p0X.s:529    .text:0000000000000328 .L0 
     /tmp/ccSz0p0X.s:531    .text:0000000000000328 .L0 
     /tmp/ccSz0p0X.s:532    .text:000000000000032c .L0 
     /tmp/ccSz0p0X.s:535    .text:0000000000000334 .L0 
     /tmp/ccSz0p0X.s:536    .text:0000000000000334 .L0 
     /tmp/ccSz0p0X.s:538    .text:0000000000000338 .L0 
     /tmp/ccSz0p0X.s:541    .text:000000000000033c .L0 
     /tmp/ccSz0p0X.s:542    .text:000000000000033c .L0 
     /tmp/ccSz0p0X.s:550    .text:0000000000000354 .L0 
     /tmp/ccSz0p0X.s:551    .text:0000000000000358 .L0 
     /tmp/ccSz0p0X.s:553    .text:000000000000035c .L0 
     /tmp/ccSz0p0X.s:554    .text:000000000000035c .L0 
     /tmp/ccSz0p0X.s:556    .text:0000000000000360 .L0 
     /tmp/ccSz0p0X.s:558    .text:0000000000000364 .L0 
     /tmp/ccSz0p0X.s:564    .text:0000000000000364 .L0 
     /tmp/ccSz0p0X.s:208    .text:0000000000000120 .L9
     /tmp/ccSz0p0X.s:178    .text:00000000000000e8 .L8
     /tmp/ccSz0p0X.s:1747   .debug_abbrev:0000000000000000 .Ldebug_abbrev0
     /tmp/ccSz0p0X.s:2815   .debug_str:0000000000000615 .LASF121
     /tmp/ccSz0p0X.s:2711   .debug_str:0000000000000304 .LASF122
     /tmp/ccSz0p0X.s:2705   .debug_str:00000000000002cd .LASF123
     /tmp/ccSz0p0X.s:5      .text:0000000000000000 .Ltext0
     /tmp/ccSz0p0X.s:561    .text:0000000000000364 .Letext0
     /tmp/ccSz0p0X.s:2597   .debug_line:0000000000000000 .Ldebug_line0
     /tmp/ccSz0p0X.s:2743   .debug_str:00000000000003f2 .LASF0
GAS LISTING /tmp/ccSz0p0X.s 			page 20


     /tmp/ccSz0p0X.s:2753   .debug_str:0000000000000419 .LASF1
     /tmp/ccSz0p0X.s:2731   .debug_str:000000000000039b .LASF2
     /tmp/ccSz0p0X.s:2707   .debug_str:00000000000002f4 .LASF4
     /tmp/ccSz0p0X.s:2789   .debug_str:0000000000000573 .LASF3
     /tmp/ccSz0p0X.s:2623   .debug_str:0000000000000099 .LASF5
     /tmp/ccSz0p0X.s:2757   .debug_str:0000000000000441 .LASF6
     /tmp/ccSz0p0X.s:2741   .debug_str:00000000000003df .LASF7
     /tmp/ccSz0p0X.s:2825   .debug_str:0000000000000716 .LASF8
     /tmp/ccSz0p0X.s:2693   .debug_str:0000000000000275 .LASF9
     /tmp/ccSz0p0X.s:2769   .debug_str:00000000000004c2 .LASF10
     /tmp/ccSz0p0X.s:2817   .debug_str:00000000000006d9 .LASF11
     /tmp/ccSz0p0X.s:2627   .debug_str:00000000000000b2 .LASF12
     /tmp/ccSz0p0X.s:2605   .debug_str:000000000000002b .LASF13
     /tmp/ccSz0p0X.s:2641   .debug_str:0000000000000128 .LASF14
     /tmp/ccSz0p0X.s:2783   .debug_str:000000000000053c .LASF15
     /tmp/ccSz0p0X.s:2651   .debug_str:000000000000016a .LASF16
     /tmp/ccSz0p0X.s:2747   .debug_str:0000000000000406 .LASF117
     /tmp/ccSz0p0X.s:2797   .debug_str:000000000000059a .LASF17
     /tmp/ccSz0p0X.s:2779   .debug_str:0000000000000528 .LASF18
     /tmp/ccSz0p0X.s:2619   .debug_str:0000000000000086 .LASF19
     /tmp/ccSz0p0X.s:2667   .debug_str:00000000000001e8 .LASF20
     /tmp/ccSz0p0X.s:2719   .debug_str:0000000000000335 .LASF21
     /tmp/ccSz0p0X.s:2851   .debug_str:00000000000007d6 .LASF22
     /tmp/ccSz0p0X.s:2643   .debug_str:0000000000000134 .LASF23
     /tmp/ccSz0p0X.s:2823   .debug_str:000000000000070d .LASF24
     /tmp/ccSz0p0X.s:2717   .debug_str:000000000000032b .LASF25
     /tmp/ccSz0p0X.s:2795   .debug_str:0000000000000591 .LASF26
     /tmp/ccSz0p0X.s:2629   .debug_str:00000000000000c2 .LASF27
     /tmp/ccSz0p0X.s:2691   .debug_str:0000000000000269 .LASF28
     /tmp/ccSz0p0X.s:2599   .debug_str:0000000000000000 .LASF29
     /tmp/ccSz0p0X.s:2669   .debug_str:00000000000001ed .LASF30
     /tmp/ccSz0p0X.s:2837   .debug_str:0000000000000761 .LASF31
     /tmp/ccSz0p0X.s:2751   .debug_str:0000000000000413 .LASF124
     /tmp/ccSz0p0X.s:2609   .debug_str:0000000000000044 .LASF125
     /tmp/ccSz0p0X.s:2727   .debug_str:0000000000000377 .LASF126
     /tmp/ccSz0p0X.s:2621   .debug_str:000000000000008b .LASF32
     /tmp/ccSz0p0X.s:2611   .debug_str:0000000000000052 .LASF34
     /tmp/ccSz0p0X.s:2803   .debug_str:00000000000005d0 .LASF33
     /tmp/ccSz0p0X.s:2603   .debug_str:0000000000000011 .LASF35
     /tmp/ccSz0p0X.s:2781   .debug_str:0000000000000531 .LASF36
     /tmp/ccSz0p0X.s:2843   .debug_str:0000000000000787 .LASF37
     /tmp/ccSz0p0X.s:2607   .debug_str:000000000000003b .LASF38
     /tmp/ccSz0p0X.s:2801   .debug_str:00000000000005bb .LASF40
     /tmp/ccSz0p0X.s:2647   .debug_str:000000000000014d .LASF42
     /tmp/ccSz0p0X.s:2665   .debug_str:00000000000001d3 .LASF44
     /tmp/ccSz0p0X.s:2793   .debug_str:000000000000058a .LASF39
     /tmp/ccSz0p0X.s:2773   .debug_str:00000000000004e6 .LASF41
     /tmp/ccSz0p0X.s:2813   .debug_str:000000000000060e .LASF43
     /tmp/ccSz0p0X.s:2807   .debug_str:00000000000005e4 .LASF45
     /tmp/ccSz0p0X.s:2681   .debug_str:000000000000023c .LASF46
     /tmp/ccSz0p0X.s:2653   .debug_str:0000000000000180 .LASF47
     /tmp/ccSz0p0X.s:2601   .debug_str:0000000000000009 .LASF48
     /tmp/ccSz0p0X.s:2699   .debug_str:000000000000029e .LASF49
     /tmp/ccSz0p0X.s:2673   .debug_str:0000000000000204 .LASF50
     /tmp/ccSz0p0X.s:2633   .debug_str:00000000000000de .LASF51
     /tmp/ccSz0p0X.s:2849   .debug_str:00000000000007ce .LASF52
     /tmp/ccSz0p0X.s:2675   .debug_str:000000000000020c .LASF53
GAS LISTING /tmp/ccSz0p0X.s 			page 21


     /tmp/ccSz0p0X.s:2745   .debug_str:00000000000003ff .LASF54
     /tmp/ccSz0p0X.s:2839   .debug_str:0000000000000766 .LASF55
     /tmp/ccSz0p0X.s:2617   .debug_str:000000000000007f .LASF56
     /tmp/ccSz0p0X.s:2679   .debug_str:0000000000000229 .LASF57
     /tmp/ccSz0p0X.s:2689   .debug_str:0000000000000263 .LASF58
     /tmp/ccSz0p0X.s:2811   .debug_str:00000000000005fc .LASF59
     /tmp/ccSz0p0X.s:2615   .debug_str:0000000000000079 .LASF60
     /tmp/ccSz0p0X.s:2625   .debug_str:00000000000000a0 .LASF61
     /tmp/ccSz0p0X.s:2847   .debug_str:00000000000007c3 .LASF62
     /tmp/ccSz0p0X.s:2785   .debug_str:0000000000000552 .LASF63
     /tmp/ccSz0p0X.s:2713   .debug_str:0000000000000316 .LASF64
     /tmp/ccSz0p0X.s:2723   .debug_str:0000000000000353 .LASF65
     /tmp/ccSz0p0X.s:2639   .debug_str:000000000000011e .LASF66
     /tmp/ccSz0p0X.s:2703   .debug_str:00000000000002b7 .LASF67
     /tmp/ccSz0p0X.s:2735   .debug_str:00000000000003bf .LASF68
     /tmp/ccSz0p0X.s:2697   .debug_str:0000000000000288 .LASF69
     /tmp/ccSz0p0X.s:2657   .debug_str:000000000000019f .LASF70
     /tmp/ccSz0p0X.s:2635   .debug_str:00000000000000f2 .LASF71
     /tmp/ccSz0p0X.s:2659   .debug_str:00000000000001ae .LASF72
     /tmp/ccSz0p0X.s:2821   .debug_str:00000000000006ef .LASF73
     /tmp/ccSz0p0X.s:2809   .debug_str:00000000000005f7 .LASF74
     /tmp/ccSz0p0X.s:2671   .debug_str:00000000000001f3 .LASF75
     /tmp/ccSz0p0X.s:2695   .debug_str:0000000000000283 .LASF76
     /tmp/ccSz0p0X.s:2737   .debug_str:00000000000003c9 .LASF77
     /tmp/ccSz0p0X.s:2831   .debug_str:0000000000000739 .LASF78
     /tmp/ccSz0p0X.s:2761   .debug_str:0000000000000466 .LASF80
     /tmp/ccSz0p0X.s:2755   .debug_str:000000000000042c .LASF79
     /tmp/ccSz0p0X.s:2765   .debug_str:000000000000048d .LASF81
     /tmp/ccSz0p0X.s:2799   .debug_str:00000000000005a4 .LASF82
     /tmp/ccSz0p0X.s:2845   .debug_str:000000000000079f .LASF83
     /tmp/ccSz0p0X.s:2791   .debug_str:0000000000000585 .LASF99
     /tmp/ccSz0p0X.s:2677   .debug_str:0000000000000220 .LASF101
     /tmp/ccSz0p0X.s:527    .text:0000000000000328 .LFB30
     /tmp/ccSz0p0X.s:559    .text:0000000000000364 .LFE30
     /tmp/ccSz0p0X.s:2305   .debug_loc:0000000000000000 .LLST14
     /tmp/ccSz0p0X.s:548    .text:0000000000000354 .LVL41
     /tmp/ccSz0p0X.s:2701   .debug_str:00000000000002b2 .LASF84
     /tmp/ccSz0p0X.s:2729   .debug_str:0000000000000396 .LASF85
     /tmp/ccSz0p0X.s:2787   .debug_str:000000000000056a .LASF87
     /tmp/ccSz0p0X.s:490    .text:00000000000002e8 .LFB29
     /tmp/ccSz0p0X.s:521    .text:0000000000000328 .LFE29
     /tmp/ccSz0p0X.s:509    .text:0000000000000314 .LVL38
     /tmp/ccSz0p0X.s:2725   .debug_str:000000000000036b .LASF86
     /tmp/ccSz0p0X.s:2733   .debug_str:00000000000003a9 .LASF88
     /tmp/ccSz0p0X.s:451    .text:00000000000002a8 .LFB28
     /tmp/ccSz0p0X.s:484    .text:00000000000002e8 .LFE28
     /tmp/ccSz0p0X.s:2319   .debug_loc:0000000000000039 .LLST13
     /tmp/ccSz0p0X.s:472    .text:00000000000002d4 .LVL37
     /tmp/ccSz0p0X.s:2655   .debug_str:0000000000000194 .LASF89
     /tmp/ccSz0p0X.s:2683   .debug_str:0000000000000244 .LASF90
     /tmp/ccSz0p0X.s:412    .text:0000000000000268 .LFB27
     /tmp/ccSz0p0X.s:445    .text:00000000000002a8 .LFE27
     /tmp/ccSz0p0X.s:2337   .debug_loc:0000000000000085 .LLST12
     /tmp/ccSz0p0X.s:433    .text:0000000000000294 .LVL34
     /tmp/ccSz0p0X.s:2645   .debug_str:0000000000000144 .LASF91
     /tmp/ccSz0p0X.s:2759   .debug_str:0000000000000454 .LASF92
     /tmp/ccSz0p0X.s:373    .text:0000000000000228 .LFB26
GAS LISTING /tmp/ccSz0p0X.s 			page 22


     /tmp/ccSz0p0X.s:406    .text:0000000000000268 .LFE26
     /tmp/ccSz0p0X.s:2355   .debug_loc:00000000000000d1 .LLST11
     /tmp/ccSz0p0X.s:394    .text:0000000000000254 .LVL31
     /tmp/ccSz0p0X.s:2715   .debug_str:0000000000000321 .LASF93
     /tmp/ccSz0p0X.s:2767   .debug_str:00000000000004af .LASF94
     /tmp/ccSz0p0X.s:334    .text:00000000000001e8 .LFB25
     /tmp/ccSz0p0X.s:367    .text:0000000000000228 .LFE25
     /tmp/ccSz0p0X.s:2805   .debug_str:00000000000005dd .LASF95
     /tmp/ccSz0p0X.s:2373   .debug_loc:000000000000011d .LLST10
     /tmp/ccSz0p0X.s:355    .text:0000000000000214 .LVL28
     /tmp/ccSz0p0X.s:2829   .debug_str:0000000000000730 .LASF96
     /tmp/ccSz0p0X.s:2649   .debug_str:0000000000000156 .LASF97
     /tmp/ccSz0p0X.s:293    .text:00000000000001a4 .LFB24
     /tmp/ccSz0p0X.s:328    .text:00000000000001e8 .LFE24
     /tmp/ccSz0p0X.s:2391   .debug_loc:0000000000000169 .LLST8
     /tmp/ccSz0p0X.s:2763   .debug_str:0000000000000488 .LASF98
     /tmp/ccSz0p0X.s:2409   .debug_loc:00000000000001b5 .LLST9
     /tmp/ccSz0p0X.s:316    .text:00000000000001d4 .LVL25
     /tmp/ccSz0p0X.s:2721   .debug_str:0000000000000343 .LASF100
     /tmp/ccSz0p0X.s:2771   .debug_str:00000000000004d1 .LASF102
     /tmp/ccSz0p0X.s:257    .text:0000000000000168 .LFB23
     /tmp/ccSz0p0X.s:287    .text:00000000000001a4 .LFE23
     /tmp/ccSz0p0X.s:276    .text:0000000000000194 .LVL21
     /tmp/ccSz0p0X.s:2613   .debug_str:000000000000006d .LASF103
     /tmp/ccSz0p0X.s:2631   .debug_str:00000000000000cd .LASF104
     /tmp/ccSz0p0X.s:220    .text:0000000000000128 .LFB22
     /tmp/ccSz0p0X.s:251    .text:0000000000000168 .LFE22
     /tmp/ccSz0p0X.s:239    .text:0000000000000154 .LVL20
     /tmp/ccSz0p0X.s:2661   .debug_str:00000000000001bf .LASF105
     /tmp/ccSz0p0X.s:2777   .debug_str:0000000000000507 .LASF106
     /tmp/ccSz0p0X.s:145    .text:00000000000000ac .LFB21
     /tmp/ccSz0p0X.s:214    .text:0000000000000128 .LFE21
     /tmp/ccSz0p0X.s:2423   .debug_loc:00000000000001ee .LLST4
     /tmp/ccSz0p0X.s:2775   .debug_str:00000000000004f9 .LASF107
     /tmp/ccSz0p0X.s:2445   .debug_loc:000000000000024d .LLST5
     /tmp/ccSz0p0X.s:2467   .debug_loc:00000000000002ac .LLST6
     /tmp/ccSz0p0X.s:2663   .debug_str:00000000000001cd .LASF108
     /tmp/ccSz0p0X.s:2489   .debug_loc:000000000000030b .LLST7
     /tmp/ccSz0p0X.s:175    .text:00000000000000e4 .LVL13
     /tmp/ccSz0p0X.s:186    .text:0000000000000100 .LVL15
     /tmp/ccSz0p0X.s:2709   .debug_str:00000000000002fb .LASF109
     /tmp/ccSz0p0X.s:2841   .debug_str:0000000000000779 .LASF110
     /tmp/ccSz0p0X.s:106    .text:000000000000006c .LFB20
     /tmp/ccSz0p0X.s:139    .text:00000000000000ac .LFE20
     /tmp/ccSz0p0X.s:2506   .debug_loc:0000000000000356 .LLST3
     /tmp/ccSz0p0X.s:127    .text:0000000000000098 .LVL9
     /tmp/ccSz0p0X.s:2827   .debug_str:0000000000000726 .LASF111
     /tmp/ccSz0p0X.s:2833   .debug_str:000000000000074e .LASF112
     /tmp/ccSz0p0X.s:61     .text:0000000000000028 .LFB19
     /tmp/ccSz0p0X.s:100    .text:000000000000006c .LFE19
     /tmp/ccSz0p0X.s:2739   .debug_str:00000000000003da .LASF113
     /tmp/ccSz0p0X.s:2524   .debug_loc:00000000000003a2 .LLST1
     /tmp/ccSz0p0X.s:2819   .debug_str:00000000000006e8 .LASF114
     /tmp/ccSz0p0X.s:2538   .debug_loc:00000000000003db .LLST2
     /tmp/ccSz0p0X.s:89     .text:000000000000005c .LVL6
     /tmp/ccSz0p0X.s:2749   .debug_str:000000000000040b .LASF115
     /tmp/ccSz0p0X.s:2637   .debug_str:000000000000010e .LASF116
GAS LISTING /tmp/ccSz0p0X.s 			page 23


     /tmp/ccSz0p0X.s:10     .text:0000000000000000 .LFB18
     /tmp/ccSz0p0X.s:55     .text:0000000000000028 .LFE18
     /tmp/ccSz0p0X.s:2570   .debug_loc:0000000000000435 .LLST0
     /tmp/ccSz0p0X.s:2685   .debug_str:0000000000000259 .LASF118
     /tmp/ccSz0p0X.s:2687   .debug_str:000000000000025e .LASF119
     /tmp/ccSz0p0X.s:2835   .debug_str:000000000000075c .LASF120
     /tmp/ccSz0p0X.s:29     .text:0000000000000010 .LBB4
     /tmp/ccSz0p0X.s:46     .text:000000000000001c .LBE4
     /tmp/ccSz0p0X.s:530    .text:0000000000000328 .LVL39
     /tmp/ccSz0p0X.s:546    .text:000000000000034c .LVL40
     /tmp/ccSz0p0X.s:454    .text:00000000000002a8 .LVL35
     /tmp/ccSz0p0X.s:470    .text:00000000000002cc .LVL36
     /tmp/ccSz0p0X.s:415    .text:0000000000000268 .LVL32
     /tmp/ccSz0p0X.s:431    .text:000000000000028c .LVL33
     /tmp/ccSz0p0X.s:376    .text:0000000000000228 .LVL29
     /tmp/ccSz0p0X.s:392    .text:000000000000024c .LVL30
     /tmp/ccSz0p0X.s:337    .text:00000000000001e8 .LVL26
     /tmp/ccSz0p0X.s:353    .text:000000000000020c .LVL27
     /tmp/ccSz0p0X.s:296    .text:00000000000001a4 .LVL22
     /tmp/ccSz0p0X.s:314    .text:00000000000001cc .LVL24
     /tmp/ccSz0p0X.s:312    .text:00000000000001c8 .LVL23
     /tmp/ccSz0p0X.s:148    .text:00000000000000ac .LVL10
     /tmp/ccSz0p0X.s:173    .text:00000000000000dc .LVL12
     /tmp/ccSz0p0X.s:200    .text:0000000000000114 .LVL17
     /tmp/ccSz0p0X.s:207    .text:0000000000000120 .LVL19
     /tmp/ccSz0p0X.s:197    .text:0000000000000110 .LVL16
     /tmp/ccSz0p0X.s:203    .text:0000000000000118 .LVL18
     /tmp/ccSz0p0X.s:167    .text:00000000000000d4 .LVL11
     /tmp/ccSz0p0X.s:177    .text:00000000000000e8 .LVL14
     /tmp/ccSz0p0X.s:109    .text:000000000000006c .LVL7
     /tmp/ccSz0p0X.s:125    .text:0000000000000090 .LVL8
     /tmp/ccSz0p0X.s:64     .text:0000000000000028 .LVL2
     /tmp/ccSz0p0X.s:87     .text:0000000000000054 .LVL5
     /tmp/ccSz0p0X.s:78     .text:0000000000000040 .LVL3
     /tmp/ccSz0p0X.s:85     .text:0000000000000050 .LVL4
     /tmp/ccSz0p0X.s:14     .text:0000000000000000 .LVL0
     /tmp/ccSz0p0X.s:44     .text:000000000000001c .LVL1
     /tmp/ccSz0p0X.s:565    .debug_info:0000000000000000 .Ldebug_info0

NO UNDEFINED SYMBOLS
