GAS LISTING /tmp/ccCz2gch.s 			page 1


   1              		.file	"syscall_c.cpp"
   2              		.option pic
   3              		.option norelax
   4              		.text
   5              	.Ltext0:
   6              		.align	2
   7              		.globl	_Z7syscallmmmmm
   9              	_Z7syscallmmmmm:
  10              	.LFB18:
  11              		.file 1 "src/syscall_c.cpp"
   1:src/syscall_c.cpp **** #include "../h/syscall_c.hpp"
   2:src/syscall_c.cpp **** #include "../h/riscv.hpp"
   3:src/syscall_c.cpp **** 
   4:src/syscall_c.cpp **** 
   5:src/syscall_c.cpp **** uint64 syscall(uint64 code, uint64 arg = 0, uint64 arg2 = 0, uint64 arg3 = 0, uint64 arg4 = 0) {
  12              		.loc 1 5 96
  13              		.cfi_startproc
  14              	.LVL0:
  15 0000 130101FE 		addi	sp,sp,-32
  16              		.cfi_def_cfa_offset 32
  17 0004 233C8100 		sd	s0,24(sp)
  18              		.cfi_offset 8, -8
  19 0008 13040102 		addi	s0,sp,32
  20              		.cfi_def_cfa 8, 0
   6:src/syscall_c.cpp ****     __asm__ volatile ("ecall");
  21              		.loc 1 6 5
  22              		.loc 1 6 31 is_stmt 0
  23              	#APP
  24              	# 6 "src/syscall_c.cpp" 1
   7              	    return Riscv::r_a0();
  25              		ecall
  26              	# 0 "" 2
  27              		.loc 1 7 5 is_stmt 1
  28              	#NO_APP
  29              	.LBB4:
  30              	.LBB5:
  31              		.file 2 "src/../h/riscv.hpp"
   1:src/../h/riscv.hpp **** #ifndef RISCV_HPP
   2:src/../h/riscv.hpp **** #define RISCV_HPP
   3:src/../h/riscv.hpp **** 
   4:src/../h/riscv.hpp **** #include "../lib/hw.h"
   5:src/../h/riscv.hpp **** 
   6:src/../h/riscv.hpp **** class Riscv{
   7:src/../h/riscv.hpp **** 
   8:src/../h/riscv.hpp ****     static void obradaprekida(uint64 code, uint64 arg1, uint64 arg2, uint64 arg3, uint64 arg4);
   9:src/../h/riscv.hpp **** public:
  10:src/../h/riscv.hpp **** 
  11:src/../h/riscv.hpp ****   static void pushRegisters();
  12:src/../h/riscv.hpp ****   static void popRegisters();
  13:src/../h/riscv.hpp **** 
  14:src/../h/riscv.hpp ****     // pop sstatus.spp and sstatus.spie bits (has to be a non inline function)
  15:src/../h/riscv.hpp ****     static void popSppSpie();
  16:src/../h/riscv.hpp **** 
  17:src/../h/riscv.hpp ****     // read register scause
  18:src/../h/riscv.hpp ****     static uint64 r_scause();
  19:src/../h/riscv.hpp **** 
  20:src/../h/riscv.hpp ****     // write register scause
GAS LISTING /tmp/ccCz2gch.s 			page 2


  21:src/../h/riscv.hpp ****     static void w_scause(uint64 scause);
  22:src/../h/riscv.hpp **** 
  23:src/../h/riscv.hpp ****     // read register sepc
  24:src/../h/riscv.hpp ****     static uint64 r_sepc();
  25:src/../h/riscv.hpp **** 
  26:src/../h/riscv.hpp ****     // write register sepc
  27:src/../h/riscv.hpp ****     static void w_sepc(uint64 sepc);
  28:src/../h/riscv.hpp **** 
  29:src/../h/riscv.hpp ****     // read register stvec
  30:src/../h/riscv.hpp ****     static uint64 r_stvec();
  31:src/../h/riscv.hpp **** 
  32:src/../h/riscv.hpp ****     // write register stvec
  33:src/../h/riscv.hpp ****     static void w_stvec(uint64 stvec);
  34:src/../h/riscv.hpp **** 
  35:src/../h/riscv.hpp ****     // read register stval
  36:src/../h/riscv.hpp ****     static uint64 r_stval();
  37:src/../h/riscv.hpp **** 
  38:src/../h/riscv.hpp ****     // write register stval
  39:src/../h/riscv.hpp ****     static void w_stval(uint64 stval);
  40:src/../h/riscv.hpp **** 
  41:src/../h/riscv.hpp ****     enum BitMaskSip
  42:src/../h/riscv.hpp ****     {
  43:src/../h/riscv.hpp ****         SIP_SSIE = (1 << 1),
  44:src/../h/riscv.hpp ****         SIP_STIP = (1 << 5),
  45:src/../h/riscv.hpp ****         SIP_SEIP = (1 << 9),
  46:src/../h/riscv.hpp ****     };
  47:src/../h/riscv.hpp **** 
  48:src/../h/riscv.hpp ****     // mask set register sip
  49:src/../h/riscv.hpp ****     static void ms_sip(uint64 mask);
  50:src/../h/riscv.hpp **** 
  51:src/../h/riscv.hpp ****     // mask clear register sip
  52:src/../h/riscv.hpp ****     static void mc_sip(uint64 mask);
  53:src/../h/riscv.hpp **** 
  54:src/../h/riscv.hpp ****     // read register sip
  55:src/../h/riscv.hpp ****     static uint64 r_sip();
  56:src/../h/riscv.hpp **** 
  57:src/../h/riscv.hpp ****     // write register sip
  58:src/../h/riscv.hpp ****     static void w_sip(uint64 sip);
  59:src/../h/riscv.hpp **** 
  60:src/../h/riscv.hpp ****     enum BitMaskSstatus
  61:src/../h/riscv.hpp ****     {
  62:src/../h/riscv.hpp ****         SSTATUS_SIE = (1 << 1),
  63:src/../h/riscv.hpp ****         SSTATUS_SPIE = (1 << 5),
  64:src/../h/riscv.hpp ****         SSTATUS_SPP = (1 << 8),
  65:src/../h/riscv.hpp ****     };
  66:src/../h/riscv.hpp **** 
  67:src/../h/riscv.hpp ****     // mask set register sstatus
  68:src/../h/riscv.hpp ****     static void ms_sstatus(uint64 mask);
  69:src/../h/riscv.hpp **** 
  70:src/../h/riscv.hpp ****     // mask clear register sstatus
  71:src/../h/riscv.hpp ****     static void mc_sstatus(uint64 mask);
  72:src/../h/riscv.hpp **** 
  73:src/../h/riscv.hpp ****     // read register sstatus
  74:src/../h/riscv.hpp ****     static uint64 r_sstatus();
  75:src/../h/riscv.hpp **** 
  76:src/../h/riscv.hpp ****     // write register sstatus
  77:src/../h/riscv.hpp ****     static void w_sstatus(uint64 sstatus);
GAS LISTING /tmp/ccCz2gch.s 			page 3


  78:src/../h/riscv.hpp **** 
  79:src/../h/riscv.hpp ****     // supervisor trap
  80:src/../h/riscv.hpp ****     static void supervisorTrap();
  81:src/../h/riscv.hpp **** 
  82:src/../h/riscv.hpp ****     //stvec Vector "table"
  83:src/../h/riscv.hpp ****     static void stvecVectorTable();
  84:src/../h/riscv.hpp **** 
  85:src/../h/riscv.hpp ****     //read a0 register
  86:src/../h/riscv.hpp ****     static uint64 r_a0();
  87:src/../h/riscv.hpp **** 
  88:src/../h/riscv.hpp ****     //write to a0 register
  89:src/../h/riscv.hpp ****     static void w_a0(uint64 writeValue);
  90:src/../h/riscv.hpp **** 
  91:src/../h/riscv.hpp **** 
  92:src/../h/riscv.hpp **** private:
  93:src/../h/riscv.hpp **** 
  94:src/../h/riscv.hpp ****     // supervisor trap handler
  95:src/../h/riscv.hpp ****     static void handleSupervisorTrap();
  96:src/../h/riscv.hpp **** 
  97:src/../h/riscv.hpp ****     static void handleTimerInterrupt();
  98:src/../h/riscv.hpp **** 
  99:src/../h/riscv.hpp ****     static void handleConsoleInterrupt();
 100:src/../h/riscv.hpp **** };
 101:src/../h/riscv.hpp **** 
 102:src/../h/riscv.hpp **** 
 103:src/../h/riscv.hpp **** inline uint64 Riscv::r_scause()
 104:src/../h/riscv.hpp **** {
 105:src/../h/riscv.hpp ****     uint64 volatile scause;
 106:src/../h/riscv.hpp ****     __asm__ volatile ("csrr %[scause], scause" : [scause] "=r"(scause));
 107:src/../h/riscv.hpp ****     return scause;
 108:src/../h/riscv.hpp **** }
 109:src/../h/riscv.hpp **** 
 110:src/../h/riscv.hpp **** inline void Riscv::w_scause(uint64 scause)
 111:src/../h/riscv.hpp **** {
 112:src/../h/riscv.hpp ****     __asm__ volatile ("csrw scause, %[scause]" : : [scause] "r"(scause));
 113:src/../h/riscv.hpp **** }
 114:src/../h/riscv.hpp **** 
 115:src/../h/riscv.hpp **** inline uint64 Riscv::r_sepc()
 116:src/../h/riscv.hpp **** {
 117:src/../h/riscv.hpp ****     uint64 volatile sepc;
 118:src/../h/riscv.hpp ****     __asm__ volatile ("csrr %[sepc], sepc" : [sepc] "=r"(sepc));
 119:src/../h/riscv.hpp ****     return sepc;
 120:src/../h/riscv.hpp **** }
 121:src/../h/riscv.hpp **** 
 122:src/../h/riscv.hpp **** inline void Riscv::w_sepc(uint64 sepc)
 123:src/../h/riscv.hpp **** {
 124:src/../h/riscv.hpp ****     __asm__ volatile ("csrw sepc, %[sepc]" : : [sepc] "r"(sepc));
 125:src/../h/riscv.hpp **** }
 126:src/../h/riscv.hpp **** 
 127:src/../h/riscv.hpp **** inline uint64 Riscv::r_stvec()
 128:src/../h/riscv.hpp **** {
 129:src/../h/riscv.hpp ****     uint64 volatile stvec;
 130:src/../h/riscv.hpp ****     __asm__ volatile ("csrr %[stvec], stvec" : [stvec] "=r"(stvec));
 131:src/../h/riscv.hpp ****     return stvec;
 132:src/../h/riscv.hpp **** }
 133:src/../h/riscv.hpp **** 
 134:src/../h/riscv.hpp **** inline void Riscv::w_stvec(uint64 stvec)
GAS LISTING /tmp/ccCz2gch.s 			page 4


 135:src/../h/riscv.hpp **** {
 136:src/../h/riscv.hpp ****     __asm__ volatile ("csrw stvec, %[stvec]" : : [stvec] "r"(stvec));
 137:src/../h/riscv.hpp **** }
 138:src/../h/riscv.hpp **** 
 139:src/../h/riscv.hpp **** inline uint64 Riscv::r_stval()
 140:src/../h/riscv.hpp **** {
 141:src/../h/riscv.hpp ****     uint64 volatile stval;
 142:src/../h/riscv.hpp ****     __asm__ volatile ("csrr %[stval], stval" : [stval] "=r"(stval));
 143:src/../h/riscv.hpp ****     return stval;
 144:src/../h/riscv.hpp **** }
 145:src/../h/riscv.hpp **** 
 146:src/../h/riscv.hpp **** inline void Riscv::w_stval(uint64 stval)
 147:src/../h/riscv.hpp **** {
 148:src/../h/riscv.hpp ****     __asm__ volatile ("csrw stval, %[stval]" : : [stval] "r"(stval));
 149:src/../h/riscv.hpp **** }
 150:src/../h/riscv.hpp **** 
 151:src/../h/riscv.hpp **** inline void Riscv::ms_sip(uint64 mask)
 152:src/../h/riscv.hpp **** {
 153:src/../h/riscv.hpp ****     __asm__ volatile ("csrs sip, %[mask]" : : [mask] "r"(mask));
 154:src/../h/riscv.hpp **** }
 155:src/../h/riscv.hpp **** 
 156:src/../h/riscv.hpp **** inline void Riscv::mc_sip(uint64 mask)
 157:src/../h/riscv.hpp **** {
 158:src/../h/riscv.hpp ****     __asm__ volatile ("csrc sip, %[mask]" : : [mask] "r"(mask));
 159:src/../h/riscv.hpp **** }
 160:src/../h/riscv.hpp **** 
 161:src/../h/riscv.hpp **** inline uint64 Riscv::r_sip()
 162:src/../h/riscv.hpp **** {
 163:src/../h/riscv.hpp ****     uint64 volatile sip;
 164:src/../h/riscv.hpp ****     __asm__ volatile ("csrr %[sip], sip" : [sip] "=r"(sip));
 165:src/../h/riscv.hpp ****     return sip;
 166:src/../h/riscv.hpp **** }
 167:src/../h/riscv.hpp **** 
 168:src/../h/riscv.hpp **** inline void Riscv::w_sip(uint64 sip)
 169:src/../h/riscv.hpp **** {
 170:src/../h/riscv.hpp ****     __asm__ volatile ("csrw sip, %[sip]" : : [sip] "r"(sip));
 171:src/../h/riscv.hpp **** }
 172:src/../h/riscv.hpp **** 
 173:src/../h/riscv.hpp **** inline void Riscv::ms_sstatus(uint64 mask)
 174:src/../h/riscv.hpp **** {
 175:src/../h/riscv.hpp ****     __asm__ volatile ("csrs sstatus, %[mask]" : : [mask] "r"(mask));
 176:src/../h/riscv.hpp **** }
 177:src/../h/riscv.hpp **** 
 178:src/../h/riscv.hpp **** inline void Riscv::mc_sstatus(uint64 mask)
 179:src/../h/riscv.hpp **** {
 180:src/../h/riscv.hpp ****     __asm__ volatile ("csrc sstatus, %[mask]" : : [mask] "r"(mask));
 181:src/../h/riscv.hpp **** }
 182:src/../h/riscv.hpp **** 
 183:src/../h/riscv.hpp **** inline uint64 Riscv::r_sstatus()
 184:src/../h/riscv.hpp **** {
 185:src/../h/riscv.hpp ****     uint64 volatile sstatus;
 186:src/../h/riscv.hpp ****     __asm__ volatile ("csrr %[sstatus], sstatus" : [sstatus] "=r"(sstatus));
 187:src/../h/riscv.hpp ****     return sstatus;
 188:src/../h/riscv.hpp **** }
 189:src/../h/riscv.hpp **** 
 190:src/../h/riscv.hpp **** inline void Riscv::w_sstatus(uint64 sstatus)
 191:src/../h/riscv.hpp **** {
GAS LISTING /tmp/ccCz2gch.s 			page 5


 192:src/../h/riscv.hpp ****     __asm__ volatile ("csrw sstatus, %[sstatus]" : : [sstatus] "r"(sstatus));
 193:src/../h/riscv.hpp **** }
 194:src/../h/riscv.hpp **** 
 195:src/../h/riscv.hpp **** //a0
 196:src/../h/riscv.hpp **** inline uint64 Riscv::r_a0()
 197:src/../h/riscv.hpp **** {
 198:src/../h/riscv.hpp ****     uint64 volatile a0;
  32              		.loc 2 198 5
 199:src/../h/riscv.hpp ****     __asm__ volatile ("mv %0, a0" : "=r"(a0));
  33              		.loc 2 199 5
  34              		.loc 2 199 46 is_stmt 0
  35              	#APP
  36              	# 199 "src/../h/riscv.hpp" 1
 200              	    return a0;
  37              		mv a5, a0
  38              	# 0 "" 2
  39              	#NO_APP
  40 0014 2334F4FE 		sd	a5,-24(s0)
  41              		.loc 2 200 5 is_stmt 1
  42              		.loc 2 200 12 is_stmt 0
  43 0018 033584FE 		ld	a0,-24(s0)
  44              	.LVL1:
  45              	.LBE5:
  46              	.LBE4:
   8:src/syscall_c.cpp **** }
  47              		.loc 1 8 1
  48 001c 03348101 		ld	s0,24(sp)
  49              		.cfi_restore 8
  50              		.cfi_def_cfa 2, 32
  51 0020 13010102 		addi	sp,sp,32
  52              		.cfi_def_cfa_offset 0
  53 0024 67800000 		jr	ra
  54              		.cfi_endproc
  55              	.LFE18:
  57              		.align	2
  58              		.globl	_Z9mem_allocm
  60              	_Z9mem_allocm:
  61              	.LFB19:
   9:src/syscall_c.cpp **** 
  10:src/syscall_c.cpp **** //-------------------------memorija
  11:src/syscall_c.cpp **** void *mem_alloc(size_t size) {
  62              		.loc 1 11 30 is_stmt 1
  63              		.cfi_startproc
  64              	.LVL2:
  65 0028 130101FF 		addi	sp,sp,-16
  66              		.cfi_def_cfa_offset 16
  67 002c 23341100 		sd	ra,8(sp)
  68 0030 23308100 		sd	s0,0(sp)
  69              		.cfi_offset 1, -8
  70              		.cfi_offset 8, -16
  71 0034 13040101 		addi	s0,sp,16
  72              		.cfi_def_cfa 8, 0
  12:src/syscall_c.cpp ****     int blocks = (size - 1) / MEM_BLOCK_SIZE + 1;
  73              		.loc 1 12 5
  74              		.loc 1 12 24 is_stmt 0
  75 0038 9305F5FF 		addi	a1,a0,-1
  76              		.loc 1 12 29
GAS LISTING /tmp/ccCz2gch.s 			page 6


  77 003c 93D56500 		srli	a1,a1,6
  78              	.LVL3:
  13:src/syscall_c.cpp ****     return (void *) syscall(MEM_ALLOC, blocks);
  79              		.loc 1 13 5 is_stmt 1
  80              		.loc 1 13 28 is_stmt 0
  81 0040 13070000 		li	a4,0
  82 0044 93060000 		li	a3,0
  83 0048 13060000 		li	a2,0
  84 004c 9B851500 		addiw	a1,a1,1
  85              	.LVL4:
  86 0050 13051000 		li	a0,1
  87              	.LVL5:
  88 0054 97000000 		call	_Z7syscallmmmmm
  88      E7800000 
  89              	.LVL6:
  14:src/syscall_c.cpp **** }
  90              		.loc 1 14 1
  91 005c 83308100 		ld	ra,8(sp)
  92              		.cfi_restore 1
  93 0060 03340100 		ld	s0,0(sp)
  94              		.cfi_restore 8
  95              		.cfi_def_cfa 2, 16
  96 0064 13010101 		addi	sp,sp,16
  97              		.cfi_def_cfa_offset 0
  98 0068 67800000 		jr	ra
  99              		.cfi_endproc
 100              	.LFE19:
 102              		.align	2
 103              		.globl	_Z8mem_freePv
 105              	_Z8mem_freePv:
 106              	.LFB20:
  15:src/syscall_c.cpp **** 
  16:src/syscall_c.cpp **** int mem_free(void *ptr) {
 107              		.loc 1 16 25 is_stmt 1
 108              		.cfi_startproc
 109              	.LVL7:
 110 006c 130101FF 		addi	sp,sp,-16
 111              		.cfi_def_cfa_offset 16
 112 0070 23341100 		sd	ra,8(sp)
 113 0074 23308100 		sd	s0,0(sp)
 114              		.cfi_offset 1, -8
 115              		.cfi_offset 8, -16
 116 0078 13040101 		addi	s0,sp,16
 117              		.cfi_def_cfa 8, 0
 118 007c 93050500 		mv	a1,a0
  17:src/syscall_c.cpp ****     return syscall(MEM_FREE, (uint64) ptr);
 119              		.loc 1 17 5
 120              		.loc 1 17 19 is_stmt 0
 121 0080 13070000 		li	a4,0
 122 0084 93060000 		li	a3,0
 123 0088 13060000 		li	a2,0
 124 008c 13052000 		li	a0,2
 125              	.LVL8:
 126 0090 97000000 		call	_Z7syscallmmmmm
 126      E7800000 
 127              	.LVL9:
  18:src/syscall_c.cpp **** }
GAS LISTING /tmp/ccCz2gch.s 			page 7


 128              		.loc 1 18 1
 129 0098 1B050500 		sext.w	a0,a0
 130 009c 83308100 		ld	ra,8(sp)
 131              		.cfi_restore 1
 132 00a0 03340100 		ld	s0,0(sp)
 133              		.cfi_restore 8
 134              		.cfi_def_cfa 2, 16
 135 00a4 13010101 		addi	sp,sp,16
 136              		.cfi_def_cfa_offset 0
 137 00a8 67800000 		jr	ra
 138              		.cfi_endproc
 139              	.LFE20:
 141              		.align	2
 142              		.globl	_Z13thread_createPP3TCBPFvPvES2_
 144              	_Z13thread_createPP3TCBPFvPvES2_:
 145              	.LFB21:
  19:src/syscall_c.cpp **** 
  20:src/syscall_c.cpp **** //-------------------------niti
  21:src/syscall_c.cpp **** int thread_create(thread_t *handle, void(*start_routine)(void *), void *arg) {
 146              		.loc 1 21 78 is_stmt 1
 147              		.cfi_startproc
 148              	.LVL10:
 149 00ac 130101FD 		addi	sp,sp,-48
 150              		.cfi_def_cfa_offset 48
 151 00b0 23341102 		sd	ra,40(sp)
 152 00b4 23308102 		sd	s0,32(sp)
 153 00b8 233C9100 		sd	s1,24(sp)
 154 00bc 23382101 		sd	s2,16(sp)
 155 00c0 23343101 		sd	s3,8(sp)
 156              		.cfi_offset 1, -8
 157              		.cfi_offset 8, -16
 158              		.cfi_offset 9, -24
 159              		.cfi_offset 18, -32
 160              		.cfi_offset 19, -40
 161 00c4 13040103 		addi	s0,sp,48
 162              		.cfi_def_cfa 8, 0
 163 00c8 13090500 		mv	s2,a0
 164 00cc 93840500 		mv	s1,a1
 165 00d0 93090600 		mv	s3,a2
  22:src/syscall_c.cpp ****     void *space = nullptr;
 166              		.loc 1 22 5
 167              	.LVL11:
  23:src/syscall_c.cpp ****     if (start_routine) {
 168              		.loc 1 23 5
 169 00d4 63860504 		beqz	a1,.L9
  24:src/syscall_c.cpp ****         space = mem_alloc(DEFAULT_STACK_SIZE);
 170              		.loc 1 24 9
 171              		.loc 1 24 26 is_stmt 0
 172 00d8 37150000 		li	a0,4096
 173              	.LVL12:
 174 00dc 97000000 		call	_Z9mem_allocm
 174      E7800000 
 175              	.LVL13:
 176 00e4 13070500 		mv	a4,a0
 177              	.LVL14:
 178              	.L8:
  25:src/syscall_c.cpp ****     }
GAS LISTING /tmp/ccCz2gch.s 			page 8


  26:src/syscall_c.cpp ****     return (int) syscall(THREAD_CREATE, (uint64) handle, (uint64) start_routine, (uint64) arg, (uin
 179              		.loc 1 26 5 is_stmt 1
 180              		.loc 1 26 25 is_stmt 0
 181 00e8 93860900 		mv	a3,s3
 182 00ec 13860400 		mv	a2,s1
 183 00f0 93050900 		mv	a1,s2
 184 00f4 13051001 		li	a0,17
 185 00f8 97000000 		call	_Z7syscallmmmmm
 185      E7800000 
 186              	.LVL15:
  27:src/syscall_c.cpp **** }
 187              		.loc 1 27 1
 188 0100 1B050500 		sext.w	a0,a0
 189 0104 83308102 		ld	ra,40(sp)
 190              		.cfi_remember_state
 191              		.cfi_restore 1
 192 0108 03340102 		ld	s0,32(sp)
 193              		.cfi_restore 8
 194              		.cfi_def_cfa 2, 48
 195 010c 83348101 		ld	s1,24(sp)
 196              		.cfi_restore 9
 197              	.LVL16:
 198 0110 03390101 		ld	s2,16(sp)
 199              		.cfi_restore 18
 200              	.LVL17:
 201 0114 83398100 		ld	s3,8(sp)
 202              		.cfi_restore 19
 203              	.LVL18:
 204 0118 13010103 		addi	sp,sp,48
 205              		.cfi_def_cfa_offset 0
 206 011c 67800000 		jr	ra
 207              	.LVL19:
 208              	.L9:
 209              		.cfi_restore_state
  22:src/syscall_c.cpp ****     if (start_routine) {
 210              		.loc 1 22 11
 211 0120 13070000 		li	a4,0
 212 0124 6FF05FFC 		j	.L8
 213              		.cfi_endproc
 214              	.LFE21:
 216              		.align	2
 217              		.globl	_Z11thread_exitv
 219              	_Z11thread_exitv:
 220              	.LFB22:
  28:src/syscall_c.cpp **** 
  29:src/syscall_c.cpp **** int thread_exit() {
 221              		.loc 1 29 19 is_stmt 1
 222              		.cfi_startproc
 223 0128 130101FF 		addi	sp,sp,-16
 224              		.cfi_def_cfa_offset 16
 225 012c 23341100 		sd	ra,8(sp)
 226 0130 23308100 		sd	s0,0(sp)
 227              		.cfi_offset 1, -8
 228              		.cfi_offset 8, -16
 229 0134 13040101 		addi	s0,sp,16
 230              		.cfi_def_cfa 8, 0
  30:src/syscall_c.cpp ****     return (int) syscall(THREAD_EXIT);
GAS LISTING /tmp/ccCz2gch.s 			page 9


 231              		.loc 1 30 5
 232              		.loc 1 30 25 is_stmt 0
 233 0138 13070000 		li	a4,0
 234 013c 93060000 		li	a3,0
 235 0140 13060000 		li	a2,0
 236 0144 93050000 		li	a1,0
 237 0148 13052001 		li	a0,18
 238 014c 97000000 		call	_Z7syscallmmmmm
 238      E7800000 
 239              	.LVL20:
  31:src/syscall_c.cpp **** }
 240              		.loc 1 31 1
 241 0154 1B050500 		sext.w	a0,a0
 242 0158 83308100 		ld	ra,8(sp)
 243              		.cfi_restore 1
 244 015c 03340100 		ld	s0,0(sp)
 245              		.cfi_restore 8
 246              		.cfi_def_cfa 2, 16
 247 0160 13010101 		addi	sp,sp,16
 248              		.cfi_def_cfa_offset 0
 249 0164 67800000 		jr	ra
 250              		.cfi_endproc
 251              	.LFE22:
 253              		.align	2
 254              		.globl	_Z15thread_dispatchv
 256              	_Z15thread_dispatchv:
 257              	.LFB23:
  32:src/syscall_c.cpp **** 
  33:src/syscall_c.cpp **** 
  34:src/syscall_c.cpp **** void thread_dispatch() {
 258              		.loc 1 34 24 is_stmt 1
 259              		.cfi_startproc
 260 0168 130101FF 		addi	sp,sp,-16
 261              		.cfi_def_cfa_offset 16
 262 016c 23341100 		sd	ra,8(sp)
 263 0170 23308100 		sd	s0,0(sp)
 264              		.cfi_offset 1, -8
 265              		.cfi_offset 8, -16
 266 0174 13040101 		addi	s0,sp,16
 267              		.cfi_def_cfa 8, 0
  35:src/syscall_c.cpp ****     (void) syscall(THREAD_DISPATCH);
 268              		.loc 1 35 5
 269              		.loc 1 35 19 is_stmt 0
 270 0178 13070000 		li	a4,0
 271 017c 93060000 		li	a3,0
 272 0180 13060000 		li	a2,0
 273 0184 93050000 		li	a1,0
 274 0188 13053001 		li	a0,19
 275 018c 97000000 		call	_Z7syscallmmmmm
 275      E7800000 
 276              	.LVL21:
  36:src/syscall_c.cpp **** }
 277              		.loc 1 36 1
 278 0194 83308100 		ld	ra,8(sp)
 279              		.cfi_restore 1
 280 0198 03340100 		ld	s0,0(sp)
 281              		.cfi_restore 8
GAS LISTING /tmp/ccCz2gch.s 			page 10


 282              		.cfi_def_cfa 2, 16
 283 019c 13010101 		addi	sp,sp,16
 284              		.cfi_def_cfa_offset 0
 285 01a0 67800000 		jr	ra
 286              		.cfi_endproc
 287              	.LFE23:
 289              		.align	2
 290              		.globl	_Z11thread_joinP3TCB
 292              	_Z11thread_joinP3TCB:
 293              	.LFB24:
  37:src/syscall_c.cpp **** 
  38:src/syscall_c.cpp **** int thread_join(thread_t id) {
 294              		.loc 1 38 30 is_stmt 1
 295              		.cfi_startproc
 296              	.LVL22:
 297 01a4 130101FF 		addi	sp,sp,-16
 298              		.cfi_def_cfa_offset 16
 299 01a8 23341100 		sd	ra,8(sp)
 300 01ac 23308100 		sd	s0,0(sp)
 301              		.cfi_offset 1, -8
 302              		.cfi_offset 8, -16
 303 01b0 13040101 		addi	s0,sp,16
 304              		.cfi_def_cfa 8, 0
 305 01b4 93050500 		mv	a1,a0
  39:src/syscall_c.cpp ****     return (int) syscall(THREAD_JOIN, (uint64) id);
 306              		.loc 1 39 5
 307              		.loc 1 39 25 is_stmt 0
 308 01b8 13070000 		li	a4,0
 309 01bc 93060000 		li	a3,0
 310 01c0 13060000 		li	a2,0
 311 01c4 13054001 		li	a0,20
 312              	.LVL23:
 313 01c8 97000000 		call	_Z7syscallmmmmm
 313      E7800000 
 314              	.LVL24:
  40:src/syscall_c.cpp **** }
 315              		.loc 1 40 1
 316 01d0 1B050500 		sext.w	a0,a0
 317 01d4 83308100 		ld	ra,8(sp)
 318              		.cfi_restore 1
 319 01d8 03340100 		ld	s0,0(sp)
 320              		.cfi_restore 8
 321              		.cfi_def_cfa 2, 16
 322 01dc 13010101 		addi	sp,sp,16
 323              		.cfi_def_cfa_offset 0
 324 01e0 67800000 		jr	ra
 325              		.cfi_endproc
 326              	.LFE24:
 328              		.align	2
 329              		.globl	_Z13setMaxThreadsi
 331              	_Z13setMaxThreadsi:
 332              	.LFB25:
  41:src/syscall_c.cpp **** 
  42:src/syscall_c.cpp **** void setMaxThreads(int number) {
 333              		.loc 1 42 32 is_stmt 1
 334              		.cfi_startproc
 335              	.LVL25:
GAS LISTING /tmp/ccCz2gch.s 			page 11


 336 01e4 130101FF 		addi	sp,sp,-16
 337              		.cfi_def_cfa_offset 16
 338 01e8 23341100 		sd	ra,8(sp)
 339 01ec 23308100 		sd	s0,0(sp)
 340              		.cfi_offset 1, -8
 341              		.cfi_offset 8, -16
 342 01f0 13040101 		addi	s0,sp,16
 343              		.cfi_def_cfa 8, 0
 344 01f4 93050500 		mv	a1,a0
  43:src/syscall_c.cpp ****     syscall(THREAD_MAX, number);
 345              		.loc 1 43 5
 346              		.loc 1 43 12 is_stmt 0
 347 01f8 13070000 		li	a4,0
 348 01fc 93060000 		li	a3,0
 349 0200 13060000 		li	a2,0
 350 0204 13056001 		li	a0,22
 351              	.LVL26:
 352 0208 97000000 		call	_Z7syscallmmmmm
 352      E7800000 
 353              	.LVL27:
  44:src/syscall_c.cpp **** }
 354              		.loc 1 44 1
 355 0210 83308100 		ld	ra,8(sp)
 356              		.cfi_restore 1
 357 0214 03340100 		ld	s0,0(sp)
 358              		.cfi_restore 8
 359              		.cfi_def_cfa 2, 16
 360 0218 13010101 		addi	sp,sp,16
 361              		.cfi_def_cfa_offset 0
 362 021c 67800000 		jr	ra
 363              		.cfi_endproc
 364              	.LFE25:
 366              		.align	2
 367              		.globl	_Z14thread_waitallv
 369              	_Z14thread_waitallv:
 370              	.LFB26:
  45:src/syscall_c.cpp **** 
  46:src/syscall_c.cpp **** void thread_waitall() {
 371              		.loc 1 46 23 is_stmt 1
 372              		.cfi_startproc
 373 0220 130101FF 		addi	sp,sp,-16
 374              		.cfi_def_cfa_offset 16
 375 0224 23341100 		sd	ra,8(sp)
 376 0228 23308100 		sd	s0,0(sp)
 377              		.cfi_offset 1, -8
 378              		.cfi_offset 8, -16
 379 022c 13040101 		addi	s0,sp,16
 380              		.cfi_def_cfa 8, 0
  47:src/syscall_c.cpp ****     syscall(THREAD_WAITALL);
 381              		.loc 1 47 5
 382              		.loc 1 47 12 is_stmt 0
 383 0230 13070000 		li	a4,0
 384 0234 93060000 		li	a3,0
 385 0238 13060000 		li	a2,0
 386 023c 93050000 		li	a1,0
 387 0240 13055001 		li	a0,21
 388 0244 97000000 		call	_Z7syscallmmmmm
GAS LISTING /tmp/ccCz2gch.s 			page 12


 388      E7800000 
 389              	.LVL28:
  48:src/syscall_c.cpp **** }
 390              		.loc 1 48 1
 391 024c 83308100 		ld	ra,8(sp)
 392              		.cfi_restore 1
 393 0250 03340100 		ld	s0,0(sp)
 394              		.cfi_restore 8
 395              		.cfi_def_cfa 2, 16
 396 0254 13010101 		addi	sp,sp,16
 397              		.cfi_def_cfa_offset 0
 398 0258 67800000 		jr	ra
 399              		.cfi_endproc
 400              	.LFE26:
 402              		.align	2
 403              		.globl	_Z8sem_openPP4_semj
 405              	_Z8sem_openPP4_semj:
 406              	.LFB27:
  49:src/syscall_c.cpp **** 
  50:src/syscall_c.cpp **** //-------------------------semafori
  51:src/syscall_c.cpp **** int sem_open(sem_t *handle, unsigned int init) {
 407              		.loc 1 51 48 is_stmt 1
 408              		.cfi_startproc
 409              	.LVL29:
 410 025c 130101FF 		addi	sp,sp,-16
 411              		.cfi_def_cfa_offset 16
 412 0260 23341100 		sd	ra,8(sp)
 413 0264 23308100 		sd	s0,0(sp)
 414              		.cfi_offset 1, -8
 415              		.cfi_offset 8, -16
 416 0268 13040101 		addi	s0,sp,16
 417              		.cfi_def_cfa 8, 0
  52:src/syscall_c.cpp ****     return (int) syscall(SEM_OPEN, (uint64) handle, init);
 418              		.loc 1 52 5
 419              		.loc 1 52 25 is_stmt 0
 420 026c 13070000 		li	a4,0
 421 0270 93060000 		li	a3,0
 422 0274 13960502 		slli	a2,a1,32
 423 0278 13560602 		srli	a2,a2,32
 424 027c 93050500 		mv	a1,a0
 425              	.LVL30:
 426 0280 13051002 		li	a0,33
 427              	.LVL31:
 428 0284 97000000 		call	_Z7syscallmmmmm
 428      E7800000 
 429              	.LVL32:
  53:src/syscall_c.cpp **** }
 430              		.loc 1 53 1
 431 028c 1B050500 		sext.w	a0,a0
 432 0290 83308100 		ld	ra,8(sp)
 433              		.cfi_restore 1
 434 0294 03340100 		ld	s0,0(sp)
 435              		.cfi_restore 8
 436              		.cfi_def_cfa 2, 16
 437 0298 13010101 		addi	sp,sp,16
 438              		.cfi_def_cfa_offset 0
 439 029c 67800000 		jr	ra
GAS LISTING /tmp/ccCz2gch.s 			page 13


 440              		.cfi_endproc
 441              	.LFE27:
 443              		.align	2
 444              		.globl	_Z9sem_closeP4_sem
 446              	_Z9sem_closeP4_sem:
 447              	.LFB28:
  54:src/syscall_c.cpp **** 
  55:src/syscall_c.cpp **** int sem_close(sem_t handle) {
 448              		.loc 1 55 29 is_stmt 1
 449              		.cfi_startproc
 450              	.LVL33:
 451 02a0 130101FF 		addi	sp,sp,-16
 452              		.cfi_def_cfa_offset 16
 453 02a4 23341100 		sd	ra,8(sp)
 454 02a8 23308100 		sd	s0,0(sp)
 455              		.cfi_offset 1, -8
 456              		.cfi_offset 8, -16
 457 02ac 13040101 		addi	s0,sp,16
 458              		.cfi_def_cfa 8, 0
 459 02b0 93050500 		mv	a1,a0
  56:src/syscall_c.cpp ****     return (int) syscall(SEM_OPEN, (uint64) handle);
 460              		.loc 1 56 5
 461              		.loc 1 56 25 is_stmt 0
 462 02b4 13070000 		li	a4,0
 463 02b8 93060000 		li	a3,0
 464 02bc 13060000 		li	a2,0
 465 02c0 13051002 		li	a0,33
 466              	.LVL34:
 467 02c4 97000000 		call	_Z7syscallmmmmm
 467      E7800000 
 468              	.LVL35:
  57:src/syscall_c.cpp **** }
 469              		.loc 1 57 1
 470 02cc 1B050500 		sext.w	a0,a0
 471 02d0 83308100 		ld	ra,8(sp)
 472              		.cfi_restore 1
 473 02d4 03340100 		ld	s0,0(sp)
 474              		.cfi_restore 8
 475              		.cfi_def_cfa 2, 16
 476 02d8 13010101 		addi	sp,sp,16
 477              		.cfi_def_cfa_offset 0
 478 02dc 67800000 		jr	ra
 479              		.cfi_endproc
 480              	.LFE28:
 482              		.align	2
 483              		.globl	_Z8sem_waitP4_sem
 485              	_Z8sem_waitP4_sem:
 486              	.LFB29:
  58:src/syscall_c.cpp **** 
  59:src/syscall_c.cpp **** int sem_wait(sem_t id) {
 487              		.loc 1 59 24 is_stmt 1
 488              		.cfi_startproc
 489              	.LVL36:
 490 02e0 130101FF 		addi	sp,sp,-16
 491              		.cfi_def_cfa_offset 16
 492 02e4 23341100 		sd	ra,8(sp)
 493 02e8 23308100 		sd	s0,0(sp)
GAS LISTING /tmp/ccCz2gch.s 			page 14


 494              		.cfi_offset 1, -8
 495              		.cfi_offset 8, -16
 496 02ec 13040101 		addi	s0,sp,16
 497              		.cfi_def_cfa 8, 0
 498 02f0 93050500 		mv	a1,a0
  60:src/syscall_c.cpp ****     return (int) syscall(SEM_WAIT, (uint64) id);
 499              		.loc 1 60 5
 500              		.loc 1 60 25 is_stmt 0
 501 02f4 13070000 		li	a4,0
 502 02f8 93060000 		li	a3,0
 503 02fc 13060000 		li	a2,0
 504 0300 13053002 		li	a0,35
 505              	.LVL37:
 506 0304 97000000 		call	_Z7syscallmmmmm
 506      E7800000 
 507              	.LVL38:
  61:src/syscall_c.cpp **** }
 508              		.loc 1 61 1
 509 030c 1B050500 		sext.w	a0,a0
 510 0310 83308100 		ld	ra,8(sp)
 511              		.cfi_restore 1
 512 0314 03340100 		ld	s0,0(sp)
 513              		.cfi_restore 8
 514              		.cfi_def_cfa 2, 16
 515 0318 13010101 		addi	sp,sp,16
 516              		.cfi_def_cfa_offset 0
 517 031c 67800000 		jr	ra
 518              		.cfi_endproc
 519              	.LFE29:
 521              		.align	2
 522              		.globl	_Z10sem_signalP4_sem
 524              	_Z10sem_signalP4_sem:
 525              	.LFB30:
  62:src/syscall_c.cpp **** 
  63:src/syscall_c.cpp **** int sem_signal(sem_t id) {
 526              		.loc 1 63 26 is_stmt 1
 527              		.cfi_startproc
 528              	.LVL39:
 529 0320 130101FF 		addi	sp,sp,-16
 530              		.cfi_def_cfa_offset 16
 531 0324 23341100 		sd	ra,8(sp)
 532 0328 23308100 		sd	s0,0(sp)
 533              		.cfi_offset 1, -8
 534              		.cfi_offset 8, -16
 535 032c 13040101 		addi	s0,sp,16
 536              		.cfi_def_cfa 8, 0
 537 0330 93050500 		mv	a1,a0
  64:src/syscall_c.cpp ****     return (int) syscall(SEM_SIGNAL, (uint64) id);
 538              		.loc 1 64 5
 539              		.loc 1 64 25 is_stmt 0
 540 0334 13070000 		li	a4,0
 541 0338 93060000 		li	a3,0
 542 033c 13060000 		li	a2,0
 543 0340 13054002 		li	a0,36
 544              	.LVL40:
 545 0344 97000000 		call	_Z7syscallmmmmm
 545      E7800000 
GAS LISTING /tmp/ccCz2gch.s 			page 15


 546              	.LVL41:
  65:src/syscall_c.cpp **** }
 547              		.loc 1 65 1
 548 034c 1B050500 		sext.w	a0,a0
 549 0350 83308100 		ld	ra,8(sp)
 550              		.cfi_restore 1
 551 0354 03340100 		ld	s0,0(sp)
 552              		.cfi_restore 8
 553              		.cfi_def_cfa 2, 16
 554 0358 13010101 		addi	sp,sp,16
 555              		.cfi_def_cfa_offset 0
 556 035c 67800000 		jr	ra
 557              		.cfi_endproc
 558              	.LFE30:
 560              		.align	2
 561              		.globl	_Z11sem_trywaitP4_sem
 563              	_Z11sem_trywaitP4_sem:
 564              	.LFB31:
  66:src/syscall_c.cpp **** 
  67:src/syscall_c.cpp **** int sem_trywait(sem_t id) {
 565              		.loc 1 67 27 is_stmt 1
 566              		.cfi_startproc
 567              	.LVL42:
 568 0360 130101FF 		addi	sp,sp,-16
 569              		.cfi_def_cfa_offset 16
 570 0364 23341100 		sd	ra,8(sp)
 571 0368 23308100 		sd	s0,0(sp)
 572              		.cfi_offset 1, -8
 573              		.cfi_offset 8, -16
 574 036c 13040101 		addi	s0,sp,16
 575              		.cfi_def_cfa 8, 0
 576 0370 93050500 		mv	a1,a0
  68:src/syscall_c.cpp ****     return (int) syscall(SEM_TRYWAIT, (uint64) id);
 577              		.loc 1 68 5
 578              		.loc 1 68 25 is_stmt 0
 579 0374 13070000 		li	a4,0
 580 0378 93060000 		li	a3,0
 581 037c 13060000 		li	a2,0
 582 0380 13056002 		li	a0,38
 583              	.LVL43:
 584 0384 97000000 		call	_Z7syscallmmmmm
 584      E7800000 
 585              	.LVL44:
  69:src/syscall_c.cpp **** }
 586              		.loc 1 69 1
 587 038c 1B050500 		sext.w	a0,a0
 588 0390 83308100 		ld	ra,8(sp)
 589              		.cfi_restore 1
 590 0394 03340100 		ld	s0,0(sp)
 591              		.cfi_restore 8
 592              		.cfi_def_cfa 2, 16
 593 0398 13010101 		addi	sp,sp,16
 594              		.cfi_def_cfa_offset 0
 595 039c 67800000 		jr	ra
 596              		.cfi_endproc
 597              	.LFE31:
 599              		.align	2
GAS LISTING /tmp/ccCz2gch.s 			page 16


 600              		.globl	_Z4getcv
 602              	_Z4getcv:
 603              	.LFB32:
  70:src/syscall_c.cpp **** 
  71:src/syscall_c.cpp **** //-------------------------------------
  72:src/syscall_c.cpp **** char getc() {
 604              		.loc 1 72 13 is_stmt 1
 605              		.cfi_startproc
 606 03a0 130101FF 		addi	sp,sp,-16
 607              		.cfi_def_cfa_offset 16
 608 03a4 23341100 		sd	ra,8(sp)
 609 03a8 23308100 		sd	s0,0(sp)
 610              		.cfi_offset 1, -8
 611              		.cfi_offset 8, -16
 612 03ac 13040101 		addi	s0,sp,16
 613              		.cfi_def_cfa 8, 0
  73:src/syscall_c.cpp ****     return syscall(GETC);
 614              		.loc 1 73 5
 615              		.loc 1 73 19 is_stmt 0
 616 03b0 13070000 		li	a4,0
 617 03b4 93060000 		li	a3,0
 618 03b8 13060000 		li	a2,0
 619 03bc 93050000 		li	a1,0
 620 03c0 13051004 		li	a0,65
 621 03c4 97000000 		call	_Z7syscallmmmmm
 621      E7800000 
 622              	.LVL45:
  74:src/syscall_c.cpp **** }
 623              		.loc 1 74 1
 624 03cc 1375F50F 		andi	a0,a0,0xff
 625 03d0 83308100 		ld	ra,8(sp)
 626              		.cfi_restore 1
 627 03d4 03340100 		ld	s0,0(sp)
 628              		.cfi_restore 8
 629              		.cfi_def_cfa 2, 16
 630 03d8 13010101 		addi	sp,sp,16
 631              		.cfi_def_cfa_offset 0
 632 03dc 67800000 		jr	ra
 633              		.cfi_endproc
 634              	.LFE32:
 636              		.align	2
 637              		.globl	_Z4putcc
 639              	_Z4putcc:
 640              	.LFB33:
  75:src/syscall_c.cpp **** 
  76:src/syscall_c.cpp **** void putc(char c) {
 641              		.loc 1 76 19 is_stmt 1
 642              		.cfi_startproc
 643              	.LVL46:
 644 03e0 130101FF 		addi	sp,sp,-16
 645              		.cfi_def_cfa_offset 16
 646 03e4 23341100 		sd	ra,8(sp)
 647 03e8 23308100 		sd	s0,0(sp)
 648              		.cfi_offset 1, -8
 649              		.cfi_offset 8, -16
 650 03ec 13040101 		addi	s0,sp,16
 651              		.cfi_def_cfa 8, 0
GAS LISTING /tmp/ccCz2gch.s 			page 17


 652 03f0 93050500 		mv	a1,a0
  77:src/syscall_c.cpp ****     syscall(PUTC, c);
 653              		.loc 1 77 5
 654              		.loc 1 77 12 is_stmt 0
 655 03f4 13070000 		li	a4,0
 656 03f8 93060000 		li	a3,0
 657 03fc 13060000 		li	a2,0
 658 0400 13052004 		li	a0,66
 659              	.LVL47:
 660 0404 97000000 		call	_Z7syscallmmmmm
 660      E7800000 
 661              	.LVL48:
  78:src/syscall_c.cpp **** }
 662              		.loc 1 78 1
 663 040c 83308100 		ld	ra,8(sp)
 664              		.cfi_restore 1
 665 0410 03340100 		ld	s0,0(sp)
 666              		.cfi_restore 8
 667              		.cfi_def_cfa 2, 16
 668 0414 13010101 		addi	sp,sp,16
 669              		.cfi_def_cfa_offset 0
 670 0418 67800000 		jr	ra
 671              		.cfi_endproc
 672              	.LFE33:
 674              		.align	2
 675              		.globl	_Z13sem_timedwaitP4_semm
 677              	_Z13sem_timedwaitP4_semm:
 678              	.LFB34:
  79:src/syscall_c.cpp **** 
  80:src/syscall_c.cpp **** 
  81:src/syscall_c.cpp **** int sem_timedwait(sem_t, time_t) {
 679              		.loc 1 81 34 is_stmt 1
 680              		.cfi_startproc
 681 041c 130101FF 		addi	sp,sp,-16
 682              		.cfi_def_cfa_offset 16
 683 0420 23348100 		sd	s0,8(sp)
 684              		.cfi_offset 8, -8
 685 0424 13040101 		addi	s0,sp,16
 686              		.cfi_def_cfa 8, 0
  82:src/syscall_c.cpp ****     return 0;
 687              		.loc 1 82 5
  83:src/syscall_c.cpp **** }
 688              		.loc 1 83 1 is_stmt 0
 689 0428 13050000 		li	a0,0
 690 042c 03348100 		ld	s0,8(sp)
 691              		.cfi_restore 8
 692              		.cfi_def_cfa 2, 16
 693 0430 13010101 		addi	sp,sp,16
 694              		.cfi_def_cfa_offset 0
 695 0434 67800000 		jr	ra
 696              		.cfi_endproc
 697              	.LFE34:
 699              		.align	2
 700              		.globl	_Z10time_sleepm
 702              	_Z10time_sleepm:
 703              	.LFB35:
  84:src/syscall_c.cpp **** 
GAS LISTING /tmp/ccCz2gch.s 			page 18


  85:src/syscall_c.cpp **** int time_sleep(time_t) {
 704              		.loc 1 85 24 is_stmt 1
 705              		.cfi_startproc
 706 0438 130101FF 		addi	sp,sp,-16
 707              		.cfi_def_cfa_offset 16
 708 043c 23348100 		sd	s0,8(sp)
 709              		.cfi_offset 8, -8
 710 0440 13040101 		addi	s0,sp,16
 711              		.cfi_def_cfa 8, 0
  86:src/syscall_c.cpp ****     return 0;
 712              		.loc 1 86 5
  87:src/syscall_c.cpp **** }...
 713              		.loc 1 87 1 is_stmt 0
 714 0444 13050000 		li	a0,0
 715 0448 03348100 		ld	s0,8(sp)
 716              		.cfi_restore 8
 717              		.cfi_def_cfa 2, 16
 718 044c 13010101 		addi	sp,sp,16
 719              		.cfi_def_cfa_offset 0
 720 0450 67800000 		jr	ra
 721              		.cfi_endproc
 722              	.LFE35:
 724              	.Letext0:
 725              		.file 3 "src/../h/../lib/hw.h"
 726              		.file 4 "src/../h/syscall_c.hpp"
GAS LISTING /tmp/ccCz2gch.s 			page 19


DEFINED SYMBOLS
                            *ABS*:0000000000000000 syscall_c.cpp
     /tmp/ccCz2gch.s:9      .text:0000000000000000 _Z7syscallmmmmm
     /tmp/ccCz2gch.s:13     .text:0000000000000000 .L0 
     /tmp/ccCz2gch.s:15     .text:0000000000000000 .L0 
     /tmp/ccCz2gch.s:16     .text:0000000000000004 .L0 
     /tmp/ccCz2gch.s:18     .text:0000000000000008 .L0 
     /tmp/ccCz2gch.s:20     .text:000000000000000c .L0 
     /tmp/ccCz2gch.s:22     .text:000000000000000c .L0 
   src/syscall_c.cpp:6      .text:000000000000000c .L0 
     /tmp/ccCz2gch.s:32     .text:0000000000000010 .L0 
     /tmp/ccCz2gch.s:33     .text:0000000000000010 .L0 
     /tmp/ccCz2gch.s:34     .text:0000000000000010 .L0 
  src/../h/riscv.hpp:199    .text:0000000000000010 .L0 
     /tmp/ccCz2gch.s:42     .text:0000000000000018 .L0 
     /tmp/ccCz2gch.s:43     .text:0000000000000018 .L0 
     /tmp/ccCz2gch.s:48     .text:000000000000001c .L0 
     /tmp/ccCz2gch.s:49     .text:0000000000000020 .L0 
     /tmp/ccCz2gch.s:50     .text:0000000000000020 .L0 
     /tmp/ccCz2gch.s:52     .text:0000000000000024 .L0 
     /tmp/ccCz2gch.s:54     .text:0000000000000028 .L0 
     /tmp/ccCz2gch.s:60     .text:0000000000000028 _Z9mem_allocm
     /tmp/ccCz2gch.s:63     .text:0000000000000028 .L0 
     /tmp/ccCz2gch.s:65     .text:0000000000000028 .L0 
     /tmp/ccCz2gch.s:66     .text:000000000000002c .L0 
     /tmp/ccCz2gch.s:69     .text:0000000000000034 .L0 
     /tmp/ccCz2gch.s:70     .text:0000000000000034 .L0 
     /tmp/ccCz2gch.s:72     .text:0000000000000038 .L0 
     /tmp/ccCz2gch.s:74     .text:0000000000000038 .L0 
     /tmp/ccCz2gch.s:75     .text:0000000000000038 .L0 
     /tmp/ccCz2gch.s:77     .text:000000000000003c .L0 
     /tmp/ccCz2gch.s:80     .text:0000000000000040 .L0 
     /tmp/ccCz2gch.s:81     .text:0000000000000040 .L0 
     /tmp/ccCz2gch.s:91     .text:000000000000005c .L0 
     /tmp/ccCz2gch.s:92     .text:0000000000000060 .L0 
     /tmp/ccCz2gch.s:94     .text:0000000000000064 .L0 
     /tmp/ccCz2gch.s:95     .text:0000000000000064 .L0 
     /tmp/ccCz2gch.s:97     .text:0000000000000068 .L0 
     /tmp/ccCz2gch.s:99     .text:000000000000006c .L0 
     /tmp/ccCz2gch.s:105    .text:000000000000006c _Z8mem_freePv
     /tmp/ccCz2gch.s:108    .text:000000000000006c .L0 
     /tmp/ccCz2gch.s:110    .text:000000000000006c .L0 
     /tmp/ccCz2gch.s:111    .text:0000000000000070 .L0 
     /tmp/ccCz2gch.s:114    .text:0000000000000078 .L0 
     /tmp/ccCz2gch.s:115    .text:0000000000000078 .L0 
     /tmp/ccCz2gch.s:117    .text:000000000000007c .L0 
     /tmp/ccCz2gch.s:120    .text:0000000000000080 .L0 
     /tmp/ccCz2gch.s:121    .text:0000000000000080 .L0 
     /tmp/ccCz2gch.s:129    .text:0000000000000098 .L0 
     /tmp/ccCz2gch.s:131    .text:00000000000000a0 .L0 
     /tmp/ccCz2gch.s:133    .text:00000000000000a4 .L0 
     /tmp/ccCz2gch.s:134    .text:00000000000000a4 .L0 
     /tmp/ccCz2gch.s:136    .text:00000000000000a8 .L0 
     /tmp/ccCz2gch.s:138    .text:00000000000000ac .L0 
     /tmp/ccCz2gch.s:144    .text:00000000000000ac _Z13thread_createPP3TCBPFvPvES2_
     /tmp/ccCz2gch.s:147    .text:00000000000000ac .L0 
     /tmp/ccCz2gch.s:149    .text:00000000000000ac .L0 
GAS LISTING /tmp/ccCz2gch.s 			page 20


     /tmp/ccCz2gch.s:150    .text:00000000000000b0 .L0 
     /tmp/ccCz2gch.s:156    .text:00000000000000c4 .L0 
     /tmp/ccCz2gch.s:157    .text:00000000000000c4 .L0 
     /tmp/ccCz2gch.s:158    .text:00000000000000c4 .L0 
     /tmp/ccCz2gch.s:159    .text:00000000000000c4 .L0 
     /tmp/ccCz2gch.s:160    .text:00000000000000c4 .L0 
     /tmp/ccCz2gch.s:162    .text:00000000000000c8 .L0 
     /tmp/ccCz2gch.s:168    .text:00000000000000d4 .L0 
     /tmp/ccCz2gch.s:169    .text:00000000000000d4 .L0 
     /tmp/ccCz2gch.s:171    .text:00000000000000d8 .L0 
     /tmp/ccCz2gch.s:172    .text:00000000000000d8 .L0 
     /tmp/ccCz2gch.s:180    .text:00000000000000e8 .L0 
     /tmp/ccCz2gch.s:181    .text:00000000000000e8 .L0 
     /tmp/ccCz2gch.s:188    .text:0000000000000100 .L0 
     /tmp/ccCz2gch.s:190    .text:0000000000000108 .L0 
     /tmp/ccCz2gch.s:191    .text:0000000000000108 .L0 
     /tmp/ccCz2gch.s:193    .text:000000000000010c .L0 
     /tmp/ccCz2gch.s:194    .text:000000000000010c .L0 
     /tmp/ccCz2gch.s:196    .text:0000000000000110 .L0 
     /tmp/ccCz2gch.s:199    .text:0000000000000114 .L0 
     /tmp/ccCz2gch.s:202    .text:0000000000000118 .L0 
     /tmp/ccCz2gch.s:205    .text:000000000000011c .L0 
     /tmp/ccCz2gch.s:209    .text:0000000000000120 .L0 
     /tmp/ccCz2gch.s:211    .text:0000000000000120 .L0 
     /tmp/ccCz2gch.s:213    .text:0000000000000128 .L0 
     /tmp/ccCz2gch.s:219    .text:0000000000000128 _Z11thread_exitv
     /tmp/ccCz2gch.s:222    .text:0000000000000128 .L0 
     /tmp/ccCz2gch.s:223    .text:0000000000000128 .L0 
     /tmp/ccCz2gch.s:224    .text:000000000000012c .L0 
     /tmp/ccCz2gch.s:227    .text:0000000000000134 .L0 
     /tmp/ccCz2gch.s:228    .text:0000000000000134 .L0 
     /tmp/ccCz2gch.s:230    .text:0000000000000138 .L0 
     /tmp/ccCz2gch.s:232    .text:0000000000000138 .L0 
     /tmp/ccCz2gch.s:233    .text:0000000000000138 .L0 
     /tmp/ccCz2gch.s:241    .text:0000000000000154 .L0 
     /tmp/ccCz2gch.s:243    .text:000000000000015c .L0 
     /tmp/ccCz2gch.s:245    .text:0000000000000160 .L0 
     /tmp/ccCz2gch.s:246    .text:0000000000000160 .L0 
     /tmp/ccCz2gch.s:248    .text:0000000000000164 .L0 
     /tmp/ccCz2gch.s:250    .text:0000000000000168 .L0 
     /tmp/ccCz2gch.s:256    .text:0000000000000168 _Z15thread_dispatchv
     /tmp/ccCz2gch.s:259    .text:0000000000000168 .L0 
     /tmp/ccCz2gch.s:260    .text:0000000000000168 .L0 
     /tmp/ccCz2gch.s:261    .text:000000000000016c .L0 
     /tmp/ccCz2gch.s:264    .text:0000000000000174 .L0 
     /tmp/ccCz2gch.s:265    .text:0000000000000174 .L0 
     /tmp/ccCz2gch.s:267    .text:0000000000000178 .L0 
     /tmp/ccCz2gch.s:269    .text:0000000000000178 .L0 
     /tmp/ccCz2gch.s:270    .text:0000000000000178 .L0 
     /tmp/ccCz2gch.s:278    .text:0000000000000194 .L0 
     /tmp/ccCz2gch.s:279    .text:0000000000000198 .L0 
     /tmp/ccCz2gch.s:281    .text:000000000000019c .L0 
     /tmp/ccCz2gch.s:282    .text:000000000000019c .L0 
     /tmp/ccCz2gch.s:284    .text:00000000000001a0 .L0 
     /tmp/ccCz2gch.s:286    .text:00000000000001a4 .L0 
     /tmp/ccCz2gch.s:292    .text:00000000000001a4 _Z11thread_joinP3TCB
     /tmp/ccCz2gch.s:295    .text:00000000000001a4 .L0 
GAS LISTING /tmp/ccCz2gch.s 			page 21


     /tmp/ccCz2gch.s:297    .text:00000000000001a4 .L0 
     /tmp/ccCz2gch.s:298    .text:00000000000001a8 .L0 
     /tmp/ccCz2gch.s:301    .text:00000000000001b0 .L0 
     /tmp/ccCz2gch.s:302    .text:00000000000001b0 .L0 
     /tmp/ccCz2gch.s:304    .text:00000000000001b4 .L0 
     /tmp/ccCz2gch.s:307    .text:00000000000001b8 .L0 
     /tmp/ccCz2gch.s:308    .text:00000000000001b8 .L0 
     /tmp/ccCz2gch.s:316    .text:00000000000001d0 .L0 
     /tmp/ccCz2gch.s:318    .text:00000000000001d8 .L0 
     /tmp/ccCz2gch.s:320    .text:00000000000001dc .L0 
     /tmp/ccCz2gch.s:321    .text:00000000000001dc .L0 
     /tmp/ccCz2gch.s:323    .text:00000000000001e0 .L0 
     /tmp/ccCz2gch.s:325    .text:00000000000001e4 .L0 
     /tmp/ccCz2gch.s:331    .text:00000000000001e4 _Z13setMaxThreadsi
     /tmp/ccCz2gch.s:334    .text:00000000000001e4 .L0 
     /tmp/ccCz2gch.s:336    .text:00000000000001e4 .L0 
     /tmp/ccCz2gch.s:337    .text:00000000000001e8 .L0 
     /tmp/ccCz2gch.s:340    .text:00000000000001f0 .L0 
     /tmp/ccCz2gch.s:341    .text:00000000000001f0 .L0 
     /tmp/ccCz2gch.s:343    .text:00000000000001f4 .L0 
     /tmp/ccCz2gch.s:346    .text:00000000000001f8 .L0 
     /tmp/ccCz2gch.s:347    .text:00000000000001f8 .L0 
     /tmp/ccCz2gch.s:355    .text:0000000000000210 .L0 
     /tmp/ccCz2gch.s:356    .text:0000000000000214 .L0 
     /tmp/ccCz2gch.s:358    .text:0000000000000218 .L0 
     /tmp/ccCz2gch.s:359    .text:0000000000000218 .L0 
     /tmp/ccCz2gch.s:361    .text:000000000000021c .L0 
     /tmp/ccCz2gch.s:363    .text:0000000000000220 .L0 
     /tmp/ccCz2gch.s:369    .text:0000000000000220 _Z14thread_waitallv
     /tmp/ccCz2gch.s:372    .text:0000000000000220 .L0 
     /tmp/ccCz2gch.s:373    .text:0000000000000220 .L0 
     /tmp/ccCz2gch.s:374    .text:0000000000000224 .L0 
     /tmp/ccCz2gch.s:377    .text:000000000000022c .L0 
     /tmp/ccCz2gch.s:378    .text:000000000000022c .L0 
     /tmp/ccCz2gch.s:380    .text:0000000000000230 .L0 
     /tmp/ccCz2gch.s:382    .text:0000000000000230 .L0 
     /tmp/ccCz2gch.s:383    .text:0000000000000230 .L0 
     /tmp/ccCz2gch.s:391    .text:000000000000024c .L0 
     /tmp/ccCz2gch.s:392    .text:0000000000000250 .L0 
     /tmp/ccCz2gch.s:394    .text:0000000000000254 .L0 
     /tmp/ccCz2gch.s:395    .text:0000000000000254 .L0 
     /tmp/ccCz2gch.s:397    .text:0000000000000258 .L0 
     /tmp/ccCz2gch.s:399    .text:000000000000025c .L0 
     /tmp/ccCz2gch.s:405    .text:000000000000025c _Z8sem_openPP4_semj
     /tmp/ccCz2gch.s:408    .text:000000000000025c .L0 
     /tmp/ccCz2gch.s:410    .text:000000000000025c .L0 
     /tmp/ccCz2gch.s:411    .text:0000000000000260 .L0 
     /tmp/ccCz2gch.s:414    .text:0000000000000268 .L0 
     /tmp/ccCz2gch.s:415    .text:0000000000000268 .L0 
     /tmp/ccCz2gch.s:417    .text:000000000000026c .L0 
     /tmp/ccCz2gch.s:419    .text:000000000000026c .L0 
     /tmp/ccCz2gch.s:420    .text:000000000000026c .L0 
     /tmp/ccCz2gch.s:431    .text:000000000000028c .L0 
     /tmp/ccCz2gch.s:433    .text:0000000000000294 .L0 
     /tmp/ccCz2gch.s:435    .text:0000000000000298 .L0 
     /tmp/ccCz2gch.s:436    .text:0000000000000298 .L0 
     /tmp/ccCz2gch.s:438    .text:000000000000029c .L0 
GAS LISTING /tmp/ccCz2gch.s 			page 22


     /tmp/ccCz2gch.s:440    .text:00000000000002a0 .L0 
     /tmp/ccCz2gch.s:446    .text:00000000000002a0 _Z9sem_closeP4_sem
     /tmp/ccCz2gch.s:449    .text:00000000000002a0 .L0 
     /tmp/ccCz2gch.s:451    .text:00000000000002a0 .L0 
     /tmp/ccCz2gch.s:452    .text:00000000000002a4 .L0 
     /tmp/ccCz2gch.s:455    .text:00000000000002ac .L0 
     /tmp/ccCz2gch.s:456    .text:00000000000002ac .L0 
     /tmp/ccCz2gch.s:458    .text:00000000000002b0 .L0 
     /tmp/ccCz2gch.s:461    .text:00000000000002b4 .L0 
     /tmp/ccCz2gch.s:462    .text:00000000000002b4 .L0 
     /tmp/ccCz2gch.s:470    .text:00000000000002cc .L0 
     /tmp/ccCz2gch.s:472    .text:00000000000002d4 .L0 
     /tmp/ccCz2gch.s:474    .text:00000000000002d8 .L0 
     /tmp/ccCz2gch.s:475    .text:00000000000002d8 .L0 
     /tmp/ccCz2gch.s:477    .text:00000000000002dc .L0 
     /tmp/ccCz2gch.s:479    .text:00000000000002e0 .L0 
     /tmp/ccCz2gch.s:485    .text:00000000000002e0 _Z8sem_waitP4_sem
     /tmp/ccCz2gch.s:488    .text:00000000000002e0 .L0 
     /tmp/ccCz2gch.s:490    .text:00000000000002e0 .L0 
     /tmp/ccCz2gch.s:491    .text:00000000000002e4 .L0 
     /tmp/ccCz2gch.s:494    .text:00000000000002ec .L0 
     /tmp/ccCz2gch.s:495    .text:00000000000002ec .L0 
     /tmp/ccCz2gch.s:497    .text:00000000000002f0 .L0 
     /tmp/ccCz2gch.s:500    .text:00000000000002f4 .L0 
     /tmp/ccCz2gch.s:501    .text:00000000000002f4 .L0 
     /tmp/ccCz2gch.s:509    .text:000000000000030c .L0 
     /tmp/ccCz2gch.s:511    .text:0000000000000314 .L0 
     /tmp/ccCz2gch.s:513    .text:0000000000000318 .L0 
     /tmp/ccCz2gch.s:514    .text:0000000000000318 .L0 
     /tmp/ccCz2gch.s:516    .text:000000000000031c .L0 
     /tmp/ccCz2gch.s:518    .text:0000000000000320 .L0 
     /tmp/ccCz2gch.s:524    .text:0000000000000320 _Z10sem_signalP4_sem
     /tmp/ccCz2gch.s:527    .text:0000000000000320 .L0 
     /tmp/ccCz2gch.s:529    .text:0000000000000320 .L0 
     /tmp/ccCz2gch.s:530    .text:0000000000000324 .L0 
     /tmp/ccCz2gch.s:533    .text:000000000000032c .L0 
     /tmp/ccCz2gch.s:534    .text:000000000000032c .L0 
     /tmp/ccCz2gch.s:536    .text:0000000000000330 .L0 
     /tmp/ccCz2gch.s:539    .text:0000000000000334 .L0 
     /tmp/ccCz2gch.s:540    .text:0000000000000334 .L0 
     /tmp/ccCz2gch.s:548    .text:000000000000034c .L0 
     /tmp/ccCz2gch.s:550    .text:0000000000000354 .L0 
     /tmp/ccCz2gch.s:552    .text:0000000000000358 .L0 
     /tmp/ccCz2gch.s:553    .text:0000000000000358 .L0 
     /tmp/ccCz2gch.s:555    .text:000000000000035c .L0 
     /tmp/ccCz2gch.s:557    .text:0000000000000360 .L0 
     /tmp/ccCz2gch.s:563    .text:0000000000000360 _Z11sem_trywaitP4_sem
     /tmp/ccCz2gch.s:566    .text:0000000000000360 .L0 
     /tmp/ccCz2gch.s:568    .text:0000000000000360 .L0 
     /tmp/ccCz2gch.s:569    .text:0000000000000364 .L0 
     /tmp/ccCz2gch.s:572    .text:000000000000036c .L0 
     /tmp/ccCz2gch.s:573    .text:000000000000036c .L0 
     /tmp/ccCz2gch.s:575    .text:0000000000000370 .L0 
     /tmp/ccCz2gch.s:578    .text:0000000000000374 .L0 
     /tmp/ccCz2gch.s:579    .text:0000000000000374 .L0 
     /tmp/ccCz2gch.s:587    .text:000000000000038c .L0 
     /tmp/ccCz2gch.s:589    .text:0000000000000394 .L0 
GAS LISTING /tmp/ccCz2gch.s 			page 23


     /tmp/ccCz2gch.s:591    .text:0000000000000398 .L0 
     /tmp/ccCz2gch.s:592    .text:0000000000000398 .L0 
     /tmp/ccCz2gch.s:594    .text:000000000000039c .L0 
     /tmp/ccCz2gch.s:596    .text:00000000000003a0 .L0 
     /tmp/ccCz2gch.s:602    .text:00000000000003a0 _Z4getcv
     /tmp/ccCz2gch.s:605    .text:00000000000003a0 .L0 
     /tmp/ccCz2gch.s:606    .text:00000000000003a0 .L0 
     /tmp/ccCz2gch.s:607    .text:00000000000003a4 .L0 
     /tmp/ccCz2gch.s:610    .text:00000000000003ac .L0 
     /tmp/ccCz2gch.s:611    .text:00000000000003ac .L0 
     /tmp/ccCz2gch.s:613    .text:00000000000003b0 .L0 
     /tmp/ccCz2gch.s:615    .text:00000000000003b0 .L0 
     /tmp/ccCz2gch.s:616    .text:00000000000003b0 .L0 
     /tmp/ccCz2gch.s:624    .text:00000000000003cc .L0 
     /tmp/ccCz2gch.s:626    .text:00000000000003d4 .L0 
     /tmp/ccCz2gch.s:628    .text:00000000000003d8 .L0 
     /tmp/ccCz2gch.s:629    .text:00000000000003d8 .L0 
     /tmp/ccCz2gch.s:631    .text:00000000000003dc .L0 
     /tmp/ccCz2gch.s:633    .text:00000000000003e0 .L0 
     /tmp/ccCz2gch.s:639    .text:00000000000003e0 _Z4putcc
     /tmp/ccCz2gch.s:642    .text:00000000000003e0 .L0 
     /tmp/ccCz2gch.s:644    .text:00000000000003e0 .L0 
     /tmp/ccCz2gch.s:645    .text:00000000000003e4 .L0 
     /tmp/ccCz2gch.s:648    .text:00000000000003ec .L0 
     /tmp/ccCz2gch.s:649    .text:00000000000003ec .L0 
     /tmp/ccCz2gch.s:651    .text:00000000000003f0 .L0 
     /tmp/ccCz2gch.s:654    .text:00000000000003f4 .L0 
     /tmp/ccCz2gch.s:655    .text:00000000000003f4 .L0 
     /tmp/ccCz2gch.s:663    .text:000000000000040c .L0 
     /tmp/ccCz2gch.s:664    .text:0000000000000410 .L0 
     /tmp/ccCz2gch.s:666    .text:0000000000000414 .L0 
     /tmp/ccCz2gch.s:667    .text:0000000000000414 .L0 
     /tmp/ccCz2gch.s:669    .text:0000000000000418 .L0 
     /tmp/ccCz2gch.s:671    .text:000000000000041c .L0 
     /tmp/ccCz2gch.s:677    .text:000000000000041c _Z13sem_timedwaitP4_semm
     /tmp/ccCz2gch.s:680    .text:000000000000041c .L0 
     /tmp/ccCz2gch.s:681    .text:000000000000041c .L0 
     /tmp/ccCz2gch.s:682    .text:0000000000000420 .L0 
     /tmp/ccCz2gch.s:684    .text:0000000000000424 .L0 
     /tmp/ccCz2gch.s:686    .text:0000000000000428 .L0 
     /tmp/ccCz2gch.s:688    .text:0000000000000428 .L0 
     /tmp/ccCz2gch.s:689    .text:0000000000000428 .L0 
     /tmp/ccCz2gch.s:691    .text:0000000000000430 .L0 
     /tmp/ccCz2gch.s:692    .text:0000000000000430 .L0 
     /tmp/ccCz2gch.s:694    .text:0000000000000434 .L0 
     /tmp/ccCz2gch.s:696    .text:0000000000000438 .L0 
     /tmp/ccCz2gch.s:702    .text:0000000000000438 _Z10time_sleepm
     /tmp/ccCz2gch.s:705    .text:0000000000000438 .L0 
     /tmp/ccCz2gch.s:706    .text:0000000000000438 .L0 
     /tmp/ccCz2gch.s:707    .text:000000000000043c .L0 
     /tmp/ccCz2gch.s:709    .text:0000000000000440 .L0 
     /tmp/ccCz2gch.s:711    .text:0000000000000444 .L0 
     /tmp/ccCz2gch.s:713    .text:0000000000000444 .L0 
     /tmp/ccCz2gch.s:714    .text:0000000000000444 .L0 
     /tmp/ccCz2gch.s:716    .text:000000000000044c .L0 
     /tmp/ccCz2gch.s:717    .text:000000000000044c .L0 
     /tmp/ccCz2gch.s:719    .text:0000000000000450 .L0 
GAS LISTING /tmp/ccCz2gch.s 			page 24


     /tmp/ccCz2gch.s:721    .text:0000000000000454 .L0 
     /tmp/ccCz2gch.s:727    .text:0000000000000454 .L0 
     /tmp/ccCz2gch.s:208    .text:0000000000000120 .L9
     /tmp/ccCz2gch.s:178    .text:00000000000000e8 .L8
     /tmp/ccCz2gch.s:2098   .debug_abbrev:0000000000000000 .Ldebug_abbrev0
     /tmp/ccCz2gch.s:3231   .debug_str:00000000000006c3 .LASF136
     /tmp/ccCz2gch.s:3119   .debug_str:0000000000000360 .LASF137
     /tmp/ccCz2gch.s:3171   .debug_str:00000000000004e3 .LASF138
     /tmp/ccCz2gch.s:5      .text:0000000000000000 .Ltext0
     /tmp/ccCz2gch.s:724    .text:0000000000000454 .Letext0
     /tmp/ccCz2gch.s:2989   .debug_line:0000000000000000 .Ldebug_line0
     /tmp/ccCz2gch.s:3151   .debug_str:0000000000000463 .LASF0
     /tmp/ccCz2gch.s:3163   .debug_str:0000000000000496 .LASF1
     /tmp/ccCz2gch.s:3139   .debug_str:000000000000040c .LASF2
     /tmp/ccCz2gch.s:3115   .debug_str:0000000000000340 .LASF4
     /tmp/ccCz2gch.s:3205   .debug_str:0000000000000621 .LASF3
     /tmp/ccCz2gch.s:3021   .debug_str:00000000000000c3 .LASF5
     /tmp/ccCz2gch.s:3057   .debug_str:00000000000001d8 .LASF6
     /tmp/ccCz2gch.s:3167   .debug_str:00000000000004be .LASF7
     /tmp/ccCz2gch.s:3149   .debug_str:0000000000000450 .LASF8
     /tmp/ccCz2gch.s:3241   .debug_str:00000000000007c4 .LASF9
     /tmp/ccCz2gch.s:3099   .debug_str:00000000000002d5 .LASF10
     /tmp/ccCz2gch.s:3179   .debug_str:0000000000000547 .LASF11
     /tmp/ccCz2gch.s:3233   .debug_str:0000000000000787 .LASF12
     /tmp/ccCz2gch.s:3025   .debug_str:00000000000000dc .LASF13
     /tmp/ccCz2gch.s:2999   .debug_str:000000000000003e .LASF14
     /tmp/ccCz2gch.s:3041   .debug_str:0000000000000161 .LASF15
     /tmp/ccCz2gch.s:3197   .debug_str:00000000000005df .LASF16
     /tmp/ccCz2gch.s:3051   .debug_str:00000000000001a3 .LASF17
     /tmp/ccCz2gch.s:3157   .debug_str:0000000000000483 .LASF132
     /tmp/ccCz2gch.s:3213   .debug_str:0000000000000648 .LASF18
     /tmp/ccCz2gch.s:3189   .debug_str:00000000000005ad .LASF19
     /tmp/ccCz2gch.s:3017   .debug_str:00000000000000b0 .LASF20
     /tmp/ccCz2gch.s:3067   .debug_str:0000000000000219 .LASF21
     /tmp/ccCz2gch.s:3127   .debug_str:0000000000000391 .LASF22
     /tmp/ccCz2gch.s:3273   .debug_str:00000000000008b4 .LASF23
     /tmp/ccCz2gch.s:3043   .debug_str:000000000000016d .LASF24
     /tmp/ccCz2gch.s:3155   .debug_str:0000000000000477 .LASF25
     /tmp/ccCz2gch.s:3029   .debug_str:00000000000000f7 .LASF26
     /tmp/ccCz2gch.s:3011   .debug_str:0000000000000098 .LASF27
     /tmp/ccCz2gch.s:3239   .debug_str:00000000000007bb .LASF28
     /tmp/ccCz2gch.s:3125   .debug_str:0000000000000387 .LASF29
     /tmp/ccCz2gch.s:3211   .debug_str:000000000000063f .LASF30
     /tmp/ccCz2gch.s:3027   .debug_str:00000000000000ec .LASF31
     /tmp/ccCz2gch.s:3097   .debug_str:00000000000002c9 .LASF32
     /tmp/ccCz2gch.s:2991   .debug_str:0000000000000000 .LASF33
     /tmp/ccCz2gch.s:3071   .debug_str:000000000000022a .LASF34
     /tmp/ccCz2gch.s:3113   .debug_str:000000000000033b .LASF35
     /tmp/ccCz2gch.s:3161   .debug_str:0000000000000490 .LASF139
     /tmp/ccCz2gch.s:3005   .debug_str:0000000000000063 .LASF140
     /tmp/ccCz2gch.s:3135   .debug_str:00000000000003e8 .LASF141
     /tmp/ccCz2gch.s:3019   .debug_str:00000000000000b5 .LASF36
     /tmp/ccCz2gch.s:3007   .debug_str:0000000000000071 .LASF38
     /tmp/ccCz2gch.s:3219   .debug_str:000000000000067e .LASF37
     /tmp/ccCz2gch.s:2997   .debug_str:0000000000000024 .LASF39
     /tmp/ccCz2gch.s:3193   .debug_str:00000000000005c6 .LASF40
     /tmp/ccCz2gch.s:3259   .debug_str:0000000000000837 .LASF41
GAS LISTING /tmp/ccCz2gch.s 			page 25


     /tmp/ccCz2gch.s:3001   .debug_str:000000000000004e .LASF42
     /tmp/ccCz2gch.s:3217   .debug_str:0000000000000669 .LASF44
     /tmp/ccCz2gch.s:3047   .debug_str:0000000000000186 .LASF46
     /tmp/ccCz2gch.s:3065   .debug_str:0000000000000204 .LASF48
     /tmp/ccCz2gch.s:3209   .debug_str:0000000000000638 .LASF43
     /tmp/ccCz2gch.s:3183   .debug_str:000000000000056b .LASF45
     /tmp/ccCz2gch.s:3229   .debug_str:00000000000006bc .LASF47
     /tmp/ccCz2gch.s:3223   .debug_str:0000000000000692 .LASF49
     /tmp/ccCz2gch.s:3087   .debug_str:000000000000029c .LASF50
     /tmp/ccCz2gch.s:3053   .debug_str:00000000000001b9 .LASF51
     /tmp/ccCz2gch.s:2995   .debug_str:000000000000001c .LASF52
     /tmp/ccCz2gch.s:3107   .debug_str:000000000000030c .LASF53
     /tmp/ccCz2gch.s:3075   .debug_str:0000000000000241 .LASF54
     /tmp/ccCz2gch.s:3033   .debug_str:0000000000000117 .LASF55
     /tmp/ccCz2gch.s:3269   .debug_str:0000000000000897 .LASF56
     /tmp/ccCz2gch.s:3077   .debug_str:0000000000000249 .LASF57
     /tmp/ccCz2gch.s:3153   .debug_str:0000000000000470 .LASF58
     /tmp/ccCz2gch.s:3255   .debug_str:0000000000000816 .LASF59
     /tmp/ccCz2gch.s:3015   .debug_str:00000000000000a9 .LASF60
     /tmp/ccCz2gch.s:3085   .debug_str:0000000000000289 .LASF61
     /tmp/ccCz2gch.s:3095   .debug_str:00000000000002c3 .LASF62
     /tmp/ccCz2gch.s:3227   .debug_str:00000000000006aa .LASF63
     /tmp/ccCz2gch.s:3013   .debug_str:00000000000000a3 .LASF64
     /tmp/ccCz2gch.s:3023   .debug_str:00000000000000ca .LASF65
     /tmp/ccCz2gch.s:3267   .debug_str:000000000000088c .LASF66
     /tmp/ccCz2gch.s:3201   .debug_str:0000000000000600 .LASF67
     /tmp/ccCz2gch.s:3121   .debug_str:0000000000000372 .LASF68
     /tmp/ccCz2gch.s:3131   .debug_str:00000000000003c1 .LASF69
     /tmp/ccCz2gch.s:3039   .debug_str:0000000000000157 .LASF70
     /tmp/ccCz2gch.s:3111   .debug_str:0000000000000325 .LASF71
     /tmp/ccCz2gch.s:3143   .debug_str:0000000000000430 .LASF72
     /tmp/ccCz2gch.s:3103   .debug_str:00000000000002e8 .LASF73
     /tmp/ccCz2gch.s:3133   .debug_str:00000000000003d9 .LASF74
     /tmp/ccCz2gch.s:3035   .debug_str:000000000000012b .LASF75
     /tmp/ccCz2gch.s:3059   .debug_str:00000000000001df .LASF76
     /tmp/ccCz2gch.s:3237   .debug_str:000000000000079d .LASF77
     /tmp/ccCz2gch.s:3225   .debug_str:00000000000006a5 .LASF78
     /tmp/ccCz2gch.s:3073   .debug_str:0000000000000230 .LASF79
     /tmp/ccCz2gch.s:3101   .debug_str:00000000000002e3 .LASF80
     /tmp/ccCz2gch.s:3145   .debug_str:000000000000043a .LASF81
     /tmp/ccCz2gch.s:3247   .debug_str:00000000000007e7 .LASF82
     /tmp/ccCz2gch.s:3129   .debug_str:000000000000039f .LASF84
     /tmp/ccCz2gch.s:3165   .debug_str:00000000000004a9 .LASF83
     /tmp/ccCz2gch.s:3175   .debug_str:0000000000000512 .LASF85
     /tmp/ccCz2gch.s:3215   .debug_str:0000000000000652 .LASF86
     /tmp/ccCz2gch.s:3265   .debug_str:0000000000000868 .LASF87
     /tmp/ccCz2gch.s:3199   .debug_str:00000000000005f5 .LASF88
     /tmp/ccCz2gch.s:3263   .debug_str:0000000000000858 .LASF90
     /tmp/ccCz2gch.s:703    .text:0000000000000438 .LFB35
     /tmp/ccCz2gch.s:722    .text:0000000000000454 .LFE35
     /tmp/ccCz2gch.s:3195   .debug_str:00000000000005d1 .LASF89
     /tmp/ccCz2gch.s:3117   .debug_str:0000000000000347 .LASF91
     /tmp/ccCz2gch.s:678    .text:000000000000041c .LFB34
     /tmp/ccCz2gch.s:697    .text:0000000000000438 .LFE34
     /tmp/ccCz2gch.s:3207   .debug_str:0000000000000633 .LASF107
     /tmp/ccCz2gch.s:3083   .debug_str:0000000000000280 .LASF109
     /tmp/ccCz2gch.s:640    .text:00000000000003e0 .LFB33
GAS LISTING /tmp/ccCz2gch.s 			page 26


     /tmp/ccCz2gch.s:672    .text:000000000000041c .LFE33
     /tmp/ccCz2gch.s:2665   .debug_loc:0000000000000000 .LLST16
     /tmp/ccCz2gch.s:661    .text:000000000000040c .LVL48
     /tmp/ccCz2gch.s:3109   .debug_str:0000000000000320 .LASF92
     /tmp/ccCz2gch.s:3137   .debug_str:0000000000000407 .LASF93
     /tmp/ccCz2gch.s:3203   .debug_str:0000000000000618 .LASF94
     /tmp/ccCz2gch.s:603    .text:00000000000003a0 .LFB32
     /tmp/ccCz2gch.s:634    .text:00000000000003e0 .LFE32
     /tmp/ccCz2gch.s:622    .text:00000000000003cc .LVL45
     /tmp/ccCz2gch.s:3003   .debug_str:0000000000000057 .LASF95
     /tmp/ccCz2gch.s:3141   .debug_str:000000000000041a .LASF96
     /tmp/ccCz2gch.s:564    .text:0000000000000360 .LFB31
     /tmp/ccCz2gch.s:597    .text:00000000000003a0 .LFE31
     /tmp/ccCz2gch.s:2679   .debug_loc:0000000000000039 .LLST15
     /tmp/ccCz2gch.s:585    .text:000000000000038c .LVL44
     /tmp/ccCz2gch.s:3055   .debug_str:00000000000001cd .LASF97
     /tmp/ccCz2gch.s:3089   .debug_str:00000000000002a4 .LASF98
     /tmp/ccCz2gch.s:525    .text:0000000000000320 .LFB30
     /tmp/ccCz2gch.s:558    .text:0000000000000360 .LFE30
     /tmp/ccCz2gch.s:2697   .debug_loc:0000000000000085 .LLST14
     /tmp/ccCz2gch.s:546    .text:000000000000034c .LVL41
     /tmp/ccCz2gch.s:3045   .debug_str:000000000000017d .LASF99
     /tmp/ccCz2gch.s:3169   .debug_str:00000000000004d1 .LASF100
     /tmp/ccCz2gch.s:486    .text:00000000000002e0 .LFB29
     /tmp/ccCz2gch.s:519    .text:0000000000000320 .LFE29
     /tmp/ccCz2gch.s:2715   .debug_loc:00000000000000d1 .LLST13
     /tmp/ccCz2gch.s:507    .text:000000000000030c .LVL38
     /tmp/ccCz2gch.s:3123   .debug_str:000000000000037d .LASF101
     /tmp/ccCz2gch.s:3177   .debug_str:0000000000000534 .LASF102
     /tmp/ccCz2gch.s:447    .text:00000000000002a0 .LFB28
     /tmp/ccCz2gch.s:480    .text:00000000000002e0 .LFE28
     /tmp/ccCz2gch.s:3221   .debug_str:000000000000068b .LASF103
     /tmp/ccCz2gch.s:2733   .debug_loc:000000000000011d .LLST12
     /tmp/ccCz2gch.s:468    .text:00000000000002cc .LVL35
     /tmp/ccCz2gch.s:3245   .debug_str:00000000000007de .LASF104
     /tmp/ccCz2gch.s:3049   .debug_str:000000000000018f .LASF105
     /tmp/ccCz2gch.s:406    .text:000000000000025c .LFB27
     /tmp/ccCz2gch.s:441    .text:00000000000002a0 .LFE27
     /tmp/ccCz2gch.s:2751   .debug_loc:0000000000000169 .LLST10
     /tmp/ccCz2gch.s:3173   .debug_str:000000000000050d .LASF106
     /tmp/ccCz2gch.s:2769   .debug_loc:00000000000001b5 .LLST11
     /tmp/ccCz2gch.s:429    .text:000000000000028c .LVL32
     /tmp/ccCz2gch.s:3079   .debug_str:000000000000025d .LASF108
     /tmp/ccCz2gch.s:3081   .debug_str:000000000000026c .LASF110
     /tmp/ccCz2gch.s:370    .text:0000000000000220 .LFB26
     /tmp/ccCz2gch.s:400    .text:000000000000025c .LFE26
     /tmp/ccCz2gch.s:389    .text:000000000000024c .LVL28
     /tmp/ccCz2gch.s:3105   .debug_str:00000000000002fe .LASF111
     /tmp/ccCz2gch.s:2993   .debug_str:0000000000000009 .LASF112
     /tmp/ccCz2gch.s:332    .text:00000000000001e4 .LFB25
     /tmp/ccCz2gch.s:364    .text:0000000000000220 .LFE25
     /tmp/ccCz2gch.s:3253   .debug_str:000000000000080f .LASF113
     /tmp/ccCz2gch.s:2783   .debug_loc:00000000000001ee .LLST9
     /tmp/ccCz2gch.s:353    .text:0000000000000210 .LVL27
     /tmp/ccCz2gch.s:3069   .debug_str:000000000000021e .LASF114
     /tmp/ccCz2gch.s:3271   .debug_str:000000000000089f .LASF115
     /tmp/ccCz2gch.s:293    .text:00000000000001a4 .LFB24
GAS LISTING /tmp/ccCz2gch.s 			page 27


     /tmp/ccCz2gch.s:326    .text:00000000000001e4 .LFE24
     /tmp/ccCz2gch.s:2797   .debug_loc:0000000000000227 .LLST8
     /tmp/ccCz2gch.s:314    .text:00000000000001d0 .LVL24
     /tmp/ccCz2gch.s:3191   .debug_str:00000000000005b6 .LASF116
     /tmp/ccCz2gch.s:3181   .debug_str:0000000000000556 .LASF117
     /tmp/ccCz2gch.s:257    .text:0000000000000168 .LFB23
     /tmp/ccCz2gch.s:287    .text:00000000000001a4 .LFE23
     /tmp/ccCz2gch.s:276    .text:0000000000000194 .LVL21
     /tmp/ccCz2gch.s:3009   .debug_str:000000000000008c .LASF118
     /tmp/ccCz2gch.s:3031   .debug_str:0000000000000106 .LASF119
     /tmp/ccCz2gch.s:220    .text:0000000000000128 .LFB22
     /tmp/ccCz2gch.s:251    .text:0000000000000168 .LFE22
     /tmp/ccCz2gch.s:239    .text:0000000000000154 .LVL20
     /tmp/ccCz2gch.s:3061   .debug_str:00000000000001f0 .LASF120
     /tmp/ccCz2gch.s:3187   .debug_str:000000000000058c .LASF121
     /tmp/ccCz2gch.s:145    .text:00000000000000ac .LFB21
     /tmp/ccCz2gch.s:214    .text:0000000000000128 .LFE21
     /tmp/ccCz2gch.s:2815   .debug_loc:0000000000000273 .LLST4
     /tmp/ccCz2gch.s:3185   .debug_str:000000000000057e .LASF122
     /tmp/ccCz2gch.s:2837   .debug_loc:00000000000002d2 .LLST5
     /tmp/ccCz2gch.s:2859   .debug_loc:0000000000000331 .LLST6
     /tmp/ccCz2gch.s:3063   .debug_str:00000000000001fe .LASF123
     /tmp/ccCz2gch.s:2881   .debug_loc:0000000000000390 .LLST7
     /tmp/ccCz2gch.s:175    .text:00000000000000e4 .LVL13
     /tmp/ccCz2gch.s:186    .text:0000000000000100 .LVL15
     /tmp/ccCz2gch.s:3261   .debug_str:000000000000084f .LASF124
     /tmp/ccCz2gch.s:3257   .debug_str:0000000000000829 .LASF125
     /tmp/ccCz2gch.s:106    .text:000000000000006c .LFB20
     /tmp/ccCz2gch.s:139    .text:00000000000000ac .LFE20
     /tmp/ccCz2gch.s:2898   .debug_loc:00000000000003db .LLST3
     /tmp/ccCz2gch.s:127    .text:0000000000000098 .LVL9
     /tmp/ccCz2gch.s:3243   .debug_str:00000000000007d4 .LASF126
     /tmp/ccCz2gch.s:3249   .debug_str:00000000000007fc .LASF127
     /tmp/ccCz2gch.s:61     .text:0000000000000028 .LFB19
     /tmp/ccCz2gch.s:100    .text:000000000000006c .LFE19
     /tmp/ccCz2gch.s:3147   .debug_str:000000000000044b .LASF128
     /tmp/ccCz2gch.s:2916   .debug_loc:0000000000000427 .LLST1
     /tmp/ccCz2gch.s:3235   .debug_str:0000000000000796 .LASF129
     /tmp/ccCz2gch.s:2930   .debug_loc:0000000000000460 .LLST2
     /tmp/ccCz2gch.s:89     .text:000000000000005c .LVL6
     /tmp/ccCz2gch.s:3159   .debug_str:0000000000000488 .LASF130
     /tmp/ccCz2gch.s:3037   .debug_str:0000000000000147 .LASF131
     /tmp/ccCz2gch.s:10     .text:0000000000000000 .LFB18
     /tmp/ccCz2gch.s:55     .text:0000000000000028 .LFE18
     /tmp/ccCz2gch.s:2962   .debug_loc:00000000000004ba .LLST0
     /tmp/ccCz2gch.s:3091   .debug_str:00000000000002b9 .LASF133
     /tmp/ccCz2gch.s:3093   .debug_str:00000000000002be .LASF134
     /tmp/ccCz2gch.s:3251   .debug_str:000000000000080a .LASF135
     /tmp/ccCz2gch.s:29     .text:0000000000000010 .LBB4
     /tmp/ccCz2gch.s:46     .text:000000000000001c .LBE4
     /tmp/ccCz2gch.s:643    .text:00000000000003e0 .LVL46
     /tmp/ccCz2gch.s:659    .text:0000000000000404 .LVL47
     /tmp/ccCz2gch.s:567    .text:0000000000000360 .LVL42
     /tmp/ccCz2gch.s:583    .text:0000000000000384 .LVL43
     /tmp/ccCz2gch.s:528    .text:0000000000000320 .LVL39
     /tmp/ccCz2gch.s:544    .text:0000000000000344 .LVL40
     /tmp/ccCz2gch.s:489    .text:00000000000002e0 .LVL36
GAS LISTING /tmp/ccCz2gch.s 			page 28


     /tmp/ccCz2gch.s:505    .text:0000000000000304 .LVL37
     /tmp/ccCz2gch.s:450    .text:00000000000002a0 .LVL33
     /tmp/ccCz2gch.s:466    .text:00000000000002c4 .LVL34
     /tmp/ccCz2gch.s:409    .text:000000000000025c .LVL29
     /tmp/ccCz2gch.s:427    .text:0000000000000284 .LVL31
     /tmp/ccCz2gch.s:425    .text:0000000000000280 .LVL30
     /tmp/ccCz2gch.s:335    .text:00000000000001e4 .LVL25
     /tmp/ccCz2gch.s:351    .text:0000000000000208 .LVL26
     /tmp/ccCz2gch.s:296    .text:00000000000001a4 .LVL22
     /tmp/ccCz2gch.s:312    .text:00000000000001c8 .LVL23
     /tmp/ccCz2gch.s:148    .text:00000000000000ac .LVL10
     /tmp/ccCz2gch.s:173    .text:00000000000000dc .LVL12
     /tmp/ccCz2gch.s:200    .text:0000000000000114 .LVL17
     /tmp/ccCz2gch.s:207    .text:0000000000000120 .LVL19
     /tmp/ccCz2gch.s:197    .text:0000000000000110 .LVL16
     /tmp/ccCz2gch.s:203    .text:0000000000000118 .LVL18
     /tmp/ccCz2gch.s:167    .text:00000000000000d4 .LVL11
     /tmp/ccCz2gch.s:177    .text:00000000000000e8 .LVL14
     /tmp/ccCz2gch.s:109    .text:000000000000006c .LVL7
     /tmp/ccCz2gch.s:125    .text:0000000000000090 .LVL8
     /tmp/ccCz2gch.s:64     .text:0000000000000028 .LVL2
     /tmp/ccCz2gch.s:87     .text:0000000000000054 .LVL5
     /tmp/ccCz2gch.s:78     .text:0000000000000040 .LVL3
     /tmp/ccCz2gch.s:85     .text:0000000000000050 .LVL4
     /tmp/ccCz2gch.s:14     .text:0000000000000000 .LVL0
     /tmp/ccCz2gch.s:44     .text:000000000000001c .LVL1
     /tmp/ccCz2gch.s:728    .debug_info:0000000000000000 .Ldebug_info0

NO UNDEFINED SYMBOLS
