GAS LISTING /tmp/cc170L1Z.s 			page 1


   1              		.file	"syscall_cpp.cpp"
   2              		.option pic
   3              		.option norelax
   4              		.text
   5              	.Ltext0:
   6              		.section	.text._ZN6Thread3runEv,"axG",@progbits,_ZN6Thread3runEv,comdat
   7              		.align	2
   8              		.weak	_ZN6Thread3runEv
  10              	_ZN6Thread3runEv:
  11              	.LFB0:
  12              		.file 1 "src/../h/syscall_cpp.hpp"
   1:src/../h/syscall_cpp.hpp **** //
   2:src/../h/syscall_cpp.hpp **** // Created by os on 9/13/24.
   3:src/../h/syscall_cpp.hpp **** //
   4:src/../h/syscall_cpp.hpp **** 
   5:src/../h/syscall_cpp.hpp **** #ifndef SYSCALL_CPP_HPP
   6:src/../h/syscall_cpp.hpp **** #define SYSCALL_CPP_HPP
   7:src/../h/syscall_cpp.hpp **** #include "syscall_c.hpp"
   8:src/../h/syscall_cpp.hpp **** #include "../src/_new.cpp"
   9:src/../h/syscall_cpp.hpp **** #include "../lib/hw.h"
  10:src/../h/syscall_cpp.hpp **** #include "../lib/console.h"
  11:src/../h/syscall_cpp.hpp **** #include "../lib/mem.h"
  12:src/../h/syscall_cpp.hpp **** 
  13:src/../h/syscall_cpp.hpp **** void* operator new(size_t);
  14:src/../h/syscall_cpp.hpp **** void* operator new[](size_t);
  15:src/../h/syscall_cpp.hpp **** void operator delete(void*) noexcept;
  16:src/../h/syscall_cpp.hpp **** void operator delete[](void*) noexcept;
  17:src/../h/syscall_cpp.hpp **** 
  18:src/../h/syscall_cpp.hpp **** class Thread {
  19:src/../h/syscall_cpp.hpp **** public:
  20:src/../h/syscall_cpp.hpp ****     Thread(void (*body)(void *), void *arg);
  21:src/../h/syscall_cpp.hpp ****     virtual ~Thread();
  22:src/../h/syscall_cpp.hpp **** 
  23:src/../h/syscall_cpp.hpp ****     int start();
  24:src/../h/syscall_cpp.hpp **** 
  25:src/../h/syscall_cpp.hpp ****     static void dispatch();
  26:src/../h/syscall_cpp.hpp ****     static int sleep (time_t);
  27:src/../h/syscall_cpp.hpp **** 
  28:src/../h/syscall_cpp.hpp ****     static void wrapperRun(void* arg);
  29:src/../h/syscall_cpp.hpp **** 
  30:src/../h/syscall_cpp.hpp **** protected:
  31:src/../h/syscall_cpp.hpp ****     Thread();
  32:src/../h/syscall_cpp.hpp ****     virtual void run() {}
  13              		.loc 1 32 18
  14              		.cfi_startproc
  15              	.LVL0:
  16 0000 130101FF 		addi	sp,sp,-16
  17              		.cfi_def_cfa_offset 16
  18 0004 23348100 		sd	s0,8(sp)
  19              		.cfi_offset 8, -8
  20 0008 13040101 		addi	s0,sp,16
  21              		.cfi_def_cfa 8, 0
  22              		.loc 1 32 25 is_stmt 0
  23 000c 03348100 		ld	s0,8(sp)
  24              		.cfi_restore 8
  25              		.cfi_def_cfa 2, 16
  26 0010 13010101 		addi	sp,sp,16
GAS LISTING /tmp/cc170L1Z.s 			page 2


  27              		.cfi_def_cfa_offset 0
  28 0014 67800000 		jr	ra
  29              		.cfi_endproc
  30              	.LFE0:
  32              		.text
  33              		.align	2
  34              		.globl	_ZN6ThreadD2Ev
  36              	_ZN6ThreadD2Ev:
  37              	.LFB9:
  38              		.file 2 "src/syscall_cpp.cpp"
   1:src/syscall_cpp.cpp **** #include "../h/syscall_cpp.hpp"
   2:src/syscall_cpp.cpp **** 
   3:src/syscall_cpp.cpp **** void *operator new(size_t size) {
   4:src/syscall_cpp.cpp ****     return MemoryAllocator::mem_alloc(size);
   5:src/syscall_cpp.cpp **** }
   6:src/syscall_cpp.cpp **** 
   7:src/syscall_cpp.cpp **** void *operator new[](size_t size) {
   8:src/syscall_cpp.cpp ****     return MemoryAllocator::mem_alloc(size);
   9:src/syscall_cpp.cpp **** }
  10:src/syscall_cpp.cpp **** 
  11:src/syscall_cpp.cpp **** 
  12:src/syscall_cpp.cpp **** void operator delete( void* p ) noexcept {
  13:src/syscall_cpp.cpp ****     MemoryAllocator::mem_free(p);
  14:src/syscall_cpp.cpp **** }
  15:src/syscall_cpp.cpp **** 
  16:src/syscall_cpp.cpp **** void operator delete[]( void* p ) noexcept {
  17:src/syscall_cpp.cpp ****     MemoryAllocator::mem_free(p);
  18:src/syscall_cpp.cpp **** }
  19:src/syscall_cpp.cpp **** 
  20:src/syscall_cpp.cpp **** 
  21:src/syscall_cpp.cpp **** Thread::Thread(void (*body)(void *), void *arg) {
  22:src/syscall_cpp.cpp ****     this->body = body;
  23:src/syscall_cpp.cpp ****     this->arg = arg;
  24:src/syscall_cpp.cpp **** }
  25:src/syscall_cpp.cpp **** 
  26:src/syscall_cpp.cpp **** Thread::~Thread() {
  39              		.loc 2 26 1 is_stmt 1
  40              		.cfi_startproc
  41              	.LVL1:
  42 0000 130101FF 		addi	sp,sp,-16
  43              		.cfi_def_cfa_offset 16
  44 0004 23348100 		sd	s0,8(sp)
  45              		.cfi_offset 8, -8
  46 0008 13040101 		addi	s0,sp,16
  47              		.cfi_def_cfa 8, 0
  27:src/syscall_cpp.cpp **** }
  48              		.loc 2 27 1 is_stmt 0
  49 000c 03348100 		ld	s0,8(sp)
  50              		.cfi_restore 8
  51              		.cfi_def_cfa 2, 16
  52 0010 13010101 		addi	sp,sp,16
  53              		.cfi_def_cfa_offset 0
  54 0014 67800000 		jr	ra
  55              		.cfi_endproc
  56              	.LFE9:
  58              		.globl	_ZN6ThreadD1Ev
  59              		.set	_ZN6ThreadD1Ev,_ZN6ThreadD2Ev
GAS LISTING /tmp/cc170L1Z.s 			page 3


  60              		.align	2
  61              		.globl	_ZN9SemaphoreD2Ev
  63              	_ZN9SemaphoreD2Ev:
  64              	.LFB26:
  28:src/syscall_cpp.cpp **** 
  29:src/syscall_cpp.cpp **** void Thread::dispatch() {
  30:src/syscall_cpp.cpp ****     thread_dispatch();
  31:src/syscall_cpp.cpp **** }
  32:src/syscall_cpp.cpp **** 
  33:src/syscall_cpp.cpp **** int Thread::sleep(time_t t) {
  34:src/syscall_cpp.cpp ****     return 0;
  35:src/syscall_cpp.cpp **** }
  36:src/syscall_cpp.cpp **** 
  37:src/syscall_cpp.cpp **** int Thread::start(){
  38:src/syscall_cpp.cpp ****     thread_create(&myHandle, body, arg);
  39:src/syscall_cpp.cpp ****     return 0;
  40:src/syscall_cpp.cpp **** }
  41:src/syscall_cpp.cpp **** 
  42:src/syscall_cpp.cpp **** void Thread::wrapperRun(void* pt){
  43:src/syscall_cpp.cpp ****     if(pt != nullptr) ((Thread*)pt)->run();
  44:src/syscall_cpp.cpp ****     else return;
  45:src/syscall_cpp.cpp **** 
  46:src/syscall_cpp.cpp **** }
  47:src/syscall_cpp.cpp **** 
  48:src/syscall_cpp.cpp **** Thread::Thread(){
  49:src/syscall_cpp.cpp ****     this->body = nullptr;
  50:src/syscall_cpp.cpp ****     this->arg = nullptr;
  51:src/syscall_cpp.cpp ****  }
  52:src/syscall_cpp.cpp **** 
  53:src/syscall_cpp.cpp **** 
  54:src/syscall_cpp.cpp **** 
  55:src/syscall_cpp.cpp **** ///////////////semafori
  56:src/syscall_cpp.cpp **** Semaphore::Semaphore(unsigned int init){
  57:src/syscall_cpp.cpp ****     sem_open(&myHandle, init);
  58:src/syscall_cpp.cpp **** }
  59:src/syscall_cpp.cpp **** 
  60:src/syscall_cpp.cpp **** int Semaphore::signal(){
  61:src/syscall_cpp.cpp ****     if (myHandle == nullptr) {
  62:src/syscall_cpp.cpp ****         return -1;
  63:src/syscall_cpp.cpp ****     }
  64:src/syscall_cpp.cpp ****     return sem_signal(myHandle);
  65:src/syscall_cpp.cpp **** }
  66:src/syscall_cpp.cpp **** 
  67:src/syscall_cpp.cpp **** int Semaphore::wait(){
  68:src/syscall_cpp.cpp ****     if (myHandle == nullptr) {
  69:src/syscall_cpp.cpp ****         return -1;
  70:src/syscall_cpp.cpp ****     }
  71:src/syscall_cpp.cpp ****     return sem_wait(myHandle);
  72:src/syscall_cpp.cpp **** }
  73:src/syscall_cpp.cpp **** int Semaphore::trywait(){
  74:src/syscall_cpp.cpp ****     if (myHandle == nullptr) {
  75:src/syscall_cpp.cpp ****         return -1;
  76:src/syscall_cpp.cpp ****     }
  77:src/syscall_cpp.cpp ****     return sem_trywait(myHandle);
  78:src/syscall_cpp.cpp **** }
  79:src/syscall_cpp.cpp **** Semaphore::~Semaphore(){
  65              		.loc 2 79 1 is_stmt 1
GAS LISTING /tmp/cc170L1Z.s 			page 4


  66              		.cfi_startproc
  67              		.cfi_personality 0x9b,DW.ref.__gxx_personality_v0
  68              		.cfi_lsda 0x1b,.LLSDA26
  69              	.LVL2:
  70 0018 130101FF 		addi	sp,sp,-16
  71              		.cfi_def_cfa_offset 16
  72 001c 23341100 		sd	ra,8(sp)
  73 0020 23308100 		sd	s0,0(sp)
  74              		.cfi_offset 1, -8
  75              		.cfi_offset 8, -16
  76 0024 13040101 		addi	s0,sp,16
  77              		.cfi_def_cfa 8, 0
  78              	.LBB2:
  79              		.loc 2 79 23 is_stmt 0
  80 0028 97070000 		lla	a5,_ZTV9Semaphore+16
  80      93870700 
  81 0030 2330F500 		sd	a5,0(a0)
  80:src/syscall_cpp.cpp ****     sem_close(myHandle);
  82              		.loc 2 80 5 is_stmt 1
  83              		.loc 2 80 14 is_stmt 0
  84 0034 03358500 		ld	a0,8(a0)
  85              	.LVL3:
  86 0038 97000000 		call	_Z9sem_closeP4_sem@plt
  86      E7800000 
  87              	.LVL4:
  88              	.LBE2:
  81:src/syscall_cpp.cpp **** }
  89              		.loc 2 81 1
  90 0040 83308100 		ld	ra,8(sp)
  91              		.cfi_restore 1
  92 0044 03340100 		ld	s0,0(sp)
  93              		.cfi_restore 8
  94              		.cfi_def_cfa 2, 16
  95 0048 13010101 		addi	sp,sp,16
  96              		.cfi_def_cfa_offset 0
  97 004c 67800000 		jr	ra
  98              		.cfi_endproc
  99              	.LFE26:
 100              		.globl	__gxx_personality_v0
 101              		.section	.gcc_except_table,"a",@progbits
 102              	.LLSDA26:
 103 0000 FF       		.byte	0xff
 104 0001 FF       		.byte	0xff
 105 0002 03       		.byte	0x3
 106 0003 00       		.byte	0
 107              		.text
 109              		.globl	_ZN9SemaphoreD1Ev
 110              		.set	_ZN9SemaphoreD1Ev,_ZN9SemaphoreD2Ev
 111              		.align	2
 112              		.globl	_Znwm
 114              	_Znwm:
 115              	.LFB1:
   3:src/syscall_cpp.cpp ****     return MemoryAllocator::mem_alloc(size);
 116              		.loc 2 3 33 is_stmt 1
 117              		.cfi_startproc
 118              	.LVL5:
 119 0050 130101FF 		addi	sp,sp,-16
GAS LISTING /tmp/cc170L1Z.s 			page 5


 120              		.cfi_def_cfa_offset 16
 121 0054 23341100 		sd	ra,8(sp)
 122 0058 23308100 		sd	s0,0(sp)
 123              		.cfi_offset 1, -8
 124              		.cfi_offset 8, -16
 125 005c 13040101 		addi	s0,sp,16
 126              		.cfi_def_cfa 8, 0
   4:src/syscall_cpp.cpp **** }
 127              		.loc 2 4 5
   4:src/syscall_cpp.cpp **** }
 128              		.loc 2 4 38 is_stmt 0
 129 0060 97000000 		call	_ZN15MemoryAllocator9mem_allocEm@plt
 129      E7800000 
 130              	.LVL6:
   5:src/syscall_cpp.cpp **** 
 131              		.loc 2 5 1
 132 0068 83308100 		ld	ra,8(sp)
 133              		.cfi_restore 1
 134 006c 03340100 		ld	s0,0(sp)
 135              		.cfi_restore 8
 136              		.cfi_def_cfa 2, 16
 137 0070 13010101 		addi	sp,sp,16
 138              		.cfi_def_cfa_offset 0
 139 0074 67800000 		jr	ra
 140              		.cfi_endproc
 141              	.LFE1:
 143              		.align	2
 144              		.globl	_Znam
 146              	_Znam:
 147              	.LFB2:
   7:src/syscall_cpp.cpp ****     return MemoryAllocator::mem_alloc(size);
 148              		.loc 2 7 35 is_stmt 1
 149              		.cfi_startproc
 150              	.LVL7:
 151 0078 130101FF 		addi	sp,sp,-16
 152              		.cfi_def_cfa_offset 16
 153 007c 23341100 		sd	ra,8(sp)
 154 0080 23308100 		sd	s0,0(sp)
 155              		.cfi_offset 1, -8
 156              		.cfi_offset 8, -16
 157 0084 13040101 		addi	s0,sp,16
 158              		.cfi_def_cfa 8, 0
   8:src/syscall_cpp.cpp **** }
 159              		.loc 2 8 5
   8:src/syscall_cpp.cpp **** }
 160              		.loc 2 8 38 is_stmt 0
 161 0088 97000000 		call	_ZN15MemoryAllocator9mem_allocEm@plt
 161      E7800000 
 162              	.LVL8:
   9:src/syscall_cpp.cpp **** 
 163              		.loc 2 9 1
 164 0090 83308100 		ld	ra,8(sp)
 165              		.cfi_restore 1
 166 0094 03340100 		ld	s0,0(sp)
 167              		.cfi_restore 8
 168              		.cfi_def_cfa 2, 16
 169 0098 13010101 		addi	sp,sp,16
GAS LISTING /tmp/cc170L1Z.s 			page 6


 170              		.cfi_def_cfa_offset 0
 171 009c 67800000 		jr	ra
 172              		.cfi_endproc
 173              	.LFE2:
 175              		.align	2
 176              		.globl	_ZdlPv
 178              	_ZdlPv:
 179              	.LFB3:
  12:src/syscall_cpp.cpp ****     MemoryAllocator::mem_free(p);
 180              		.loc 2 12 42 is_stmt 1
 181              		.cfi_startproc
 182              		.cfi_personality 0x9b,DW.ref.__gxx_personality_v0
 183              		.cfi_lsda 0x1b,.LLSDA3
 184              	.LVL9:
 185 00a0 130101FF 		addi	sp,sp,-16
 186              		.cfi_def_cfa_offset 16
 187 00a4 23341100 		sd	ra,8(sp)
 188 00a8 23308100 		sd	s0,0(sp)
 189              		.cfi_offset 1, -8
 190              		.cfi_offset 8, -16
 191 00ac 13040101 		addi	s0,sp,16
 192              		.cfi_def_cfa 8, 0
  13:src/syscall_cpp.cpp **** }
 193              		.loc 2 13 5
  13:src/syscall_cpp.cpp **** }
 194              		.loc 2 13 30 is_stmt 0
 195 00b0 97000000 		call	_ZN15MemoryAllocator8mem_freeEPv@plt
 195      E7800000 
 196              	.LVL10:
  14:src/syscall_cpp.cpp **** 
 197              		.loc 2 14 1
 198 00b8 83308100 		ld	ra,8(sp)
 199              		.cfi_restore 1
 200 00bc 03340100 		ld	s0,0(sp)
 201              		.cfi_restore 8
 202              		.cfi_def_cfa 2, 16
 203 00c0 13010101 		addi	sp,sp,16
 204              		.cfi_def_cfa_offset 0
 205 00c4 67800000 		jr	ra
 206              		.cfi_endproc
 207              	.LFE3:
 208              		.section	.gcc_except_table
 209              	.LLSDA3:
 210 0004 FF       		.byte	0xff
 211 0005 FF       		.byte	0xff
 212 0006 03       		.byte	0x3
 213 0007 00       		.byte	0
 214              		.text
 216              		.align	2
 217              		.globl	_ZN6ThreadD0Ev
 219              	_ZN6ThreadD0Ev:
 220              	.LFB11:
  26:src/syscall_cpp.cpp **** }
 221              		.loc 2 26 1 is_stmt 1
 222              		.cfi_startproc
 223              	.LVL11:
 224 00c8 130101FF 		addi	sp,sp,-16
GAS LISTING /tmp/cc170L1Z.s 			page 7


 225              		.cfi_def_cfa_offset 16
 226 00cc 23341100 		sd	ra,8(sp)
 227 00d0 23308100 		sd	s0,0(sp)
 228              		.cfi_offset 1, -8
 229              		.cfi_offset 8, -16
 230 00d4 13040101 		addi	s0,sp,16
 231              		.cfi_def_cfa 8, 0
  27:src/syscall_cpp.cpp **** 
 232              		.loc 2 27 1 is_stmt 0
 233 00d8 97000000 		call	_ZdlPv
 233      E7800000 
 234              	.LVL12:
 235 00e0 83308100 		ld	ra,8(sp)
 236              		.cfi_restore 1
 237 00e4 03340100 		ld	s0,0(sp)
 238              		.cfi_restore 8
 239              		.cfi_def_cfa 2, 16
 240 00e8 13010101 		addi	sp,sp,16
 241              		.cfi_def_cfa_offset 0
 242 00ec 67800000 		jr	ra
 243              		.cfi_endproc
 244              	.LFE11:
 246              		.align	2
 247              		.globl	_ZN9SemaphoreD0Ev
 249              	_ZN9SemaphoreD0Ev:
 250              	.LFB28:
  79:src/syscall_cpp.cpp ****     sem_close(myHandle);
 251              		.loc 2 79 1 is_stmt 1
 252              		.cfi_startproc
 253              	.LVL13:
 254 00f0 130101FE 		addi	sp,sp,-32
 255              		.cfi_def_cfa_offset 32
 256 00f4 233C1100 		sd	ra,24(sp)
 257 00f8 23388100 		sd	s0,16(sp)
 258 00fc 23349100 		sd	s1,8(sp)
 259              		.cfi_offset 1, -8
 260              		.cfi_offset 8, -16
 261              		.cfi_offset 9, -24
 262 0100 13040102 		addi	s0,sp,32
 263              		.cfi_def_cfa 8, 0
 264 0104 93040500 		mv	s1,a0
 265              		.loc 2 81 1 is_stmt 0
 266 0108 97000000 		call	_ZN9SemaphoreD1Ev
 266      E7800000 
 267              	.LVL14:
 268 0110 13850400 		mv	a0,s1
 269 0114 97000000 		call	_ZdlPv
 269      E7800000 
 270              	.LVL15:
 271 011c 83308101 		ld	ra,24(sp)
 272              		.cfi_restore 1
 273 0120 03340101 		ld	s0,16(sp)
 274              		.cfi_restore 8
 275              		.cfi_def_cfa 2, 32
 276 0124 83348100 		ld	s1,8(sp)
 277              		.cfi_restore 9
 278              	.LVL16:
GAS LISTING /tmp/cc170L1Z.s 			page 8


 279 0128 13010102 		addi	sp,sp,32
 280              		.cfi_def_cfa_offset 0
 281 012c 67800000 		jr	ra
 282              		.cfi_endproc
 283              	.LFE28:
 285              		.align	2
 286              		.globl	_ZdaPv
 288              	_ZdaPv:
 289              	.LFB4:
  16:src/syscall_cpp.cpp ****     MemoryAllocator::mem_free(p);
 290              		.loc 2 16 44 is_stmt 1
 291              		.cfi_startproc
 292              		.cfi_personality 0x9b,DW.ref.__gxx_personality_v0
 293              		.cfi_lsda 0x1b,.LLSDA4
 294              	.LVL17:
 295 0130 130101FF 		addi	sp,sp,-16
 296              		.cfi_def_cfa_offset 16
 297 0134 23341100 		sd	ra,8(sp)
 298 0138 23308100 		sd	s0,0(sp)
 299              		.cfi_offset 1, -8
 300              		.cfi_offset 8, -16
 301 013c 13040101 		addi	s0,sp,16
 302              		.cfi_def_cfa 8, 0
  17:src/syscall_cpp.cpp **** }
 303              		.loc 2 17 5
  17:src/syscall_cpp.cpp **** }
 304              		.loc 2 17 30 is_stmt 0
 305 0140 97000000 		call	_ZN15MemoryAllocator8mem_freeEPv@plt
 305      E7800000 
 306              	.LVL18:
  18:src/syscall_cpp.cpp **** 
 307              		.loc 2 18 1
 308 0148 83308100 		ld	ra,8(sp)
 309              		.cfi_restore 1
 310 014c 03340100 		ld	s0,0(sp)
 311              		.cfi_restore 8
 312              		.cfi_def_cfa 2, 16
 313 0150 13010101 		addi	sp,sp,16
 314              		.cfi_def_cfa_offset 0
 315 0154 67800000 		jr	ra
 316              		.cfi_endproc
 317              	.LFE4:
 318              		.section	.gcc_except_table
 319              	.LLSDA4:
 320 0008 FF       		.byte	0xff
 321 0009 FF       		.byte	0xff
 322 000a 03       		.byte	0x3
 323 000b 00       		.byte	0
 324              		.text
 326              		.align	2
 327              		.globl	_ZN6ThreadC2EPFvPvES0_
 329              	_ZN6ThreadC2EPFvPvES0_:
 330              	.LFB6:
  21:src/syscall_cpp.cpp ****     this->body = body;
 331              		.loc 2 21 1 is_stmt 1
 332              		.cfi_startproc
 333              	.LVL19:
GAS LISTING /tmp/cc170L1Z.s 			page 9


 334 0158 130101FF 		addi	sp,sp,-16
 335              		.cfi_def_cfa_offset 16
 336 015c 23348100 		sd	s0,8(sp)
 337              		.cfi_offset 8, -8
 338 0160 13040101 		addi	s0,sp,16
 339              		.cfi_def_cfa 8, 0
 340              	.LBB3:
  21:src/syscall_cpp.cpp ****     this->body = body;
 341              		.loc 2 21 47 is_stmt 0
 342 0164 97070000 		lla	a5,_ZTV6Thread+16
 342      93870700 
 343 016c 2330F500 		sd	a5,0(a0)
  22:src/syscall_cpp.cpp ****     this->arg = arg;
 344              		.loc 2 22 5 is_stmt 1
  22:src/syscall_cpp.cpp ****     this->arg = arg;
 345              		.loc 2 22 16 is_stmt 0
 346 0170 2338B500 		sd	a1,16(a0)
  23:src/syscall_cpp.cpp **** }
 347              		.loc 2 23 5 is_stmt 1
  23:src/syscall_cpp.cpp **** }
 348              		.loc 2 23 15 is_stmt 0
 349 0174 233CC500 		sd	a2,24(a0)
 350              	.LBE3:
  24:src/syscall_cpp.cpp **** 
 351              		.loc 2 24 1
 352 0178 03348100 		ld	s0,8(sp)
 353              		.cfi_restore 8
 354              		.cfi_def_cfa 2, 16
 355 017c 13010101 		addi	sp,sp,16
 356              		.cfi_def_cfa_offset 0
 357 0180 67800000 		jr	ra
 358              		.cfi_endproc
 359              	.LFE6:
 361              		.globl	_ZN6ThreadC1EPFvPvES0_
 362              		.set	_ZN6ThreadC1EPFvPvES0_,_ZN6ThreadC2EPFvPvES0_
 363              		.align	2
 364              		.globl	_ZN6Thread8dispatchEv
 366              	_ZN6Thread8dispatchEv:
 367              	.LFB12:
  29:src/syscall_cpp.cpp ****     thread_dispatch();
 368              		.loc 2 29 25 is_stmt 1
 369              		.cfi_startproc
 370 0184 130101FF 		addi	sp,sp,-16
 371              		.cfi_def_cfa_offset 16
 372 0188 23341100 		sd	ra,8(sp)
 373 018c 23308100 		sd	s0,0(sp)
 374              		.cfi_offset 1, -8
 375              		.cfi_offset 8, -16
 376 0190 13040101 		addi	s0,sp,16
 377              		.cfi_def_cfa 8, 0
  30:src/syscall_cpp.cpp **** }
 378              		.loc 2 30 5
  30:src/syscall_cpp.cpp **** }
 379              		.loc 2 30 20 is_stmt 0
 380 0194 97000000 		call	_Z15thread_dispatchv@plt
 380      E7800000 
 381              	.LVL20:
GAS LISTING /tmp/cc170L1Z.s 			page 10


  31:src/syscall_cpp.cpp **** 
 382              		.loc 2 31 1
 383 019c 83308100 		ld	ra,8(sp)
 384              		.cfi_restore 1
 385 01a0 03340100 		ld	s0,0(sp)
 386              		.cfi_restore 8
 387              		.cfi_def_cfa 2, 16
 388 01a4 13010101 		addi	sp,sp,16
 389              		.cfi_def_cfa_offset 0
 390 01a8 67800000 		jr	ra
 391              		.cfi_endproc
 392              	.LFE12:
 394              		.align	2
 395              		.globl	_ZN6Thread5sleepEm
 397              	_ZN6Thread5sleepEm:
 398              	.LFB13:
  33:src/syscall_cpp.cpp ****     return 0;
 399              		.loc 2 33 29 is_stmt 1
 400              		.cfi_startproc
 401              	.LVL21:
 402 01ac 130101FF 		addi	sp,sp,-16
 403              		.cfi_def_cfa_offset 16
 404 01b0 23348100 		sd	s0,8(sp)
 405              		.cfi_offset 8, -8
 406 01b4 13040101 		addi	s0,sp,16
 407              		.cfi_def_cfa 8, 0
  34:src/syscall_cpp.cpp **** }
 408              		.loc 2 34 5
  35:src/syscall_cpp.cpp **** 
 409              		.loc 2 35 1 is_stmt 0
 410 01b8 13050000 		li	a0,0
 411              	.LVL22:
 412 01bc 03348100 		ld	s0,8(sp)
 413              		.cfi_restore 8
 414              		.cfi_def_cfa 2, 16
 415 01c0 13010101 		addi	sp,sp,16
 416              		.cfi_def_cfa_offset 0
 417 01c4 67800000 		jr	ra
 418              		.cfi_endproc
 419              	.LFE13:
 421              		.align	2
 422              		.globl	_ZN6Thread5startEv
 424              	_ZN6Thread5startEv:
 425              	.LFB14:
  37:src/syscall_cpp.cpp ****     thread_create(&myHandle, body, arg);
 426              		.loc 2 37 20 is_stmt 1
 427              		.cfi_startproc
 428              	.LVL23:
 429 01c8 130101FF 		addi	sp,sp,-16
 430              		.cfi_def_cfa_offset 16
 431 01cc 23341100 		sd	ra,8(sp)
 432 01d0 23308100 		sd	s0,0(sp)
 433              		.cfi_offset 1, -8
 434              		.cfi_offset 8, -16
 435 01d4 13040101 		addi	s0,sp,16
 436              		.cfi_def_cfa 8, 0
  38:src/syscall_cpp.cpp ****     return 0;
GAS LISTING /tmp/cc170L1Z.s 			page 11


 437              		.loc 2 38 5
  38:src/syscall_cpp.cpp ****     return 0;
 438              		.loc 2 38 18 is_stmt 0
 439 01d8 03368501 		ld	a2,24(a0)
 440 01dc 83350501 		ld	a1,16(a0)
 441 01e0 13058500 		addi	a0,a0,8
 442              	.LVL24:
 443 01e4 97000000 		call	_Z13thread_createPP3TCBPFvPvES2_@plt
 443      E7800000 
 444              	.LVL25:
  39:src/syscall_cpp.cpp **** }
 445              		.loc 2 39 5 is_stmt 1
  40:src/syscall_cpp.cpp **** 
 446              		.loc 2 40 1 is_stmt 0
 447 01ec 13050000 		li	a0,0
 448 01f0 83308100 		ld	ra,8(sp)
 449              		.cfi_restore 1
 450 01f4 03340100 		ld	s0,0(sp)
 451              		.cfi_restore 8
 452              		.cfi_def_cfa 2, 16
 453 01f8 13010101 		addi	sp,sp,16
 454              		.cfi_def_cfa_offset 0
 455 01fc 67800000 		jr	ra
 456              		.cfi_endproc
 457              	.LFE14:
 459              		.align	2
 460              		.globl	_ZN6Thread10wrapperRunEPv
 462              	_ZN6Thread10wrapperRunEPv:
 463              	.LFB15:
  42:src/syscall_cpp.cpp ****     if(pt != nullptr) ((Thread*)pt)->run();
 464              		.loc 2 42 34 is_stmt 1
 465              		.cfi_startproc
 466              	.LVL26:
  43:src/syscall_cpp.cpp ****     else return;
 467              		.loc 2 43 5
 468 0200 63080502 		beqz	a0,.L30
  42:src/syscall_cpp.cpp ****     if(pt != nullptr) ((Thread*)pt)->run();
 469              		.loc 2 42 34 is_stmt 0 discriminator 1
 470 0204 130101FF 		addi	sp,sp,-16
 471              		.cfi_def_cfa_offset 16
 472 0208 23341100 		sd	ra,8(sp)
 473 020c 23308100 		sd	s0,0(sp)
 474              		.cfi_offset 1, -8
 475              		.cfi_offset 8, -16
 476 0210 13040101 		addi	s0,sp,16
 477              		.cfi_def_cfa 8, 0
  43:src/syscall_cpp.cpp ****     else return;
 478              		.loc 2 43 23 is_stmt 1 discriminator 1
  43:src/syscall_cpp.cpp ****     else return;
 479              		.loc 2 43 42 is_stmt 0 discriminator 1
 480 0214 83370500 		ld	a5,0(a0)
 481 0218 83B70701 		ld	a5,16(a5)
  43:src/syscall_cpp.cpp ****     else return;
 482              		.loc 2 43 41 discriminator 1
 483 021c E7800700 		jalr	a5
 484              	.LVL27:
  46:src/syscall_cpp.cpp **** 
GAS LISTING /tmp/cc170L1Z.s 			page 12


 485              		.loc 2 46 1 discriminator 1
 486 0220 83308100 		ld	ra,8(sp)
 487              		.cfi_restore 1
 488 0224 03340100 		ld	s0,0(sp)
 489              		.cfi_restore 8
 490              		.cfi_def_cfa 2, 16
 491 0228 13010101 		addi	sp,sp,16
 492              		.cfi_def_cfa_offset 0
 493 022c 67800000 		jr	ra
 494              	.LVL28:
 495              	.L30:
 496 0230 67800000 		ret
 497              		.cfi_endproc
 498              	.LFE15:
 500              		.align	2
 501              		.globl	_ZN6ThreadC2Ev
 503              	_ZN6ThreadC2Ev:
 504              	.LFB17:
  48:src/syscall_cpp.cpp ****     this->body = nullptr;
 505              		.loc 2 48 1 is_stmt 1
 506              		.cfi_startproc
 507              	.LVL29:
 508 0234 130101FF 		addi	sp,sp,-16
 509              		.cfi_def_cfa_offset 16
 510 0238 23348100 		sd	s0,8(sp)
 511              		.cfi_offset 8, -8
 512 023c 13040101 		addi	s0,sp,16
 513              		.cfi_def_cfa 8, 0
 514              	.LBB4:
  48:src/syscall_cpp.cpp ****     this->body = nullptr;
 515              		.loc 2 48 16 is_stmt 0
 516 0240 97070000 		lla	a5,_ZTV6Thread+16
 516      93870700 
 517 0248 2330F500 		sd	a5,0(a0)
  49:src/syscall_cpp.cpp ****     this->arg = nullptr;
 518              		.loc 2 49 5 is_stmt 1
  49:src/syscall_cpp.cpp ****     this->arg = nullptr;
 519              		.loc 2 49 16 is_stmt 0
 520 024c 23380500 		sd	zero,16(a0)
  50:src/syscall_cpp.cpp ****  }
 521              		.loc 2 50 5 is_stmt 1
  50:src/syscall_cpp.cpp ****  }
 522              		.loc 2 50 15 is_stmt 0
 523 0250 233C0500 		sd	zero,24(a0)
 524              	.LBE4:
  51:src/syscall_cpp.cpp **** 
 525              		.loc 2 51 2
 526 0254 03348100 		ld	s0,8(sp)
 527              		.cfi_restore 8
 528              		.cfi_def_cfa 2, 16
 529 0258 13010101 		addi	sp,sp,16
 530              		.cfi_def_cfa_offset 0
 531 025c 67800000 		jr	ra
 532              		.cfi_endproc
 533              	.LFE17:
 535              		.globl	_ZN6ThreadC1Ev
 536              		.set	_ZN6ThreadC1Ev,_ZN6ThreadC2Ev
GAS LISTING /tmp/cc170L1Z.s 			page 13


 537              		.align	2
 538              		.globl	_ZN9SemaphoreC2Ej
 540              	_ZN9SemaphoreC2Ej:
 541              	.LFB20:
  56:src/syscall_cpp.cpp ****     sem_open(&myHandle, init);
 542              		.loc 2 56 1 is_stmt 1
 543              		.cfi_startproc
 544              	.LVL30:
 545 0260 130101FF 		addi	sp,sp,-16
 546              		.cfi_def_cfa_offset 16
 547 0264 23341100 		sd	ra,8(sp)
 548 0268 23308100 		sd	s0,0(sp)
 549              		.cfi_offset 1, -8
 550              		.cfi_offset 8, -16
 551 026c 13040101 		addi	s0,sp,16
 552              		.cfi_def_cfa 8, 0
 553              	.LBB5:
  56:src/syscall_cpp.cpp ****     sem_open(&myHandle, init);
 554              		.loc 2 56 39 is_stmt 0
 555 0270 97070000 		lla	a5,_ZTV9Semaphore+16
 555      93870700 
 556 0278 2330F500 		sd	a5,0(a0)
  57:src/syscall_cpp.cpp **** }
 557              		.loc 2 57 5 is_stmt 1
  57:src/syscall_cpp.cpp **** }
 558              		.loc 2 57 13 is_stmt 0
 559 027c 13058500 		addi	a0,a0,8
 560              	.LVL31:
 561 0280 97000000 		call	_Z8sem_openPP4_semj@plt
 561      E7800000 
 562              	.LVL32:
 563              	.LBE5:
  58:src/syscall_cpp.cpp **** 
 564              		.loc 2 58 1
 565 0288 83308100 		ld	ra,8(sp)
 566              		.cfi_restore 1
 567 028c 03340100 		ld	s0,0(sp)
 568              		.cfi_restore 8
 569              		.cfi_def_cfa 2, 16
 570 0290 13010101 		addi	sp,sp,16
 571              		.cfi_def_cfa_offset 0
 572 0294 67800000 		jr	ra
 573              		.cfi_endproc
 574              	.LFE20:
 576              		.globl	_ZN9SemaphoreC1Ej
 577              		.set	_ZN9SemaphoreC1Ej,_ZN9SemaphoreC2Ej
 578              		.align	2
 579              		.globl	_ZN9Semaphore6signalEv
 581              	_ZN9Semaphore6signalEv:
 582              	.LFB22:
  60:src/syscall_cpp.cpp ****     if (myHandle == nullptr) {
 583              		.loc 2 60 24 is_stmt 1
 584              		.cfi_startproc
 585              	.LVL33:
  61:src/syscall_cpp.cpp ****         return -1;
 586              		.loc 2 61 5
  61:src/syscall_cpp.cpp ****         return -1;
GAS LISTING /tmp/cc170L1Z.s 			page 14


 587              		.loc 2 61 9 is_stmt 0
 588 0298 03358500 		ld	a0,8(a0)
 589              	.LVL34:
  61:src/syscall_cpp.cpp ****         return -1;
 590              		.loc 2 61 5
 591 029c 63060502 		beqz	a0,.L39
  60:src/syscall_cpp.cpp ****     if (myHandle == nullptr) {
 592              		.loc 2 60 24
 593 02a0 130101FF 		addi	sp,sp,-16
 594              		.cfi_def_cfa_offset 16
 595 02a4 23341100 		sd	ra,8(sp)
 596 02a8 23308100 		sd	s0,0(sp)
 597              		.cfi_offset 1, -8
 598              		.cfi_offset 8, -16
 599 02ac 13040101 		addi	s0,sp,16
 600              		.cfi_def_cfa 8, 0
  64:src/syscall_cpp.cpp **** }
 601              		.loc 2 64 5 is_stmt 1
  64:src/syscall_cpp.cpp **** }
 602              		.loc 2 64 22 is_stmt 0
 603 02b0 97000000 		call	_Z10sem_signalP4_sem@plt
 603      E7800000 
 604              	.LVL35:
  65:src/syscall_cpp.cpp **** 
 605              		.loc 2 65 1
 606 02b8 83308100 		ld	ra,8(sp)
 607              		.cfi_restore 1
 608 02bc 03340100 		ld	s0,0(sp)
 609              		.cfi_restore 8
 610              		.cfi_def_cfa 2, 16
 611 02c0 13010101 		addi	sp,sp,16
 612              		.cfi_def_cfa_offset 0
 613 02c4 67800000 		jr	ra
 614              	.L39:
  62:src/syscall_cpp.cpp ****     }
 615              		.loc 2 62 17
 616 02c8 1305F0FF 		li	a0,-1
  65:src/syscall_cpp.cpp **** 
 617              		.loc 2 65 1
 618 02cc 67800000 		ret
 619              		.cfi_endproc
 620              	.LFE22:
 622              		.align	2
 623              		.globl	_ZN9Semaphore4waitEv
 625              	_ZN9Semaphore4waitEv:
 626              	.LFB23:
  67:src/syscall_cpp.cpp ****     if (myHandle == nullptr) {
 627              		.loc 2 67 22 is_stmt 1
 628              		.cfi_startproc
 629              	.LVL36:
  68:src/syscall_cpp.cpp ****         return -1;
 630              		.loc 2 68 5
  68:src/syscall_cpp.cpp ****         return -1;
 631              		.loc 2 68 9 is_stmt 0
 632 02d0 03358500 		ld	a0,8(a0)
 633              	.LVL37:
  68:src/syscall_cpp.cpp ****         return -1;
GAS LISTING /tmp/cc170L1Z.s 			page 15


 634              		.loc 2 68 5
 635 02d4 63060502 		beqz	a0,.L46
  67:src/syscall_cpp.cpp ****     if (myHandle == nullptr) {
 636              		.loc 2 67 22
 637 02d8 130101FF 		addi	sp,sp,-16
 638              		.cfi_def_cfa_offset 16
 639 02dc 23341100 		sd	ra,8(sp)
 640 02e0 23308100 		sd	s0,0(sp)
 641              		.cfi_offset 1, -8
 642              		.cfi_offset 8, -16
 643 02e4 13040101 		addi	s0,sp,16
 644              		.cfi_def_cfa 8, 0
  71:src/syscall_cpp.cpp **** }
 645              		.loc 2 71 5 is_stmt 1
  71:src/syscall_cpp.cpp **** }
 646              		.loc 2 71 20 is_stmt 0
 647 02e8 97000000 		call	_Z8sem_waitP4_sem@plt
 647      E7800000 
 648              	.LVL38:
  72:src/syscall_cpp.cpp **** int Semaphore::trywait(){
 649              		.loc 2 72 1
 650 02f0 83308100 		ld	ra,8(sp)
 651              		.cfi_restore 1
 652 02f4 03340100 		ld	s0,0(sp)
 653              		.cfi_restore 8
 654              		.cfi_def_cfa 2, 16
 655 02f8 13010101 		addi	sp,sp,16
 656              		.cfi_def_cfa_offset 0
 657 02fc 67800000 		jr	ra
 658              	.L46:
  69:src/syscall_cpp.cpp ****     }
 659              		.loc 2 69 17
 660 0300 1305F0FF 		li	a0,-1
  72:src/syscall_cpp.cpp **** int Semaphore::trywait(){
 661              		.loc 2 72 1
 662 0304 67800000 		ret
 663              		.cfi_endproc
 664              	.LFE23:
 666              		.align	2
 667              		.globl	_ZN9Semaphore7trywaitEv
 669              	_ZN9Semaphore7trywaitEv:
 670              	.LFB24:
  73:src/syscall_cpp.cpp ****     if (myHandle == nullptr) {
 671              		.loc 2 73 25 is_stmt 1
 672              		.cfi_startproc
 673              	.LVL39:
  74:src/syscall_cpp.cpp ****         return -1;
 674              		.loc 2 74 5
  74:src/syscall_cpp.cpp ****         return -1;
 675              		.loc 2 74 9 is_stmt 0
 676 0308 03358500 		ld	a0,8(a0)
 677              	.LVL40:
  74:src/syscall_cpp.cpp ****         return -1;
 678              		.loc 2 74 5
 679 030c 63060502 		beqz	a0,.L53
  73:src/syscall_cpp.cpp ****     if (myHandle == nullptr) {
 680              		.loc 2 73 25
GAS LISTING /tmp/cc170L1Z.s 			page 16


 681 0310 130101FF 		addi	sp,sp,-16
 682              		.cfi_def_cfa_offset 16
 683 0314 23341100 		sd	ra,8(sp)
 684 0318 23308100 		sd	s0,0(sp)
 685              		.cfi_offset 1, -8
 686              		.cfi_offset 8, -16
 687 031c 13040101 		addi	s0,sp,16
 688              		.cfi_def_cfa 8, 0
  77:src/syscall_cpp.cpp **** }
 689              		.loc 2 77 5 is_stmt 1
  77:src/syscall_cpp.cpp **** }
 690              		.loc 2 77 23 is_stmt 0
 691 0320 97000000 		call	_Z11sem_trywaitP4_sem@plt
 691      E7800000 
 692              	.LVL41:
  78:src/syscall_cpp.cpp **** Semaphore::~Semaphore(){
 693              		.loc 2 78 1
 694 0328 83308100 		ld	ra,8(sp)
 695              		.cfi_restore 1
 696 032c 03340100 		ld	s0,0(sp)
 697              		.cfi_restore 8
 698              		.cfi_def_cfa 2, 16
 699 0330 13010101 		addi	sp,sp,16
 700              		.cfi_def_cfa_offset 0
 701 0334 67800000 		jr	ra
 702              	.L53:
  75:src/syscall_cpp.cpp ****     }
 703              		.loc 2 75 17
 704 0338 1305F0FF 		li	a0,-1
  78:src/syscall_cpp.cpp **** Semaphore::~Semaphore(){
 705              		.loc 2 78 1
 706 033c 67800000 		ret
 707              		.cfi_endproc
 708              	.LFE24:
 710              		.align	2
 711              		.globl	_ZN7Console4getcEv
 713              	_ZN7Console4getcEv:
 714              	.LFB29:
  82:src/syscall_cpp.cpp **** 
  83:src/syscall_cpp.cpp **** 
  84:src/syscall_cpp.cpp **** 
  85:src/syscall_cpp.cpp **** char Console::getc() {
 715              		.loc 2 85 22 is_stmt 1
 716              		.cfi_startproc
 717 0340 130101FF 		addi	sp,sp,-16
 718              		.cfi_def_cfa_offset 16
 719 0344 23341100 		sd	ra,8(sp)
 720 0348 23308100 		sd	s0,0(sp)
 721              		.cfi_offset 1, -8
 722              		.cfi_offset 8, -16
 723 034c 13040101 		addi	s0,sp,16
 724              		.cfi_def_cfa 8, 0
  86:src/syscall_cpp.cpp ****     return ::getc();
 725              		.loc 2 86 5
 726              		.loc 2 86 18 is_stmt 0
 727 0350 97000000 		call	_Z4getcv@plt
 727      E7800000 
GAS LISTING /tmp/cc170L1Z.s 			page 17


 728              	.LVL42:
  87:src/syscall_cpp.cpp **** }
 729              		.loc 2 87 1
 730 0358 83308100 		ld	ra,8(sp)
 731              		.cfi_restore 1
 732 035c 03340100 		ld	s0,0(sp)
 733              		.cfi_restore 8
 734              		.cfi_def_cfa 2, 16
 735 0360 13010101 		addi	sp,sp,16
 736              		.cfi_def_cfa_offset 0
 737 0364 67800000 		jr	ra
 738              		.cfi_endproc
 739              	.LFE29:
 741              		.align	2
 742              		.globl	_ZN7Console4putcEc
 744              	_ZN7Console4putcEc:
 745              	.LFB30:
  88:src/syscall_cpp.cpp **** void Console::putc(char c) {
 746              		.loc 2 88 28 is_stmt 1
 747              		.cfi_startproc
 748              	.LVL43:
 749 0368 130101FF 		addi	sp,sp,-16
 750              		.cfi_def_cfa_offset 16
 751 036c 23341100 		sd	ra,8(sp)
 752 0370 23308100 		sd	s0,0(sp)
 753              		.cfi_offset 1, -8
 754              		.cfi_offset 8, -16
 755 0374 13040101 		addi	s0,sp,16
 756              		.cfi_def_cfa 8, 0
  89:src/syscall_cpp.cpp ****     ::putc(c);
 757              		.loc 2 89 5
 758              		.loc 2 89 11 is_stmt 0
 759 0378 97000000 		call	_Z4putcc@plt
 759      E7800000 
 760              	.LVL44:
  90:src/syscall_cpp.cpp **** }...
 761              		.loc 2 90 1
 762 0380 83308100 		ld	ra,8(sp)
 763              		.cfi_restore 1
 764 0384 03340100 		ld	s0,0(sp)
 765              		.cfi_restore 8
 766              		.cfi_def_cfa 2, 16
 767 0388 13010101 		addi	sp,sp,16
 768              		.cfi_def_cfa_offset 0
 769 038c 67800000 		jr	ra
 770              		.cfi_endproc
 771              	.LFE30:
 773              		.weak	_ZTV6Thread
 774              		.section	.data.rel.ro.local._ZTV6Thread,"awG",@progbits,_ZTV6Thread,comdat
 775              		.align	3
 778              	_ZTV6Thread:
 779 0000 00000000 		.dword	0
 779      00000000 
 780 0008 00000000 		.dword	0
 780      00000000 
 781 0010 00000000 		.dword	_ZN6ThreadD1Ev
 781      00000000 
GAS LISTING /tmp/cc170L1Z.s 			page 18


 782 0018 00000000 		.dword	_ZN6ThreadD0Ev
 782      00000000 
 783 0020 00000000 		.dword	_ZN6Thread3runEv
 783      00000000 
 784              		.weak	_ZTV9Semaphore
 785              		.section	.data.rel.ro.local._ZTV9Semaphore,"awG",@progbits,_ZTV9Semaphore,comdat
 786              		.align	3
 789              	_ZTV9Semaphore:
 790 0000 00000000 		.dword	0
 790      00000000 
 791 0008 00000000 		.dword	0
 791      00000000 
 792 0010 00000000 		.dword	_ZN9SemaphoreD1Ev
 792      00000000 
 793 0018 00000000 		.dword	_ZN9SemaphoreD0Ev
 793      00000000 
 794              		.text
 795              	.Letext0:
 796              		.file 3 "src/../h/../lib/hw.h"
 797              		.file 4 "src/../h/syscall_c.hpp"
 798              		.file 5 "src/../h/../src/../h/MemoryAllocator.hpp"
 3376              		.align	3
 3379              	DW.ref.__gxx_personality_v0:
 3380 0000 00000000 		.dword	__gxx_personality_v0
 3380      00000000 
 3381              		.ident	"GCC: (Ubuntu 9.4.0-1ubuntu1~20.04) 9.4.0"
 3382              		.section	.note.GNU-stack,"",@progbits
GAS LISTING /tmp/cc170L1Z.s 			page 19

