GAS LISTING /tmp/ccPUJK6q.s 			page 1


   1              		.file	"TCB.cpp"
   2              		.option pic
   3              		.option norelax
   4              		.text
   5              	.Ltext0:
   6              		.align	2
   7              		.globl	_ZN3TCB14thread_wrapperEv
   9              	_ZN3TCB14thread_wrapperEv:
  10              	.LFB49:
  11              		.file 1 "src/TCB.cpp"
   1:src/TCB.cpp   **** #include "../lib/hw.h"
   2:src/TCB.cpp   **** #include "../lib/mem.h"
   3:src/TCB.cpp   **** #include "../h/TCB.hpp"
   4:src/TCB.cpp   **** #include "../h/riscv.hpp"
   5:src/TCB.cpp   **** #include "../h/scheduler.hpp"
   6:src/TCB.cpp   **** #include "../test/printing.hpp"
   7:src/TCB.cpp   **** #include "../h/_sem.hpp"
   8:src/TCB.cpp   **** 
   9:src/TCB.cpp   **** TCB *TCB::running = nullptr;
  10:src/TCB.cpp   **** long TCB::max_threads = 0x7FFFFFFF;
  11:src/TCB.cpp   **** _sem *TCB::max_sem = nullptr;
  12:src/TCB.cpp   **** 
  13:src/TCB.cpp   **** void TCB::yield() {
  14:src/TCB.cpp   ****     Riscv::pushRegisters();
  15:src/TCB.cpp   ****     TCB::dispatch();
  16:src/TCB.cpp   ****     Riscv::popRegisters();
  17:src/TCB.cpp   **** }
  18:src/TCB.cpp   **** 
  19:src/TCB.cpp   **** void TCB::dispatch() { //promena konteksta, trenutnu zavrsenu zameni nekom drugom
  20:src/TCB.cpp   ****     TCB *old = running;
  21:src/TCB.cpp   ****     if (old != nullptr && !old->isFinished() && !old->isBlocked()) {
  22:src/TCB.cpp   ****         Scheduler::put(old);
  23:src/TCB.cpp   ****     }
  24:src/TCB.cpp   ****     running = Scheduler::get();
  25:src/TCB.cpp   ****     TCB::contextSwitch(&old->context, &running->context);
  26:src/TCB.cpp   **** }
  27:src/TCB.cpp   **** 
  28:src/TCB.cpp   **** 
  29:src/TCB.cpp   **** TCB::TCB(Body body, void *arg, void *stack_space) : body(body), arg(arg), finished(false),
  30:src/TCB.cpp   ****                                                     blocked(false) {// da li moze drugacije
  31:src/TCB.cpp   ****     if (stack_space) {
  32:src/TCB.cpp   ****         stack = static_cast<uint64 *>(stack_space);
  33:src/TCB.cpp   ****     } else {
  34:src/TCB.cpp   ****         size_t stack_size_in_blocks = (DEFAULT_STACK_SIZE * sizeof(uint64) + MEM_BLOCK_SIZE - 1) / 
  35:src/TCB.cpp   ****         stack = static_cast<uint64 *>(MemoryAllocator::mem_alloc(stack_size_in_blocks * MEM_BLOCK_S
  36:src/TCB.cpp   ****     }
  37:src/TCB.cpp   ****     if (body) {
  38:src/TCB.cpp   ****         Scheduler::put(this);
  39:src/TCB.cpp   ****         running->children.addLast(this);
  40:src/TCB.cpp   ****     } else {
  41:src/TCB.cpp   ****         TCB::running = this;
  42:src/TCB.cpp   ****         _sem::sem_open(&max_sem, max_threads);
  43:src/TCB.cpp   ****     }
  44:src/TCB.cpp   ****     this->message_box = nullptr;
  45:src/TCB.cpp   ****     _sem::sem_open(&this->box_empty, 1);
  46:src/TCB.cpp   ****     _sem::sem_open(&this->box_full, 0);
  47:src/TCB.cpp   ****     sem_open(&this->joiner, 0);
GAS LISTING /tmp/ccPUJK6q.s 			page 2


  48:src/TCB.cpp   ****     context.ra = (uint64) &thread_wrapper;
  49:src/TCB.cpp   ****     context.sp = (uint64) ((char *) stack + DEFAULT_STACK_SIZE - 1);
  50:src/TCB.cpp   **** }
  51:src/TCB.cpp   **** 
  52:src/TCB.cpp   **** int TCB::createThread(thread_t *handle, Body body, void *arg, void *stack_space) {
  53:src/TCB.cpp   ****     if (!handle) {
  54:src/TCB.cpp   ****         return -1;
  55:src/TCB.cpp   ****     }
  56:src/TCB.cpp   ****     TCB *new_thread = new TCB(body, arg, stack_space); //drugi konstruktor da li imati odma samo je
  57:src/TCB.cpp   ****     *handle = new_thread;
  58:src/TCB.cpp   ****     return 0;
  59:src/TCB.cpp   **** }
  60:src/TCB.cpp   **** 
  61:src/TCB.cpp   **** int TCB::thread_exit() { // da li treba jos nesto
  62:src/TCB.cpp   ****     if (running == nullptr) {
  63:src/TCB.cpp   ****         return -1;
  64:src/TCB.cpp   ****     }
  65:src/TCB.cpp   ****     running->setFinished(true);
  66:src/TCB.cpp   ****     MemoryAllocator::mem_free(running->stack);
  67:src/TCB.cpp   ****     _sem::sem_close(running->joiner);
  68:src/TCB.cpp   ****     _sem::sem_signal(max_sem);
  69:src/TCB.cpp   ****     TCB::dispatch();
  70:src/TCB.cpp   ****     return 0;
  71:src/TCB.cpp   **** }
  72:src/TCB.cpp   **** 
  73:src/TCB.cpp   **** void TCB::thread_wrapper() {
  12              		.loc 1 73 28
  13              		.cfi_startproc
  14 0000 130101FE 		addi	sp,sp,-32
  15              		.cfi_def_cfa_offset 32
  16 0004 233C1100 		sd	ra,24(sp)
  17 0008 23388100 		sd	s0,16(sp)
  18 000c 23349100 		sd	s1,8(sp)
  19              		.cfi_offset 1, -8
  20              		.cfi_offset 8, -16
  21              		.cfi_offset 9, -24
  22 0010 13040102 		addi	s0,sp,32
  23              		.cfi_def_cfa 8, 0
  74:src/TCB.cpp   ****     Riscv::popSppSpie();
  24              		.loc 1 74 5
  25              		.loc 1 74 22 is_stmt 0
  26 0014 97000000 		call	_ZN5Riscv10popSppSpieEv@plt
  26      E7800000 
  27              	.LVL0:
  75:src/TCB.cpp   ****     sem_wait(max_sem);
  28              		.loc 1 75 5 is_stmt 1
  29              		.loc 1 75 13 is_stmt 0
  30 001c 97040000 		lla	s1,.LANCHOR0
  30      93840400 
  31 0024 03B50400 		ld	a0,0(s1)
  32 0028 97000000 		call	_Z8sem_waitP4_sem@plt
  32      E7800000 
  33              	.LVL1:
  76:src/TCB.cpp   ****     running->body(running->arg);
  34              		.loc 1 76 5 is_stmt 1
  35              		.loc 1 76 14 is_stmt 0
  36 0030 83B78400 		ld	a5,8(s1)
GAS LISTING /tmp/ccPUJK6q.s 			page 3


  37 0034 03B70701 		ld	a4,16(a5)
  38              		.loc 1 76 18
  39 0038 03B58701 		ld	a0,24(a5)
  40 003c E7000700 		jalr	a4
  41              	.LVL2:
  77:src/TCB.cpp   ****     ::thread_exit();
  42              		.loc 1 77 5 is_stmt 1
  43              		.loc 1 77 18 is_stmt 0
  44 0040 97000000 		call	_Z11thread_exitv@plt
  44      E7800000 
  45              	.LVL3:
  78:src/TCB.cpp   **** }
  46              		.loc 1 78 1
  47 0048 83308101 		ld	ra,24(sp)
  48              		.cfi_restore 1
  49 004c 03340101 		ld	s0,16(sp)
  50              		.cfi_restore 8
  51              		.cfi_def_cfa 2, 32
  52 0050 83348100 		ld	s1,8(sp)
  53              		.cfi_restore 9
  54 0054 13010102 		addi	sp,sp,32
  55              		.cfi_def_cfa_offset 0
  56 0058 67800000 		jr	ra
  57              		.cfi_endproc
  58              	.LFE49:
  60              		.align	2
  61              		.globl	_ZN3TCB8dispatchEv
  63              	_ZN3TCB8dispatchEv:
  64              	.LFB43:
  19:src/TCB.cpp   ****     TCB *old = running;
  65              		.loc 1 19 22 is_stmt 1
  66              		.cfi_startproc
  67 005c 130101FE 		addi	sp,sp,-32
  68              		.cfi_def_cfa_offset 32
  69 0060 233C1100 		sd	ra,24(sp)
  70 0064 23388100 		sd	s0,16(sp)
  71 0068 23349100 		sd	s1,8(sp)
  72              		.cfi_offset 1, -8
  73              		.cfi_offset 8, -16
  74              		.cfi_offset 9, -24
  75 006c 13040102 		addi	s0,sp,32
  76              		.cfi_def_cfa 8, 0
  20:src/TCB.cpp   ****     if (old != nullptr && !old->isFinished() && !old->isBlocked()) {
  77              		.loc 1 20 5
  20:src/TCB.cpp   ****     if (old != nullptr && !old->isFinished() && !old->isBlocked()) {
  78              		.loc 1 20 10 is_stmt 0
  79 0070 97040000 		ld	s1,.LANCHOR0+8
  79      83B40400 
  80              	.LVL4:
  21:src/TCB.cpp   ****         Scheduler::put(old);
  81              		.loc 1 21 5 is_stmt 1
  21:src/TCB.cpp   ****         Scheduler::put(old);
  82              		.loc 1 21 46 is_stmt 0
  83 0078 638A0400 		beqz	s1,.L4
  84              	.LVL5:
  85              	.LBB25:
  86              	.LBB26:
GAS LISTING /tmp/ccPUJK6q.s 			page 4


  87              		.file 2 "src/../h/TCB.hpp"
   1:src/../h/TCB.hpp **** //
   2:src/../h/TCB.hpp **** // Created by os on 9/13/24.
   3:src/../h/TCB.hpp **** //
   4:src/../h/TCB.hpp **** 
   5:src/../h/TCB.hpp **** #ifndef TCB_HPP
   6:src/../h/TCB.hpp **** #define TCB_HPP
   7:src/../h/TCB.hpp **** 
   8:src/../h/TCB.hpp **** #include "../lib/hw.h"
   9:src/../h/TCB.hpp **** #include "scheduler.hpp"
  10:src/../h/TCB.hpp **** #include "../h/riscv.hpp"
  11:src/../h/TCB.hpp **** #include "../lib/mem.h"
  12:src/../h/TCB.hpp **** #include "syscall_c.hpp"
  13:src/../h/TCB.hpp **** #include "../h/list.hpp"
  14:src/../h/TCB.hpp **** #include "syscall_cpp.hpp"
  15:src/../h/TCB.hpp **** 
  16:src/../h/TCB.hpp **** class TCB {
  17:src/../h/TCB.hpp **** public:
  18:src/../h/TCB.hpp ****     using Body = void (*)(void *);
  19:src/../h/TCB.hpp **** 
  20:src/../h/TCB.hpp ****     bool isFinished() const { return finished; }
  88              		.loc 2 20 31 is_stmt 1
  89              		.loc 2 20 38 is_stmt 0
  90 007c 83C78403 		lbu	a5,56(s1)
  91              	.LVL6:
  92              	.LBE26:
  93              	.LBE25:
  21:src/TCB.cpp   ****         Scheduler::put(old);
  94              		.loc 1 21 24
  95 0080 63960700 		bnez	a5,.L4
  96              	.LVL7:
  97              	.LBB27:
  98              	.LBB28:
  21:src/../h/TCB.hpp **** 
  22:src/../h/TCB.hpp ****     void setFinished(bool value) { finished = value; }
  23:src/../h/TCB.hpp **** 
  24:src/../h/TCB.hpp ****     bool isBlocked() const { return blocked; }
  99              		.loc 2 24 30 is_stmt 1
 100              		.loc 2 24 37 is_stmt 0
 101 0084 83C79403 		lbu	a5,57(s1)
 102              	.LVL8:
 103              	.LBE28:
 104              	.LBE27:
  21:src/TCB.cpp   ****         Scheduler::put(old);
 105              		.loc 1 21 46
 106 0088 638C0702 		beqz	a5,.L6
 107              	.L4:
  24:src/TCB.cpp   ****     TCB::contextSwitch(&old->context, &running->context);
 108              		.loc 1 24 5 is_stmt 1
  24:src/TCB.cpp   ****     TCB::contextSwitch(&old->context, &running->context);
 109              		.loc 1 24 29 is_stmt 0
 110 008c 97000000 		call	_ZN9Scheduler3getEv@plt
 110      E7800000 
 111              	.LVL9:
  24:src/TCB.cpp   ****     TCB::contextSwitch(&old->context, &running->context);
 112              		.loc 1 24 13
 113 0094 97070000 		sd	a0,.LANCHOR0+8,a5
GAS LISTING /tmp/ccPUJK6q.s 			page 5


 113      23B0A700 
  25:src/TCB.cpp   **** }
 114              		.loc 1 25 5 is_stmt 1
  25:src/TCB.cpp   **** }
 115              		.loc 1 25 23 is_stmt 0
 116 009c 93058502 		addi	a1,a0,40
 117 00a0 13858402 		addi	a0,s1,40
 118 00a4 97000000 		call	_ZN3TCB13contextSwitchEPNS_7ContextES1_@plt
 118      E7800000 
 119              	.LVL10:
  26:src/TCB.cpp   **** 
 120              		.loc 1 26 1
 121 00ac 83308101 		ld	ra,24(sp)
 122              		.cfi_remember_state
 123              		.cfi_restore 1
 124 00b0 03340101 		ld	s0,16(sp)
 125              		.cfi_restore 8
 126              		.cfi_def_cfa 2, 32
 127 00b4 83348100 		ld	s1,8(sp)
 128              		.cfi_restore 9
 129              	.LVL11:
 130 00b8 13010102 		addi	sp,sp,32
 131              		.cfi_def_cfa_offset 0
 132 00bc 67800000 		jr	ra
 133              	.LVL12:
 134              	.L6:
 135              		.cfi_restore_state
  22:src/TCB.cpp   ****     }
 136              		.loc 1 22 9 is_stmt 1
  22:src/TCB.cpp   ****     }
 137              		.loc 1 22 23 is_stmt 0
 138 00c0 13850400 		mv	a0,s1
 139 00c4 97000000 		call	_ZN9Scheduler3putEP3TCB@plt
 139      E7800000 
 140              	.LVL13:
 141 00cc 6FF01FFC 		j	.L4
 142              		.cfi_endproc
 143              	.LFE43:
 145              		.align	2
 146              		.globl	_ZN3TCB5yieldEv
 148              	_ZN3TCB5yieldEv:
 149              	.LFB42:
  13:src/TCB.cpp   ****     Riscv::pushRegisters();
 150              		.loc 1 13 19 is_stmt 1
 151              		.cfi_startproc
 152 00d0 130101FF 		addi	sp,sp,-16
 153              		.cfi_def_cfa_offset 16
 154 00d4 23341100 		sd	ra,8(sp)
 155 00d8 23308100 		sd	s0,0(sp)
 156              		.cfi_offset 1, -8
 157              		.cfi_offset 8, -16
 158 00dc 13040101 		addi	s0,sp,16
 159              		.cfi_def_cfa 8, 0
  14:src/TCB.cpp   ****     TCB::dispatch();
 160              		.loc 1 14 5
  14:src/TCB.cpp   ****     TCB::dispatch();
 161              		.loc 1 14 25 is_stmt 0
GAS LISTING /tmp/ccPUJK6q.s 			page 6


 162 00e0 97000000 		call	_ZN5Riscv13pushRegistersEv@plt
 162      E7800000 
 163              	.LVL14:
  15:src/TCB.cpp   ****     Riscv::popRegisters();
 164              		.loc 1 15 5 is_stmt 1
  15:src/TCB.cpp   ****     Riscv::popRegisters();
 165              		.loc 1 15 18 is_stmt 0
 166 00e8 97000000 		call	_ZN3TCB8dispatchEv
 166      E7800000 
 167              	.LVL15:
  16:src/TCB.cpp   **** }
 168              		.loc 1 16 5 is_stmt 1
  16:src/TCB.cpp   **** }
 169              		.loc 1 16 24 is_stmt 0
 170 00f0 97000000 		call	_ZN5Riscv12popRegistersEv@plt
 170      E7800000 
 171              	.LVL16:
  17:src/TCB.cpp   **** 
 172              		.loc 1 17 1
 173 00f8 83308100 		ld	ra,8(sp)
 174              		.cfi_restore 1
 175 00fc 03340100 		ld	s0,0(sp)
 176              		.cfi_restore 8
 177              		.cfi_def_cfa 2, 16
 178 0100 13010101 		addi	sp,sp,16
 179              		.cfi_def_cfa_offset 0
 180 0104 67800000 		jr	ra
 181              		.cfi_endproc
 182              	.LFE42:
 184              		.align	2
 185              		.globl	_ZN3TCBC2EPFvPvES0_S0_
 187              	_ZN3TCBC2EPFvPvES0_S0_:
 188              	.LFB45:
  29:src/TCB.cpp   ****                                                     blocked(false) {// da li moze drugacije
 189              		.loc 1 29 1 is_stmt 1
 190              		.cfi_startproc
 191              	.LVL17:
 192 0108 130101FE 		addi	sp,sp,-32
 193              		.cfi_def_cfa_offset 32
 194 010c 233C1100 		sd	ra,24(sp)
 195 0110 23388100 		sd	s0,16(sp)
 196 0114 23349100 		sd	s1,8(sp)
 197 0118 23302101 		sd	s2,0(sp)
 198              		.cfi_offset 1, -8
 199              		.cfi_offset 8, -16
 200              		.cfi_offset 9, -24
 201              		.cfi_offset 18, -32
 202 011c 13040102 		addi	s0,sp,32
 203              		.cfi_def_cfa 8, 0
 204 0120 93040500 		mv	s1,a0
 205 0124 13890500 		mv	s2,a1
 206              	.LBB29:
  30:src/TCB.cpp   ****     if (stack_space) {
 207              		.loc 1 30 66 is_stmt 0
 208 0128 2338B500 		sd	a1,16(a0)
 209 012c 233CC500 		sd	a2,24(a0)
 210 0130 230C0502 		sb	zero,56(a0)
GAS LISTING /tmp/ccPUJK6q.s 			page 7


 211 0134 A30C0502 		sb	zero,57(a0)
 212              	.LVL18:
 213              	.LBB30:
 214              	.LBB31:
 215              		.file 3 "src/../h/list.hpp"
   1:src/../h/list.hpp **** //
   2:src/../h/list.hpp **** // Created by os on 9/13/24.
   3:src/../h/list.hpp **** //
   4:src/../h/list.hpp **** 
   5:src/../h/list.hpp **** #ifndef LIST_HPP
   6:src/../h/list.hpp **** #define LIST_HPP
   7:src/../h/list.hpp **** 
   8:src/../h/list.hpp **** #include "../lib/mem.h"
   9:src/../h/list.hpp **** #include "MemoryAllocator.hpp"
  10:src/../h/list.hpp **** template<typename T>
  11:src/../h/list.hpp **** class List{
  12:src/../h/list.hpp ****         private:
  13:src/../h/list.hpp ****         struct Elem
  14:src/../h/list.hpp ****         {
  15:src/../h/list.hpp ****             T *data;
  16:src/../h/list.hpp ****             Elem *next;
  17:src/../h/list.hpp **** 
  18:src/../h/list.hpp ****             Elem(T *data, Elem *next) : data(data), next(next) {}
  19:src/../h/list.hpp **** 
  20:src/../h/list.hpp ****         };
  21:src/../h/list.hpp **** 
  22:src/../h/list.hpp ****         public:
  23:src/../h/list.hpp **** 
  24:src/../h/list.hpp ****         Elem *head, *tail;
  25:src/../h/list.hpp ****         List() : head(0), tail(0) {}
 216              		.loc 3 25 33
 217 0138 23340504 		sd	zero,72(a0)
 218 013c 23380504 		sd	zero,80(a0)
 219              	.LVL19:
 220              	.LBE31:
 221              	.LBE30:
 222              	.LBB32:
  31:src/TCB.cpp   ****         stack = static_cast<uint64 *>(stack_space);
 223              		.loc 1 31 5 is_stmt 1
 224              	.LBB33:
 225 0140 6388060A 		beqz	a3,.L10
  32:src/TCB.cpp   ****     } else {
 226              		.loc 1 32 9
  32:src/TCB.cpp   ****     } else {
 227              		.loc 1 32 15 is_stmt 0
 228 0144 2330D502 		sd	a3,32(a0)
 229              	.LVL20:
 230              	.L11:
 231              	.LBE33:
  37:src/TCB.cpp   ****         Scheduler::put(this);
 232              		.loc 1 37 5 is_stmt 1
 233 0148 6304090C 		beqz	s2,.L12
  38:src/TCB.cpp   ****         running->children.addLast(this);
 234              		.loc 1 38 9
  38:src/TCB.cpp   ****         running->children.addLast(this);
 235              		.loc 1 38 23 is_stmt 0
 236 014c 13850400 		mv	a0,s1
GAS LISTING /tmp/ccPUJK6q.s 			page 8


 237 0150 97000000 		call	_ZN9Scheduler3putEP3TCB@plt
 237      E7800000 
 238              	.LVL21:
  39:src/TCB.cpp   ****     } else {
 239              		.loc 1 39 9 is_stmt 1
  39:src/TCB.cpp   ****     } else {
 240              		.loc 1 39 18 is_stmt 0
 241 0158 17090000 		ld	s2,.LANCHOR0+8
 241      03390900 
 242              	.LVL22:
 243              	.LBB35:
 244              	.LBB36:
  26:src/../h/list.hpp **** 
  27:src/../h/list.hpp ****         List(const List<T> &) = delete;
  28:src/../h/list.hpp **** 
  29:src/../h/list.hpp **** 
  30:src/../h/list.hpp ****         List<T> &operator=(const List<T> &) = delete;
  31:src/../h/list.hpp **** 
  32:src/../h/list.hpp ****         void addFirst(T *data)
  33:src/../h/list.hpp ****         {
  34:src/../h/list.hpp ****             Elem *elem = new Elem(data, head);
  35:src/../h/list.hpp ****             head = elem;
  36:src/../h/list.hpp ****             if (!tail) { tail = head; }
  37:src/../h/list.hpp ****         }
  38:src/../h/list.hpp **** 
  39:src/../h/list.hpp ****         void addLast(T *data)
  40:src/../h/list.hpp ****         {
  41:src/../h/list.hpp ****             Elem *elem = new Elem(data, 0);
 245              		.loc 3 41 26
 246 0160 13050001 		li	a0,16
 247 0164 97000000 		call	_Znwm@plt
 247      E7800000 
 248              	.LVL23:
 249              	.LBB37:
 250              	.LBB38:
  18:src/../h/list.hpp **** 
 251              		.loc 3 18 62
 252 016c 23309500 		sd	s1,0(a0)
 253 0170 23340500 		sd	zero,8(a0)
 254              	.LVL24:
 255              	.LBE38:
 256              	.LBE37:
  42:src/../h/list.hpp ****             if (tail)
 257              		.loc 3 42 17
 258 0174 83370905 		ld	a5,80(s2)
 259              		.loc 3 42 13
 260 0178 63860708 		beqz	a5,.L13
  43:src/../h/list.hpp ****             {
  44:src/../h/list.hpp ****                 tail->next = elem;
 261              		.loc 3 44 17
 262 017c 23B4A700 		sd	a0,8(a5)
  45:src/../h/list.hpp ****                 tail = elem;
 263              		.loc 3 45 17
 264 0180 2338A904 		sd	a0,80(s2)
 265              	.LVL25:
 266              	.L14:
 267              	.LBE36:
GAS LISTING /tmp/ccPUJK6q.s 			page 9


 268              	.LBE35:
  44:src/TCB.cpp   ****     _sem::sem_open(&this->box_empty, 1);
 269              		.loc 1 44 5 is_stmt 1
  44:src/TCB.cpp   ****     _sem::sem_open(&this->box_empty, 1);
 270              		.loc 1 44 23 is_stmt 0
 271 0184 23BC0404 		sd	zero,88(s1)
  45:src/TCB.cpp   ****     _sem::sem_open(&this->box_full, 0);
 272              		.loc 1 45 5 is_stmt 1
  45:src/TCB.cpp   ****     _sem::sem_open(&this->box_full, 0);
 273              		.loc 1 45 19 is_stmt 0
 274 0188 93051000 		li	a1,1
 275 018c 13858400 		addi	a0,s1,8
 276 0190 97000000 		call	_ZN4_sem8sem_openEPPS_l@plt
 276      E7800000 
 277              	.LVL26:
  46:src/TCB.cpp   ****     sem_open(&this->joiner, 0);
 278              		.loc 1 46 5 is_stmt 1
  46:src/TCB.cpp   ****     sem_open(&this->joiner, 0);
 279              		.loc 1 46 19 is_stmt 0
 280 0198 93050000 		li	a1,0
 281 019c 13850400 		mv	a0,s1
 282 01a0 97000000 		call	_ZN4_sem8sem_openEPPS_l@plt
 282      E7800000 
 283              	.LVL27:
  47:src/TCB.cpp   ****     context.ra = (uint64) &thread_wrapper;
 284              		.loc 1 47 5 is_stmt 1
  47:src/TCB.cpp   ****     context.ra = (uint64) &thread_wrapper;
 285              		.loc 1 47 13 is_stmt 0
 286 01a8 93050000 		li	a1,0
 287 01ac 13850404 		addi	a0,s1,64
 288 01b0 97000000 		call	_Z8sem_openPP4_semj@plt
 288      E7800000 
 289              	.LVL28:
  48:src/TCB.cpp   ****     context.sp = (uint64) ((char *) stack + DEFAULT_STACK_SIZE - 1);
 290              		.loc 1 48 5 is_stmt 1
  48:src/TCB.cpp   ****     context.sp = (uint64) ((char *) stack + DEFAULT_STACK_SIZE - 1);
 291              		.loc 1 48 16 is_stmt 0
 292 01b8 97070000 		lla	a5,_ZN3TCB14thread_wrapperEv
 292      93870700 
 293 01c0 23B4F402 		sd	a5,40(s1)
  49:src/TCB.cpp   **** }
 294              		.loc 1 49 5 is_stmt 1
  49:src/TCB.cpp   **** }
 295              		.loc 1 49 37 is_stmt 0
 296 01c4 83B70402 		ld	a5,32(s1)
  49:src/TCB.cpp   **** }
 297              		.loc 1 49 64
 298 01c8 37170000 		li	a4,4096
 299 01cc 1307F7FF 		addi	a4,a4,-1
 300 01d0 B387E700 		add	a5,a5,a4
  49:src/TCB.cpp   **** }
 301              		.loc 1 49 16
 302 01d4 23B8F402 		sd	a5,48(s1)
 303              	.LBE32:
 304              	.LBE29:
  50:src/TCB.cpp   **** 
 305              		.loc 1 50 1
GAS LISTING /tmp/ccPUJK6q.s 			page 10


 306 01d8 83308101 		ld	ra,24(sp)
 307              		.cfi_remember_state
 308              		.cfi_restore 1
 309 01dc 03340101 		ld	s0,16(sp)
 310              		.cfi_restore 8
 311              		.cfi_def_cfa 2, 32
 312 01e0 83348100 		ld	s1,8(sp)
 313              		.cfi_restore 9
 314              	.LVL29:
 315 01e4 03390100 		ld	s2,0(sp)
 316              		.cfi_restore 18
 317 01e8 13010102 		addi	sp,sp,32
 318              		.cfi_def_cfa_offset 0
 319 01ec 67800000 		jr	ra
 320              	.LVL30:
 321              	.L10:
 322              		.cfi_restore_state
 323              	.LBB43:
 324              	.LBB42:
 325              	.LBB40:
 326              	.LBB34:
  34:src/TCB.cpp   ****         stack = static_cast<uint64 *>(MemoryAllocator::mem_alloc(stack_size_in_blocks * MEM_BLOCK_S
 327              		.loc 1 34 9 is_stmt 1
  35:src/TCB.cpp   ****     }
 328              		.loc 1 35 9
  35:src/TCB.cpp   ****     }
 329              		.loc 1 35 65 is_stmt 0
 330 01f0 37850000 		li	a0,32768
 331 01f4 97000000 		call	_ZN15MemoryAllocator9mem_allocEm@plt
 331      E7800000 
 332              	.LVL31:
  35:src/TCB.cpp   ****     }
 333              		.loc 1 35 15
 334 01fc 23B0A402 		sd	a0,32(s1)
 335 0200 6FF09FF4 		j	.L11
 336              	.LVL32:
 337              	.L13:
 338              	.LBE34:
 339              	.LBE40:
 340              	.LBB41:
 341              	.LBB39:
  46:src/../h/list.hpp ****             } else
  47:src/../h/list.hpp ****             {
  48:src/../h/list.hpp ****                 head = tail = elem;
 342              		.loc 3 48 17
 343 0204 2338A904 		sd	a0,80(s2)
 344 0208 2334A904 		sd	a0,72(s2)
 345 020c 6FF09FF7 		j	.L14
 346              	.LVL33:
 347              	.L12:
 348              	.LBE39:
 349              	.LBE41:
  41:src/TCB.cpp   ****         _sem::sem_open(&max_sem, max_threads);
 350              		.loc 1 41 9 is_stmt 1
  41:src/TCB.cpp   ****         _sem::sem_open(&max_sem, max_threads);
 351              		.loc 1 41 22 is_stmt 0
 352 0210 17050000 		lla	a0,.LANCHOR0
GAS LISTING /tmp/ccPUJK6q.s 			page 11


 352      13050500 
 353 0218 23349500 		sd	s1,8(a0)
  42:src/TCB.cpp   ****     }
 354              		.loc 1 42 9 is_stmt 1
  42:src/TCB.cpp   ****     }
 355              		.loc 1 42 23 is_stmt 0
 356 021c 97050000 		ld	a1,.LANCHOR1
 356      83B50500 
 357 0224 97000000 		call	_ZN4_sem8sem_openEPPS_l@plt
 357      E7800000 
 358              	.LVL34:
 359 022c 6FF09FF5 		j	.L14
 360              	.LBE42:
 361              	.LBE43:
 362              		.cfi_endproc
 363              	.LFE45:
 365              		.globl	_ZN3TCBC1EPFvPvES0_S0_
 366              		.set	_ZN3TCBC1EPFvPvES0_S0_,_ZN3TCBC2EPFvPvES0_S0_
 367              		.align	2
 368              		.globl	_ZN3TCB12createThreadEPPS_PFvPvES2_S2_
 370              	_ZN3TCB12createThreadEPPS_PFvPvES2_S2_:
 371              	.LFB47:
  52:src/TCB.cpp   ****     if (!handle) {
 372              		.loc 1 52 82 is_stmt 1
 373              		.cfi_startproc
 374              		.cfi_personality 0x9b,DW.ref.__gxx_personality_v0
 375              		.cfi_lsda 0x1b,.LLSDA47
 376              	.LVL35:
  53:src/TCB.cpp   ****         return -1;
 377              		.loc 1 53 5
 378 0230 63040508 		beqz	a0,.L19
  52:src/TCB.cpp   ****     if (!handle) {
 379              		.loc 1 52 82 is_stmt 0
 380 0234 130101FC 		addi	sp,sp,-64
 381              		.cfi_def_cfa_offset 64
 382 0238 233C1102 		sd	ra,56(sp)
 383 023c 23388102 		sd	s0,48(sp)
 384 0240 23349102 		sd	s1,40(sp)
 385 0244 23302103 		sd	s2,32(sp)
 386 0248 233C3101 		sd	s3,24(sp)
 387 024c 23384101 		sd	s4,16(sp)
 388 0250 23345101 		sd	s5,8(sp)
 389              		.cfi_offset 1, -8
 390              		.cfi_offset 8, -16
 391              		.cfi_offset 9, -24
 392              		.cfi_offset 18, -32
 393              		.cfi_offset 19, -40
 394              		.cfi_offset 20, -48
 395              		.cfi_offset 21, -56
 396 0254 13040104 		addi	s0,sp,64
 397              		.cfi_def_cfa 8, 0
 398 0258 93040500 		mv	s1,a0
 399 025c 13890500 		mv	s2,a1
 400 0260 93090600 		mv	s3,a2
 401 0264 138A0600 		mv	s4,a3
  56:src/TCB.cpp   ****     *handle = new_thread;
 402              		.loc 1 56 5 is_stmt 1
GAS LISTING /tmp/ccPUJK6q.s 			page 12


  56:src/TCB.cpp   ****     *handle = new_thread;
 403              		.loc 1 56 53 is_stmt 0
 404 0268 13050006 		li	a0,96
 405              	.LVL36:
 406              	.LEHB0:
 407 026c 97000000 		call	_Znwm@plt
 407      E7800000 
 408              	.LVL37:
 409              	.LEHE0:
 410 0274 930A0500 		mv	s5,a0
 411 0278 93060A00 		mv	a3,s4
 412 027c 13860900 		mv	a2,s3
 413 0280 93050900 		mv	a1,s2
 414              	.LEHB1:
 415 0284 97000000 		call	_ZN3TCBC1EPFvPvES0_S0_
 415      E7800000 
 416              	.LVL38:
 417              	.LEHE1:
  57:src/TCB.cpp   ****     return 0;
 418              		.loc 1 57 5 is_stmt 1 discriminator 2
  57:src/TCB.cpp   ****     return 0;
 419              		.loc 1 57 13 is_stmt 0 discriminator 2
 420 028c 23B05401 		sd	s5,0(s1)
  58:src/TCB.cpp   **** }
 421              		.loc 1 58 5 is_stmt 1 discriminator 2
  58:src/TCB.cpp   **** }
 422              		.loc 1 58 12 is_stmt 0 discriminator 2
 423 0290 13050000 		li	a0,0
  59:src/TCB.cpp   **** 
 424              		.loc 1 59 1 discriminator 2
 425 0294 83308103 		ld	ra,56(sp)
 426              		.cfi_restore 1
 427 0298 03340103 		ld	s0,48(sp)
 428              		.cfi_restore 8
 429              		.cfi_def_cfa 2, 64
 430 029c 83348102 		ld	s1,40(sp)
 431              		.cfi_restore 9
 432              	.LVL39:
 433 02a0 03390102 		ld	s2,32(sp)
 434              		.cfi_restore 18
 435              	.LVL40:
 436 02a4 83398101 		ld	s3,24(sp)
 437              		.cfi_restore 19
 438              	.LVL41:
 439 02a8 033A0101 		ld	s4,16(sp)
 440              		.cfi_restore 20
 441              	.LVL42:
 442 02ac 833A8100 		ld	s5,8(sp)
 443              		.cfi_restore 21
 444              	.LVL43:
 445 02b0 13010104 		addi	sp,sp,64
 446              		.cfi_def_cfa_offset 0
 447 02b4 67800000 		jr	ra
 448              	.LVL44:
 449              	.L19:
  54:src/TCB.cpp   ****     }
 450              		.loc 1 54 17
GAS LISTING /tmp/ccPUJK6q.s 			page 13


 451 02b8 1305F0FF 		li	a0,-1
 452              	.LVL45:
  59:src/TCB.cpp   **** 
 453              		.loc 1 59 1
 454 02bc 67800000 		ret
 455              	.LVL46:
 456              	.L20:
 457              		.cfi_def_cfa_register 8
 458              		.cfi_offset 1, -8
 459              		.cfi_offset 8, -16
 460              		.cfi_offset 9, -24
 461              		.cfi_offset 18, -32
 462              		.cfi_offset 19, -40
 463              		.cfi_offset 20, -48
 464              		.cfi_offset 21, -56
 465 02c0 93040500 		mv	s1,a0
 466              	.LVL47:
  56:src/TCB.cpp   ****     *handle = new_thread;
 467              		.loc 1 56 53
 468 02c4 13850A00 		mv	a0,s5
 469 02c8 97000000 		call	_ZdlPv@plt
 469      E7800000 
 470              	.LVL48:
 471 02d0 13850400 		mv	a0,s1
 472              	.LEHB2:
 473 02d4 97000000 		call	_Unwind_Resume@plt
 473      E7800000 
 474              	.LVL49:
 475              	.LEHE2:
 476              		.cfi_endproc
 477              	.LFE47:
 478              		.globl	__gxx_personality_v0
 479              		.section	.gcc_except_table,"a",@progbits
 480              	.LLSDA47:
 481 0000 FF       		.byte	0xff
 482 0001 FF       		.byte	0xff
 483 0002 03       		.byte	0x3
 484 0003 27       		.byte	0x27
 485 0004 00000000 		.4byte	.LEHB0-.LFB47
 486 0008 00000000 		.4byte	.LEHE0-.LEHB0
 487 000c 00000000 		.4byte	0
 488 0010 00       		.byte	0
 489 0011 00000000 		.4byte	.LEHB1-.LFB47
 490 0015 00000000 		.4byte	.LEHE1-.LEHB1
 491 0019 00000000 		.4byte	.L20-.LFB47
 492 001d 00       		.byte	0
 493 001e 00000000 		.4byte	.LEHB2-.LFB47
 494 0022 00000000 		.4byte	.LEHE2-.LEHB2
 495 0026 00000000 		.4byte	0
 496 002a 00       		.byte	0
 497              		.text
 499              		.align	2
 500              		.globl	_ZN3TCB11thread_exitEv
 502              	_ZN3TCB11thread_exitEv:
 503              	.LFB48:
  61:src/TCB.cpp   ****     if (running == nullptr) {
 504              		.loc 1 61 24 is_stmt 1
GAS LISTING /tmp/ccPUJK6q.s 			page 14


 505              		.cfi_startproc
  62:src/TCB.cpp   ****         return -1;
 506              		.loc 1 62 5
  62:src/TCB.cpp   ****         return -1;
 507              		.loc 1 62 17 is_stmt 0
 508 02dc 97070000 		ld	a5,.LANCHOR0+8
 508      83B70700 
  62:src/TCB.cpp   ****         return -1;
 509              		.loc 1 62 5
 510 02e4 63880706 		beqz	a5,.L28
  61:src/TCB.cpp   ****     if (running == nullptr) {
 511              		.loc 1 61 24
 512 02e8 130101FE 		addi	sp,sp,-32
 513              		.cfi_def_cfa_offset 32
 514 02ec 233C1100 		sd	ra,24(sp)
 515 02f0 23388100 		sd	s0,16(sp)
 516 02f4 23349100 		sd	s1,8(sp)
 517              		.cfi_offset 1, -8
 518              		.cfi_offset 8, -16
 519              		.cfi_offset 9, -24
 520 02f8 13040102 		addi	s0,sp,32
 521              		.cfi_def_cfa 8, 0
  65:src/TCB.cpp   ****     MemoryAllocator::mem_free(running->stack);
 522              		.loc 1 65 5 is_stmt 1
 523              	.LVL50:
 524              	.LBB44:
 525              	.LBB45:
  22:src/../h/TCB.hpp **** 
 526              		.loc 2 22 36
  22:src/../h/TCB.hpp **** 
 527              		.loc 2 22 45 is_stmt 0
 528 02fc 13071000 		li	a4,1
 529 0300 238CE702 		sb	a4,56(a5)
 530              	.LVL51:
 531              	.LBE45:
 532              	.LBE44:
  66:src/TCB.cpp   ****     _sem::sem_close(running->joiner);
 533              		.loc 1 66 5 is_stmt 1
  66:src/TCB.cpp   ****     _sem::sem_close(running->joiner);
 534              		.loc 1 66 30 is_stmt 0
 535 0304 03B50702 		ld	a0,32(a5)
 536 0308 97000000 		call	_ZN15MemoryAllocator8mem_freeEPv@plt
 536      E7800000 
 537              	.LVL52:
  67:src/TCB.cpp   ****     _sem::sem_signal(max_sem);
 538              		.loc 1 67 5 is_stmt 1
  67:src/TCB.cpp   ****     _sem::sem_signal(max_sem);
 539              		.loc 1 67 20 is_stmt 0
 540 0310 97040000 		lla	s1,.LANCHOR0
 540      93840400 
 541 0318 83B78400 		ld	a5,8(s1)
 542 031c 03B50704 		ld	a0,64(a5)
 543 0320 97000000 		call	_ZN4_sem9sem_closeEPS_@plt
 543      E7800000 
 544              	.LVL53:
  68:src/TCB.cpp   ****     TCB::dispatch();
 545              		.loc 1 68 5 is_stmt 1
GAS LISTING /tmp/ccPUJK6q.s 			page 15


  68:src/TCB.cpp   ****     TCB::dispatch();
 546              		.loc 1 68 21 is_stmt 0
 547 0328 03B50400 		ld	a0,0(s1)
 548 032c 97000000 		call	_ZN4_sem10sem_signalEPS_@plt
 548      E7800000 
 549              	.LVL54:
  69:src/TCB.cpp   ****     return 0;
 550              		.loc 1 69 5 is_stmt 1
  69:src/TCB.cpp   ****     return 0;
 551              		.loc 1 69 18 is_stmt 0
 552 0334 97000000 		call	_ZN3TCB8dispatchEv
 552      E7800000 
 553              	.LVL55:
  70:src/TCB.cpp   **** }
 554              		.loc 1 70 5 is_stmt 1
  70:src/TCB.cpp   **** }
 555              		.loc 1 70 12 is_stmt 0
 556 033c 13050000 		li	a0,0
  71:src/TCB.cpp   **** 
 557              		.loc 1 71 1
 558 0340 83308101 		ld	ra,24(sp)
 559              		.cfi_restore 1
 560 0344 03340101 		ld	s0,16(sp)
 561              		.cfi_restore 8
 562              		.cfi_def_cfa 2, 32
 563 0348 83348100 		ld	s1,8(sp)
 564              		.cfi_restore 9
 565 034c 13010102 		addi	sp,sp,32
 566              		.cfi_def_cfa_offset 0
 567 0350 67800000 		jr	ra
 568              	.L28:
  63:src/TCB.cpp   ****     }
 569              		.loc 1 63 17
 570 0354 1305F0FF 		li	a0,-1
  71:src/TCB.cpp   **** 
 571              		.loc 1 71 1
 572 0358 67800000 		ret
 573              		.cfi_endproc
 574              	.LFE48:
 576              		.align	2
 577              		.globl	_ZN3TCB4joinEv
 579              	_ZN3TCB4joinEv:
 580              	.LFB50:
  79:src/TCB.cpp   **** 
  80:src/TCB.cpp   **** int TCB::join() {
 581              		.loc 1 80 17 is_stmt 1
 582              		.cfi_startproc
 583              	.LVL56:
  81:src/TCB.cpp   ****     if (this->isFinished() or this == running) return -1;
 584              		.loc 1 81 5
 585              	.LBB46:
 586              	.LBB47:
  20:src/../h/TCB.hpp **** 
 587              		.loc 2 20 31
  20:src/../h/TCB.hpp **** 
 588              		.loc 2 20 38 is_stmt 0
 589 035c 83478503 		lbu	a5,56(a0)
GAS LISTING /tmp/ccPUJK6q.s 			page 16


 590              	.LVL57:
 591              	.LBE47:
 592              	.LBE46:
 593              		.loc 1 81 28
 594 0360 63900704 		bnez	a5,.L35
 595              		.loc 1 81 36 discriminator 2
 596 0364 97070000 		ld	a5,.LANCHOR0+8
 596      83B70700 
 597              		.loc 1 81 28 discriminator 2
 598 036c 638EA702 		beq	a5,a0,.L36
  80:src/TCB.cpp   ****     if (this->isFinished() or this == running) return -1;
 599              		.loc 1 80 17
 600 0370 130101FF 		addi	sp,sp,-16
 601              		.cfi_def_cfa_offset 16
 602 0374 23341100 		sd	ra,8(sp)
 603 0378 23308100 		sd	s0,0(sp)
 604              		.cfi_offset 1, -8
 605              		.cfi_offset 8, -16
 606 037c 13040101 		addi	s0,sp,16
 607              		.cfi_def_cfa 8, 0
  82:src/TCB.cpp   ****     sem_wait(this->joiner);
 608              		.loc 1 82 5 is_stmt 1
 609              		.loc 1 82 13 is_stmt 0
 610 0380 03350504 		ld	a0,64(a0)
 611              	.LVL58:
 612 0384 97000000 		call	_Z8sem_waitP4_sem@plt
 612      E7800000 
 613              	.LVL59:
  83:src/TCB.cpp   ****     return 0;
 614              		.loc 1 83 5 is_stmt 1
 615              		.loc 1 83 12 is_stmt 0
 616 038c 13050000 		li	a0,0
  84:src/TCB.cpp   **** }
 617              		.loc 1 84 1
 618 0390 83308100 		ld	ra,8(sp)
 619              		.cfi_restore 1
 620 0394 03340100 		ld	s0,0(sp)
 621              		.cfi_restore 8
 622              		.cfi_def_cfa 2, 16
 623 0398 13010101 		addi	sp,sp,16
 624              		.cfi_def_cfa_offset 0
 625 039c 67800000 		jr	ra
 626              	.LVL60:
 627              	.L35:
  81:src/TCB.cpp   ****     sem_wait(this->joiner);
 628              		.loc 1 81 56
 629 03a0 1305F0FF 		li	a0,-1
 630              	.LVL61:
 631 03a4 67800000 		ret
 632              	.LVL62:
 633              	.L36:
 634 03a8 1305F0FF 		li	a0,-1
 635              	.LVL63:
 636              		.loc 1 84 1
 637 03ac 67800000 		ret
 638              		.cfi_endproc
 639              	.LFE50:
GAS LISTING /tmp/ccPUJK6q.s 			page 17


 641              		.align	2
 642              		.globl	_ZN3TCB10waitForAllEv
 644              	_ZN3TCB10waitForAllEv:
 645              	.LFB51:
  85:src/TCB.cpp   **** 
  86:src/TCB.cpp   **** void TCB::waitForAll() {
 646              		.loc 1 86 24 is_stmt 1
 647              		.cfi_startproc
 648 03b0 130101FE 		addi	sp,sp,-32
 649              		.cfi_def_cfa_offset 32
 650 03b4 233C1100 		sd	ra,24(sp)
 651 03b8 23388100 		sd	s0,16(sp)
 652 03bc 23349100 		sd	s1,8(sp)
 653              		.cfi_offset 1, -8
 654              		.cfi_offset 8, -16
 655              		.cfi_offset 9, -24
 656 03c0 13040102 		addi	s0,sp,32
 657              		.cfi_def_cfa 8, 0
  87:src/TCB.cpp   ****     for (auto curr = running->children.head; curr; curr = curr->next) {
 658              		.loc 1 87 5
 659              	.LBB48:
 660              		.loc 1 87 40 is_stmt 0
 661 03c4 97070000 		ld	a5,.LANCHOR0+8
 661      83B70700 
 662              		.loc 1 87 15
 663 03cc 83B48704 		ld	s1,72(a5)
 664              	.LVL64:
 665              	.L43:
 666              		.loc 1 87 46 is_stmt 1 discriminator 3
 667 03d0 638C0400 		beqz	s1,.L41
  88:src/TCB.cpp   ****         thread_join(curr->data);
 668              		.loc 1 88 9 discriminator 2
 669              		.loc 1 88 20 is_stmt 0 discriminator 2
 670 03d4 03B50400 		ld	a0,0(s1)
 671 03d8 97000000 		call	_Z11thread_joinP3TCB@plt
 671      E7800000 
 672              	.LVL65:
  87:src/TCB.cpp   ****     for (auto curr = running->children.head; curr; curr = curr->next) {
 673              		.loc 1 87 5 is_stmt 1 discriminator 2
  87:src/TCB.cpp   ****     for (auto curr = running->children.head; curr; curr = curr->next) {
 674              		.loc 1 87 57 is_stmt 0 discriminator 2
 675 03e0 83B48400 		ld	s1,8(s1)
 676              	.LVL66:
  87:src/TCB.cpp   ****     for (auto curr = running->children.head; curr; curr = curr->next) {
 677              		.loc 1 87 5 discriminator 2
 678 03e4 6FF0DFFE 		j	.L43
 679              	.L41:
 680              	.LBE48:
  89:src/TCB.cpp   ****     }
  90:src/TCB.cpp   **** }
 681              		.loc 1 90 1
 682 03e8 83308101 		ld	ra,24(sp)
 683              		.cfi_restore 1
 684 03ec 03340101 		ld	s0,16(sp)
 685              		.cfi_restore 8
 686              		.cfi_def_cfa 2, 32
 687 03f0 83348100 		ld	s1,8(sp)
GAS LISTING /tmp/ccPUJK6q.s 			page 18


 688              		.cfi_restore 9
 689              	.LVL67:
 690 03f4 13010102 		addi	sp,sp,32
 691              		.cfi_def_cfa_offset 0
 692 03f8 67800000 		jr	ra
 693              		.cfi_endproc
 694              	.LFE51:
 696              		.align	2
 697              		.globl	_ZN3TCB12setMaxThreadEi
 699              	_ZN3TCB12setMaxThreadEi:
 700              	.LFB52:
  91:src/TCB.cpp   **** 
  92:src/TCB.cpp   **** void TCB::setMaxThread(int number) {
 701              		.loc 1 92 36 is_stmt 1
 702              		.cfi_startproc
 703              	.LVL68:
 704 03fc 130101FF 		addi	sp,sp,-16
 705              		.cfi_def_cfa_offset 16
 706 0400 23348100 		sd	s0,8(sp)
 707              		.cfi_offset 8, -8
 708 0404 13040101 		addi	s0,sp,16
 709              		.cfi_def_cfa 8, 0
  93:src/TCB.cpp   ****     max_threads = number;
 710              		.loc 1 93 5
 711              		.loc 1 93 17 is_stmt 0
 712 0408 97070000 		sd	a0,.LANCHOR1,a5
 712      23B0A700 
  94:src/TCB.cpp   **** }
 713              		.loc 1 94 1
 714 0410 03348100 		ld	s0,8(sp)
 715              		.cfi_restore 8
 716              		.cfi_def_cfa 2, 16
 717 0414 13010101 		addi	sp,sp,16
 718              		.cfi_def_cfa_offset 0
 719 0418 67800000 		jr	ra
 720              		.cfi_endproc
 721              	.LFE52:
 723              		.align	2
 724              		.globl	_ZN3TCB4sendEPS_PKc
 726              	_ZN3TCB4sendEPS_PKc:
 727              	.LFB53:
  95:src/TCB.cpp   **** 
  96:src/TCB.cpp   **** void TCB::send(TCB *id, const char *msg) {
 728              		.loc 1 96 42 is_stmt 1
 729              		.cfi_startproc
 730              	.LVL69:
 731 041c 130101FE 		addi	sp,sp,-32
 732              		.cfi_def_cfa_offset 32
 733 0420 233C1100 		sd	ra,24(sp)
 734 0424 23388100 		sd	s0,16(sp)
 735 0428 23349100 		sd	s1,8(sp)
 736 042c 23302101 		sd	s2,0(sp)
 737              		.cfi_offset 1, -8
 738              		.cfi_offset 8, -16
 739              		.cfi_offset 9, -24
 740              		.cfi_offset 18, -32
 741 0430 13040102 		addi	s0,sp,32
GAS LISTING /tmp/ccPUJK6q.s 			page 19


 742              		.cfi_def_cfa 8, 0
 743 0434 93040500 		mv	s1,a0
 744 0438 13890500 		mv	s2,a1
  97:src/TCB.cpp   ****     _sem::sem_wait(id->box_empty);
 745              		.loc 1 97 5
 746              		.loc 1 97 19 is_stmt 0
 747 043c 03358500 		ld	a0,8(a0)
 748              	.LVL70:
 749 0440 97000000 		call	_ZN4_sem8sem_waitEPS_@plt
 749      E7800000 
 750              	.LVL71:
  98:src/TCB.cpp   ****     id->message_box = msg;
 751              		.loc 1 98 5 is_stmt 1
 752              		.loc 1 98 21 is_stmt 0
 753 0448 23BC2405 		sd	s2,88(s1)
  99:src/TCB.cpp   ****     _sem::sem_signal(id->box_full);
 754              		.loc 1 99 5 is_stmt 1
 755              		.loc 1 99 21 is_stmt 0
 756 044c 03B50400 		ld	a0,0(s1)
 757 0450 97000000 		call	_ZN4_sem10sem_signalEPS_@plt
 757      E7800000 
 758              	.LVL72:
 100:src/TCB.cpp   **** }
 759              		.loc 1 100 1
 760 0458 83308101 		ld	ra,24(sp)
 761              		.cfi_restore 1
 762 045c 03340101 		ld	s0,16(sp)
 763              		.cfi_restore 8
 764              		.cfi_def_cfa 2, 32
 765 0460 83348100 		ld	s1,8(sp)
 766              		.cfi_restore 9
 767              	.LVL73:
 768 0464 03390100 		ld	s2,0(sp)
 769              		.cfi_restore 18
 770              	.LVL74:
 771 0468 13010102 		addi	sp,sp,32
 772              		.cfi_def_cfa_offset 0
 773 046c 67800000 		jr	ra
 774              		.cfi_endproc
 775              	.LFE53:
 777              		.align	2
 778              		.globl	_ZN3TCB7receiveEv
 780              	_ZN3TCB7receiveEv:
 781              	.LFB54:
 101:src/TCB.cpp   **** 
 102:src/TCB.cpp   **** const char *TCB::receive() {
 782              		.loc 1 102 28 is_stmt 1
 783              		.cfi_startproc
 784 0470 130101FE 		addi	sp,sp,-32
 785              		.cfi_def_cfa_offset 32
 786 0474 233C1100 		sd	ra,24(sp)
 787 0478 23388100 		sd	s0,16(sp)
 788 047c 23349100 		sd	s1,8(sp)
 789              		.cfi_offset 1, -8
 790              		.cfi_offset 8, -16
 791              		.cfi_offset 9, -24
 792 0480 13040102 		addi	s0,sp,32
GAS LISTING /tmp/ccPUJK6q.s 			page 20


 793              		.cfi_def_cfa 8, 0
 103:src/TCB.cpp   ****     _sem::sem_wait(running->box_full);
 794              		.loc 1 103 5
 795              		.loc 1 103 19 is_stmt 0
 796 0484 97040000 		lla	s1,.LANCHOR0
 796      93840400 
 797 048c 83B78400 		ld	a5,8(s1)
 798 0490 03B50700 		ld	a0,0(a5)
 799 0494 97000000 		call	_ZN4_sem8sem_waitEPS_@plt
 799      E7800000 
 800              	.LVL75:
 104:src/TCB.cpp   ****     _sem::sem_signal(running->box_empty);
 801              		.loc 1 104 5 is_stmt 1
 802              		.loc 1 104 21 is_stmt 0
 803 049c 83B78400 		ld	a5,8(s1)
 804 04a0 03B58700 		ld	a0,8(a5)
 805 04a4 97000000 		call	_ZN4_sem10sem_signalEPS_@plt
 805      E7800000 
 806              	.LVL76:
 105:src/TCB.cpp   ****     return running->message_box;
 807              		.loc 1 105 5 is_stmt 1
 808              		.loc 1 105 21 is_stmt 0
 809 04ac 83B78400 		ld	a5,8(s1)
 106:src/TCB.cpp   **** }
 810              		.loc 1 106 1
 811 04b0 03B58705 		ld	a0,88(a5)
 812 04b4 83308101 		ld	ra,24(sp)
 813              		.cfi_restore 1
 814 04b8 03340101 		ld	s0,16(sp)
 815              		.cfi_restore 8
 816              		.cfi_def_cfa 2, 32
 817 04bc 83348100 		ld	s1,8(sp)
 818              		.cfi_restore 9
 819 04c0 13010102 		addi	sp,sp,32
 820              		.cfi_def_cfa_offset 0
 821 04c4 67800000 		jr	ra
 822              		.cfi_endproc
 823              	.LFE54:
 825              		.globl	_ZN3TCB7max_semE
 826              		.globl	_ZN3TCB11max_threadsE
 827              		.globl	_ZN3TCB7runningE
 828              		.data
 829              		.align	3
 830              		.set	.LANCHOR1,. + 0
 833              	_ZN3TCB11max_threadsE:
 834 0000 FFFFFF7F 		.dword	2147483647
 834      00000000 
 835              		.bss
 836              		.align	3
 837              		.set	.LANCHOR0,. + 0
 840              	_ZN3TCB7max_semE:
 841 0000 00000000 		.zero	8
 841      00000000 
 844              	_ZN3TCB7runningE:
 845 0008 00000000 		.zero	8
 845      00000000 
 846              		.text
GAS LISTING /tmp/ccPUJK6q.s 			page 21


 847              	.Letext0:
 848              		.file 4 "src/../lib/hw.h"
 849              		.file 5 "src/../h/MemoryAllocator.hpp"
 850              		.file 6 "src/../h/scheduler.hpp"
 851              		.file 7 "src/../h/../h/riscv.hpp"
 852              		.file 8 "src/../h/syscall_c.hpp"
 853              		.file 9 "src/../h/_sem.hpp"
 854              		.file 10 "src/../h/syscall_cpp.hpp"
 5107              		.align	3
 5110              	DW.ref.__gxx_personality_v0:
 5111 0000 00000000 		.dword	__gxx_personality_v0
 5111      00000000 
 5112              		.ident	"GCC: (Ubuntu 9.4.0-1ubuntu1~20.04) 9.4.0"
 5113              		.section	.note.GNU-stack,"",@progbits
GAS LISTING /tmp/ccPUJK6q.s 			page 22


DEFINED SYMBOLS
                            *ABS*:0000000000000000 TCB.cpp
     /tmp/ccPUJK6q.s:9      .text:0000000000000000 _ZN3TCB14thread_wrapperEv
     /tmp/ccPUJK6q.s:13     .text:0000000000000000 .L0 
     /tmp/ccPUJK6q.s:14     .text:0000000000000000 .L0 
     /tmp/ccPUJK6q.s:15     .text:0000000000000004 .L0 
     /tmp/ccPUJK6q.s:19     .text:0000000000000010 .L0 
     /tmp/ccPUJK6q.s:20     .text:0000000000000010 .L0 
     /tmp/ccPUJK6q.s:21     .text:0000000000000010 .L0 
     /tmp/ccPUJK6q.s:23     .text:0000000000000014 .L0 
     /tmp/ccPUJK6q.s:25     .text:0000000000000014 .L0 
     /tmp/ccPUJK6q.s:26     .text:0000000000000014 .L0 
     /tmp/ccPUJK6q.s:29     .text:000000000000001c .L0 
     /tmp/ccPUJK6q.s:30     .text:000000000000001c .L0 
     /tmp/ccPUJK6q.s:35     .text:0000000000000030 .L0 
     /tmp/ccPUJK6q.s:36     .text:0000000000000030 .L0 
     /tmp/ccPUJK6q.s:39     .text:0000000000000038 .L0 
     /tmp/ccPUJK6q.s:43     .text:0000000000000040 .L0 
     /tmp/ccPUJK6q.s:44     .text:0000000000000040 .L0 
     /tmp/ccPUJK6q.s:47     .text:0000000000000048 .L0 
     /tmp/ccPUJK6q.s:48     .text:000000000000004c .L0 
     /tmp/ccPUJK6q.s:50     .text:0000000000000050 .L0 
     /tmp/ccPUJK6q.s:51     .text:0000000000000050 .L0 
     /tmp/ccPUJK6q.s:53     .text:0000000000000054 .L0 
     /tmp/ccPUJK6q.s:55     .text:0000000000000058 .L0 
     /tmp/ccPUJK6q.s:57     .text:000000000000005c .L0 
     /tmp/ccPUJK6q.s:63     .text:000000000000005c _ZN3TCB8dispatchEv
     /tmp/ccPUJK6q.s:66     .text:000000000000005c .L0 
     /tmp/ccPUJK6q.s:67     .text:000000000000005c .L0 
     /tmp/ccPUJK6q.s:68     .text:0000000000000060 .L0 
     /tmp/ccPUJK6q.s:72     .text:000000000000006c .L0 
     /tmp/ccPUJK6q.s:73     .text:000000000000006c .L0 
     /tmp/ccPUJK6q.s:74     .text:000000000000006c .L0 
     /tmp/ccPUJK6q.s:76     .text:0000000000000070 .L0 
     /tmp/ccPUJK6q.s:78     .text:0000000000000070 .L0 
     /tmp/ccPUJK6q.s:79     .text:0000000000000070 .L0 
     /tmp/ccPUJK6q.s:82     .text:0000000000000078 .L0 
     /tmp/ccPUJK6q.s:83     .text:0000000000000078 .L0 
     /tmp/ccPUJK6q.s:89     .text:000000000000007c .L0 
     /tmp/ccPUJK6q.s:90     .text:000000000000007c .L0 
     /tmp/ccPUJK6q.s:95     .text:0000000000000080 .L0 
     /tmp/ccPUJK6q.s:100    .text:0000000000000084 .L0 
     /tmp/ccPUJK6q.s:101    .text:0000000000000084 .L0 
     /tmp/ccPUJK6q.s:106    .text:0000000000000088 .L0 
     /tmp/ccPUJK6q.s:109    .text:000000000000008c .L0 
     /tmp/ccPUJK6q.s:110    .text:000000000000008c .L0 
     /tmp/ccPUJK6q.s:113    .text:0000000000000094 .L0 
     /tmp/ccPUJK6q.s:115    .text:000000000000009c .L0 
     /tmp/ccPUJK6q.s:116    .text:000000000000009c .L0 
     /tmp/ccPUJK6q.s:121    .text:00000000000000ac .L0 
     /tmp/ccPUJK6q.s:122    .text:00000000000000b0 .L0 
     /tmp/ccPUJK6q.s:123    .text:00000000000000b0 .L0 
     /tmp/ccPUJK6q.s:125    .text:00000000000000b4 .L0 
     /tmp/ccPUJK6q.s:126    .text:00000000000000b4 .L0 
     /tmp/ccPUJK6q.s:128    .text:00000000000000b8 .L0 
     /tmp/ccPUJK6q.s:131    .text:00000000000000bc .L0 
     /tmp/ccPUJK6q.s:135    .text:00000000000000c0 .L0 
GAS LISTING /tmp/ccPUJK6q.s 			page 23


     /tmp/ccPUJK6q.s:137    .text:00000000000000c0 .L0 
     /tmp/ccPUJK6q.s:138    .text:00000000000000c0 .L0 
     /tmp/ccPUJK6q.s:142    .text:00000000000000d0 .L0 
     /tmp/ccPUJK6q.s:148    .text:00000000000000d0 _ZN3TCB5yieldEv
     /tmp/ccPUJK6q.s:151    .text:00000000000000d0 .L0 
     /tmp/ccPUJK6q.s:152    .text:00000000000000d0 .L0 
     /tmp/ccPUJK6q.s:153    .text:00000000000000d4 .L0 
     /tmp/ccPUJK6q.s:156    .text:00000000000000dc .L0 
     /tmp/ccPUJK6q.s:157    .text:00000000000000dc .L0 
     /tmp/ccPUJK6q.s:159    .text:00000000000000e0 .L0 
     /tmp/ccPUJK6q.s:161    .text:00000000000000e0 .L0 
     /tmp/ccPUJK6q.s:162    .text:00000000000000e0 .L0 
     /tmp/ccPUJK6q.s:165    .text:00000000000000e8 .L0 
     /tmp/ccPUJK6q.s:166    .text:00000000000000e8 .L0 
     /tmp/ccPUJK6q.s:169    .text:00000000000000f0 .L0 
     /tmp/ccPUJK6q.s:170    .text:00000000000000f0 .L0 
     /tmp/ccPUJK6q.s:173    .text:00000000000000f8 .L0 
     /tmp/ccPUJK6q.s:174    .text:00000000000000fc .L0 
     /tmp/ccPUJK6q.s:176    .text:0000000000000100 .L0 
     /tmp/ccPUJK6q.s:177    .text:0000000000000100 .L0 
     /tmp/ccPUJK6q.s:179    .text:0000000000000104 .L0 
     /tmp/ccPUJK6q.s:181    .text:0000000000000108 .L0 
     /tmp/ccPUJK6q.s:187    .text:0000000000000108 _ZN3TCBC2EPFvPvES0_S0_
     /tmp/ccPUJK6q.s:190    .text:0000000000000108 .L0 
     /tmp/ccPUJK6q.s:192    .text:0000000000000108 .L0 
     /tmp/ccPUJK6q.s:193    .text:000000000000010c .L0 
     /tmp/ccPUJK6q.s:198    .text:000000000000011c .L0 
     /tmp/ccPUJK6q.s:199    .text:000000000000011c .L0 
     /tmp/ccPUJK6q.s:200    .text:000000000000011c .L0 
     /tmp/ccPUJK6q.s:201    .text:000000000000011c .L0 
     /tmp/ccPUJK6q.s:203    .text:0000000000000120 .L0 
     /tmp/ccPUJK6q.s:208    .text:0000000000000128 .L0 
     /tmp/ccPUJK6q.s:217    .text:0000000000000138 .L0 
     /tmp/ccPUJK6q.s:225    .text:0000000000000140 .L0 
     /tmp/ccPUJK6q.s:227    .text:0000000000000144 .L0 
     /tmp/ccPUJK6q.s:228    .text:0000000000000144 .L0 
     /tmp/ccPUJK6q.s:233    .text:0000000000000148 .L0 
     /tmp/ccPUJK6q.s:235    .text:000000000000014c .L0 
     /tmp/ccPUJK6q.s:236    .text:000000000000014c .L0 
     /tmp/ccPUJK6q.s:240    .text:0000000000000158 .L0 
     /tmp/ccPUJK6q.s:241    .text:0000000000000158 .L0 
     /tmp/ccPUJK6q.s:246    .text:0000000000000160 .L0 
     /tmp/ccPUJK6q.s:252    .text:000000000000016c .L0 
     /tmp/ccPUJK6q.s:258    .text:0000000000000174 .L0 
     /tmp/ccPUJK6q.s:260    .text:0000000000000178 .L0 
     /tmp/ccPUJK6q.s:262    .text:000000000000017c .L0 
     /tmp/ccPUJK6q.s:264    .text:0000000000000180 .L0 
     /tmp/ccPUJK6q.s:270    .text:0000000000000184 .L0 
     /tmp/ccPUJK6q.s:271    .text:0000000000000184 .L0 
     /tmp/ccPUJK6q.s:273    .text:0000000000000188 .L0 
     /tmp/ccPUJK6q.s:274    .text:0000000000000188 .L0 
     /tmp/ccPUJK6q.s:279    .text:0000000000000198 .L0 
     /tmp/ccPUJK6q.s:280    .text:0000000000000198 .L0 
     /tmp/ccPUJK6q.s:285    .text:00000000000001a8 .L0 
     /tmp/ccPUJK6q.s:286    .text:00000000000001a8 .L0 
     /tmp/ccPUJK6q.s:291    .text:00000000000001b8 .L0 
     /tmp/ccPUJK6q.s:292    .text:00000000000001b8 .L0 
GAS LISTING /tmp/ccPUJK6q.s 			page 24


     /tmp/ccPUJK6q.s:295    .text:00000000000001c4 .L0 
     /tmp/ccPUJK6q.s:296    .text:00000000000001c4 .L0 
     /tmp/ccPUJK6q.s:298    .text:00000000000001c8 .L0 
     /tmp/ccPUJK6q.s:302    .text:00000000000001d4 .L0 
     /tmp/ccPUJK6q.s:306    .text:00000000000001d8 .L0 
     /tmp/ccPUJK6q.s:307    .text:00000000000001dc .L0 
     /tmp/ccPUJK6q.s:308    .text:00000000000001dc .L0 
     /tmp/ccPUJK6q.s:310    .text:00000000000001e0 .L0 
     /tmp/ccPUJK6q.s:311    .text:00000000000001e0 .L0 
     /tmp/ccPUJK6q.s:313    .text:00000000000001e4 .L0 
     /tmp/ccPUJK6q.s:316    .text:00000000000001e8 .L0 
     /tmp/ccPUJK6q.s:318    .text:00000000000001ec .L0 
     /tmp/ccPUJK6q.s:322    .text:00000000000001f0 .L0 
     /tmp/ccPUJK6q.s:328    .text:00000000000001f0 .L0 
     /tmp/ccPUJK6q.s:329    .text:00000000000001f0 .L0 
     /tmp/ccPUJK6q.s:330    .text:00000000000001f0 .L0 
     /tmp/ccPUJK6q.s:334    .text:00000000000001fc .L0 
     /tmp/ccPUJK6q.s:343    .text:0000000000000204 .L0 
     /tmp/ccPUJK6q.s:351    .text:0000000000000210 .L0 
     /tmp/ccPUJK6q.s:352    .text:0000000000000210 .L0 
     /tmp/ccPUJK6q.s:355    .text:000000000000021c .L0 
     /tmp/ccPUJK6q.s:356    .text:000000000000021c .L0 
     /tmp/ccPUJK6q.s:362    .text:0000000000000230 .L0 
     /tmp/ccPUJK6q.s:187    .text:0000000000000108 _ZN3TCBC1EPFvPvES0_S0_
     /tmp/ccPUJK6q.s:370    .text:0000000000000230 _ZN3TCB12createThreadEPPS_PFvPvES2_S2_
     /tmp/ccPUJK6q.s:373    .text:0000000000000230 .L0 
     /tmp/ccPUJK6q.s:5110   .data.rel.local.DW.ref.__gxx_personality_v0:0000000000000000 DW.ref.__gxx_personality_v0
     /tmp/ccPUJK6q.s:377    .text:0000000000000230 .L0 
     /tmp/ccPUJK6q.s:378    .text:0000000000000230 .L0 
     /tmp/ccPUJK6q.s:380    .text:0000000000000234 .L0 
     /tmp/ccPUJK6q.s:381    .text:0000000000000238 .L0 
     /tmp/ccPUJK6q.s:389    .text:0000000000000254 .L0 
     /tmp/ccPUJK6q.s:390    .text:0000000000000254 .L0 
     /tmp/ccPUJK6q.s:391    .text:0000000000000254 .L0 
     /tmp/ccPUJK6q.s:392    .text:0000000000000254 .L0 
     /tmp/ccPUJK6q.s:393    .text:0000000000000254 .L0 
     /tmp/ccPUJK6q.s:394    .text:0000000000000254 .L0 
     /tmp/ccPUJK6q.s:395    .text:0000000000000254 .L0 
     /tmp/ccPUJK6q.s:397    .text:0000000000000258 .L0 
     /tmp/ccPUJK6q.s:403    .text:0000000000000268 .L0 
     /tmp/ccPUJK6q.s:404    .text:0000000000000268 .L0 
     /tmp/ccPUJK6q.s:419    .text:000000000000028c .L0 
     /tmp/ccPUJK6q.s:420    .text:000000000000028c .L0 
     /tmp/ccPUJK6q.s:422    .text:0000000000000290 .L0 
     /tmp/ccPUJK6q.s:423    .text:0000000000000290 .L0 
     /tmp/ccPUJK6q.s:425    .text:0000000000000294 .L0 
     /tmp/ccPUJK6q.s:426    .text:0000000000000298 .L0 
     /tmp/ccPUJK6q.s:428    .text:000000000000029c .L0 
     /tmp/ccPUJK6q.s:429    .text:000000000000029c .L0 
     /tmp/ccPUJK6q.s:431    .text:00000000000002a0 .L0 
     /tmp/ccPUJK6q.s:434    .text:00000000000002a4 .L0 
     /tmp/ccPUJK6q.s:437    .text:00000000000002a8 .L0 
     /tmp/ccPUJK6q.s:440    .text:00000000000002ac .L0 
     /tmp/ccPUJK6q.s:443    .text:00000000000002b0 .L0 
     /tmp/ccPUJK6q.s:446    .text:00000000000002b4 .L0 
     /tmp/ccPUJK6q.s:451    .text:00000000000002b8 .L0 
     /tmp/ccPUJK6q.s:454    .text:00000000000002bc .L0 
GAS LISTING /tmp/ccPUJK6q.s 			page 25


     /tmp/ccPUJK6q.s:457    .text:00000000000002c0 .L0 
     /tmp/ccPUJK6q.s:458    .text:00000000000002c0 .L0 
     /tmp/ccPUJK6q.s:459    .text:00000000000002c0 .L0 
     /tmp/ccPUJK6q.s:460    .text:00000000000002c0 .L0 
     /tmp/ccPUJK6q.s:461    .text:00000000000002c0 .L0 
     /tmp/ccPUJK6q.s:462    .text:00000000000002c0 .L0 
     /tmp/ccPUJK6q.s:463    .text:00000000000002c0 .L0 
     /tmp/ccPUJK6q.s:464    .text:00000000000002c0 .L0 
     /tmp/ccPUJK6q.s:468    .text:00000000000002c4 .L0 
     /tmp/ccPUJK6q.s:476    .text:00000000000002dc .L0 
     /tmp/ccPUJK6q.s:502    .text:00000000000002dc _ZN3TCB11thread_exitEv
     /tmp/ccPUJK6q.s:505    .text:00000000000002dc .L0 
     /tmp/ccPUJK6q.s:506    .text:00000000000002dc .L0 
     /tmp/ccPUJK6q.s:507    .text:00000000000002dc .L0 
     /tmp/ccPUJK6q.s:508    .text:00000000000002dc .L0 
     /tmp/ccPUJK6q.s:510    .text:00000000000002e4 .L0 
     /tmp/ccPUJK6q.s:512    .text:00000000000002e8 .L0 
     /tmp/ccPUJK6q.s:513    .text:00000000000002ec .L0 
     /tmp/ccPUJK6q.s:517    .text:00000000000002f8 .L0 
     /tmp/ccPUJK6q.s:518    .text:00000000000002f8 .L0 
     /tmp/ccPUJK6q.s:519    .text:00000000000002f8 .L0 
     /tmp/ccPUJK6q.s:521    .text:00000000000002fc .L0 
     /tmp/ccPUJK6q.s:526    .text:00000000000002fc .L0 
     /tmp/ccPUJK6q.s:527    .text:00000000000002fc .L0 
     /tmp/ccPUJK6q.s:528    .text:00000000000002fc .L0 
     /tmp/ccPUJK6q.s:534    .text:0000000000000304 .L0 
     /tmp/ccPUJK6q.s:535    .text:0000000000000304 .L0 
     /tmp/ccPUJK6q.s:539    .text:0000000000000310 .L0 
     /tmp/ccPUJK6q.s:540    .text:0000000000000310 .L0 
     /tmp/ccPUJK6q.s:546    .text:0000000000000328 .L0 
     /tmp/ccPUJK6q.s:547    .text:0000000000000328 .L0 
     /tmp/ccPUJK6q.s:551    .text:0000000000000334 .L0 
     /tmp/ccPUJK6q.s:552    .text:0000000000000334 .L0 
     /tmp/ccPUJK6q.s:555    .text:000000000000033c .L0 
     /tmp/ccPUJK6q.s:556    .text:000000000000033c .L0 
     /tmp/ccPUJK6q.s:558    .text:0000000000000340 .L0 
     /tmp/ccPUJK6q.s:559    .text:0000000000000344 .L0 
     /tmp/ccPUJK6q.s:561    .text:0000000000000348 .L0 
     /tmp/ccPUJK6q.s:562    .text:0000000000000348 .L0 
     /tmp/ccPUJK6q.s:564    .text:000000000000034c .L0 
     /tmp/ccPUJK6q.s:566    .text:0000000000000350 .L0 
     /tmp/ccPUJK6q.s:570    .text:0000000000000354 .L0 
     /tmp/ccPUJK6q.s:572    .text:0000000000000358 .L0 
     /tmp/ccPUJK6q.s:573    .text:000000000000035c .L0 
     /tmp/ccPUJK6q.s:579    .text:000000000000035c _ZN3TCB4joinEv
     /tmp/ccPUJK6q.s:582    .text:000000000000035c .L0 
     /tmp/ccPUJK6q.s:584    .text:000000000000035c .L0 
     /tmp/ccPUJK6q.s:587    .text:000000000000035c .L0 
     /tmp/ccPUJK6q.s:588    .text:000000000000035c .L0 
     /tmp/ccPUJK6q.s:589    .text:000000000000035c .L0 
     /tmp/ccPUJK6q.s:594    .text:0000000000000360 .L0 
     /tmp/ccPUJK6q.s:596    .text:0000000000000364 .L0 
     /tmp/ccPUJK6q.s:598    .text:000000000000036c .L0 
     /tmp/ccPUJK6q.s:600    .text:0000000000000370 .L0 
     /tmp/ccPUJK6q.s:601    .text:0000000000000374 .L0 
     /tmp/ccPUJK6q.s:604    .text:000000000000037c .L0 
     /tmp/ccPUJK6q.s:605    .text:000000000000037c .L0 
GAS LISTING /tmp/ccPUJK6q.s 			page 26


     /tmp/ccPUJK6q.s:607    .text:0000000000000380 .L0 
     /tmp/ccPUJK6q.s:609    .text:0000000000000380 .L0 
     /tmp/ccPUJK6q.s:610    .text:0000000000000380 .L0 
     /tmp/ccPUJK6q.s:615    .text:000000000000038c .L0 
     /tmp/ccPUJK6q.s:616    .text:000000000000038c .L0 
     /tmp/ccPUJK6q.s:618    .text:0000000000000390 .L0 
     /tmp/ccPUJK6q.s:619    .text:0000000000000394 .L0 
     /tmp/ccPUJK6q.s:621    .text:0000000000000398 .L0 
     /tmp/ccPUJK6q.s:622    .text:0000000000000398 .L0 
     /tmp/ccPUJK6q.s:624    .text:000000000000039c .L0 
     /tmp/ccPUJK6q.s:629    .text:00000000000003a0 .L0 
     /tmp/ccPUJK6q.s:637    .text:00000000000003ac .L0 
     /tmp/ccPUJK6q.s:638    .text:00000000000003b0 .L0 
     /tmp/ccPUJK6q.s:644    .text:00000000000003b0 _ZN3TCB10waitForAllEv
     /tmp/ccPUJK6q.s:647    .text:00000000000003b0 .L0 
     /tmp/ccPUJK6q.s:648    .text:00000000000003b0 .L0 
     /tmp/ccPUJK6q.s:649    .text:00000000000003b4 .L0 
     /tmp/ccPUJK6q.s:653    .text:00000000000003c0 .L0 
     /tmp/ccPUJK6q.s:654    .text:00000000000003c0 .L0 
     /tmp/ccPUJK6q.s:655    .text:00000000000003c0 .L0 
     /tmp/ccPUJK6q.s:657    .text:00000000000003c4 .L0 
     /tmp/ccPUJK6q.s:660    .text:00000000000003c4 .L0 
     /tmp/ccPUJK6q.s:661    .text:00000000000003c4 .L0 
     /tmp/ccPUJK6q.s:663    .text:00000000000003cc .L0 
     /tmp/ccPUJK6q.s:667    .text:00000000000003d0 .L0 
     /tmp/ccPUJK6q.s:669    .text:00000000000003d4 .L0 
     /tmp/ccPUJK6q.s:670    .text:00000000000003d4 .L0 
     /tmp/ccPUJK6q.s:674    .text:00000000000003e0 .L0 
     /tmp/ccPUJK6q.s:675    .text:00000000000003e0 .L0 
     /tmp/ccPUJK6q.s:678    .text:00000000000003e4 .L0 
     /tmp/ccPUJK6q.s:682    .text:00000000000003e8 .L0 
     /tmp/ccPUJK6q.s:683    .text:00000000000003ec .L0 
     /tmp/ccPUJK6q.s:685    .text:00000000000003f0 .L0 
     /tmp/ccPUJK6q.s:686    .text:00000000000003f0 .L0 
     /tmp/ccPUJK6q.s:688    .text:00000000000003f4 .L0 
     /tmp/ccPUJK6q.s:691    .text:00000000000003f8 .L0 
     /tmp/ccPUJK6q.s:693    .text:00000000000003fc .L0 
     /tmp/ccPUJK6q.s:699    .text:00000000000003fc _ZN3TCB12setMaxThreadEi
     /tmp/ccPUJK6q.s:702    .text:00000000000003fc .L0 
     /tmp/ccPUJK6q.s:704    .text:00000000000003fc .L0 
     /tmp/ccPUJK6q.s:705    .text:0000000000000400 .L0 
     /tmp/ccPUJK6q.s:707    .text:0000000000000404 .L0 
     /tmp/ccPUJK6q.s:709    .text:0000000000000408 .L0 
     /tmp/ccPUJK6q.s:711    .text:0000000000000408 .L0 
     /tmp/ccPUJK6q.s:712    .text:0000000000000408 .L0 
     /tmp/ccPUJK6q.s:714    .text:0000000000000410 .L0 
     /tmp/ccPUJK6q.s:715    .text:0000000000000414 .L0 
     /tmp/ccPUJK6q.s:716    .text:0000000000000414 .L0 
     /tmp/ccPUJK6q.s:718    .text:0000000000000418 .L0 
     /tmp/ccPUJK6q.s:720    .text:000000000000041c .L0 
     /tmp/ccPUJK6q.s:726    .text:000000000000041c _ZN3TCB4sendEPS_PKc
     /tmp/ccPUJK6q.s:729    .text:000000000000041c .L0 
     /tmp/ccPUJK6q.s:731    .text:000000000000041c .L0 
     /tmp/ccPUJK6q.s:732    .text:0000000000000420 .L0 
     /tmp/ccPUJK6q.s:737    .text:0000000000000430 .L0 
     /tmp/ccPUJK6q.s:738    .text:0000000000000430 .L0 
     /tmp/ccPUJK6q.s:739    .text:0000000000000430 .L0 
GAS LISTING /tmp/ccPUJK6q.s 			page 27


     /tmp/ccPUJK6q.s:740    .text:0000000000000430 .L0 
     /tmp/ccPUJK6q.s:742    .text:0000000000000434 .L0 
     /tmp/ccPUJK6q.s:746    .text:000000000000043c .L0 
     /tmp/ccPUJK6q.s:747    .text:000000000000043c .L0 
     /tmp/ccPUJK6q.s:752    .text:0000000000000448 .L0 
     /tmp/ccPUJK6q.s:753    .text:0000000000000448 .L0 
     /tmp/ccPUJK6q.s:755    .text:000000000000044c .L0 
     /tmp/ccPUJK6q.s:756    .text:000000000000044c .L0 
     /tmp/ccPUJK6q.s:760    .text:0000000000000458 .L0 
     /tmp/ccPUJK6q.s:761    .text:000000000000045c .L0 
     /tmp/ccPUJK6q.s:763    .text:0000000000000460 .L0 
     /tmp/ccPUJK6q.s:764    .text:0000000000000460 .L0 
     /tmp/ccPUJK6q.s:766    .text:0000000000000464 .L0 
     /tmp/ccPUJK6q.s:769    .text:0000000000000468 .L0 
     /tmp/ccPUJK6q.s:772    .text:000000000000046c .L0 
     /tmp/ccPUJK6q.s:774    .text:0000000000000470 .L0 
     /tmp/ccPUJK6q.s:780    .text:0000000000000470 _ZN3TCB7receiveEv
     /tmp/ccPUJK6q.s:783    .text:0000000000000470 .L0 
     /tmp/ccPUJK6q.s:784    .text:0000000000000470 .L0 
     /tmp/ccPUJK6q.s:785    .text:0000000000000474 .L0 
     /tmp/ccPUJK6q.s:789    .text:0000000000000480 .L0 
     /tmp/ccPUJK6q.s:790    .text:0000000000000480 .L0 
     /tmp/ccPUJK6q.s:791    .text:0000000000000480 .L0 
     /tmp/ccPUJK6q.s:793    .text:0000000000000484 .L0 
     /tmp/ccPUJK6q.s:795    .text:0000000000000484 .L0 
     /tmp/ccPUJK6q.s:796    .text:0000000000000484 .L0 
     /tmp/ccPUJK6q.s:802    .text:000000000000049c .L0 
     /tmp/ccPUJK6q.s:803    .text:000000000000049c .L0 
     /tmp/ccPUJK6q.s:808    .text:00000000000004ac .L0 
     /tmp/ccPUJK6q.s:809    .text:00000000000004ac .L0 
     /tmp/ccPUJK6q.s:811    .text:00000000000004b0 .L0 
     /tmp/ccPUJK6q.s:813    .text:00000000000004b8 .L0 
     /tmp/ccPUJK6q.s:815    .text:00000000000004bc .L0 
     /tmp/ccPUJK6q.s:816    .text:00000000000004bc .L0 
     /tmp/ccPUJK6q.s:818    .text:00000000000004c0 .L0 
     /tmp/ccPUJK6q.s:820    .text:00000000000004c4 .L0 
     /tmp/ccPUJK6q.s:822    .text:00000000000004c8 .L0 
     /tmp/ccPUJK6q.s:840    .bss:0000000000000000 _ZN3TCB7max_semE
     /tmp/ccPUJK6q.s:833    .data:0000000000000000 _ZN3TCB11max_threadsE
     /tmp/ccPUJK6q.s:844    .bss:0000000000000008 _ZN3TCB7runningE
     /tmp/ccPUJK6q.s:830    .data:0000000000000000 .LANCHOR1
     /tmp/ccPUJK6q.s:837    .bss:0000000000000000 .LANCHOR0
     /tmp/ccPUJK6q.s:855    .text:00000000000004c8 .L0 
     /tmp/ccPUJK6q.s:30     .text:000000000000001c .L0 
     /tmp/ccPUJK6q.s:79     .text:0000000000000070 .L0 
     /tmp/ccPUJK6q.s:113    .text:0000000000000094 .L0 
     /tmp/ccPUJK6q.s:241    .text:0000000000000158 .L0 
     /tmp/ccPUJK6q.s:292    .text:00000000000001b8 .L0 
     /tmp/ccPUJK6q.s:352    .text:0000000000000210 .L0 
     /tmp/ccPUJK6q.s:356    .text:000000000000021c .L0 
     /tmp/ccPUJK6q.s:508    .text:00000000000002dc .L0 
     /tmp/ccPUJK6q.s:540    .text:0000000000000310 .L0 
     /tmp/ccPUJK6q.s:596    .text:0000000000000364 .L0 
     /tmp/ccPUJK6q.s:661    .text:00000000000003c4 .L0 
     /tmp/ccPUJK6q.s:712    .text:0000000000000408 .L0 
     /tmp/ccPUJK6q.s:796    .text:0000000000000484 .L0 
     /tmp/ccPUJK6q.s:107    .text:000000000000008c .L4
GAS LISTING /tmp/ccPUJK6q.s 			page 28


     /tmp/ccPUJK6q.s:134    .text:00000000000000c0 .L6
     /tmp/ccPUJK6q.s:321    .text:00000000000001f0 .L10
     /tmp/ccPUJK6q.s:347    .text:0000000000000210 .L12
     /tmp/ccPUJK6q.s:337    .text:0000000000000204 .L13
     /tmp/ccPUJK6q.s:230    .text:0000000000000148 .L11
     /tmp/ccPUJK6q.s:266    .text:0000000000000184 .L14
     /tmp/ccPUJK6q.s:449    .text:00000000000002b8 .L19
     /tmp/ccPUJK6q.s:568    .text:0000000000000354 .L28
     /tmp/ccPUJK6q.s:627    .text:00000000000003a0 .L35
     /tmp/ccPUJK6q.s:633    .text:00000000000003a8 .L36
     /tmp/ccPUJK6q.s:679    .text:00000000000003e8 .L41
     /tmp/ccPUJK6q.s:665    .text:00000000000003d0 .L43
     /tmp/ccPUJK6q.s:406    .text:000000000000026c .LEHB0
     /tmp/ccPUJK6q.s:371    .text:0000000000000230 .LFB47
     /tmp/ccPUJK6q.s:409    .text:0000000000000274 .LEHE0
     /tmp/ccPUJK6q.s:414    .text:0000000000000284 .LEHB1
     /tmp/ccPUJK6q.s:417    .text:000000000000028c .LEHE1
     /tmp/ccPUJK6q.s:456    .text:00000000000002c0 .L20
     /tmp/ccPUJK6q.s:472    .text:00000000000002d4 .LEHB2
     /tmp/ccPUJK6q.s:475    .text:00000000000002dc .LEHE2
     /tmp/ccPUJK6q.s:2899   .debug_abbrev:0000000000000000 .Ldebug_abbrev0
     /tmp/ccPUJK6q.s:5026   .debug_str:0000000000000ab3 .LASF206
     /tmp/ccPUJK6q.s:4754   .debug_str:00000000000002b0 .LASF207
     /tmp/ccPUJK6q.s:5032   .debug_str:0000000000000b93 .LASF208
     /tmp/ccPUJK6q.s:5      .text:0000000000000000 .Ltext0
     /tmp/ccPUJK6q.s:847    .text:00000000000004c8 .Letext0
     /tmp/ccPUJK6q.s:4666   .debug_line:0000000000000000 .Ldebug_line0
     /tmp/ccPUJK6q.s:4800   .debug_str:0000000000000451 .LASF0
     /tmp/ccPUJK6q.s:4834   .debug_str:0000000000000558 .LASF1
     /tmp/ccPUJK6q.s:4948   .debug_str:0000000000000892 .LASF2
     /tmp/ccPUJK6q.s:4778   .debug_str:00000000000003a1 .LASF3
     /tmp/ccPUJK6q.s:4956   .debug_str:00000000000008d6 .LASF4
     /tmp/ccPUJK6q.s:4816   .debug_str:00000000000004cc .LASF5
     /tmp/ccPUJK6q.s:4680   .debug_str:0000000000000068 .LASF6
     /tmp/ccPUJK6q.s:4912   .debug_str:000000000000078d .LASF7
     /tmp/ccPUJK6q.s:4826   .debug_str:0000000000000528 .LASF8
     /tmp/ccPUJK6q.s:4776   .debug_str:0000000000000391 .LASF9
     /tmp/ccPUJK6q.s:4782   .debug_str:00000000000003c4 .LASF10
     /tmp/ccPUJK6q.s:4714   .debug_str:0000000000000179 .LASF11
     /tmp/ccPUJK6q.s:4766   .debug_str:0000000000000345 .LASF12
     /tmp/ccPUJK6q.s:4728   .debug_str:00000000000001db .LASF13
     /tmp/ccPUJK6q.s:4712   .debug_str:0000000000000169 .LASF14
     /tmp/ccPUJK6q.s:5002   .debug_str:0000000000000a1f .LASF15
     /tmp/ccPUJK6q.s:5006   .debug_str:0000000000000a40 .LASF16
     /tmp/ccPUJK6q.s:4990   .debug_str:00000000000009c9 .LASF17
     /tmp/ccPUJK6q.s:4820   .debug_str:00000000000004e3 .LASF36
     /tmp/ccPUJK6q.s:4716   .debug_str:0000000000000188 .LASF18
     /tmp/ccPUJK6q.s:4690   .debug_str:00000000000000bc .LASF19
     /tmp/ccPUJK6q.s:4832   .debug_str:0000000000000553 .LASF20
     /tmp/ccPUJK6q.s:5038   .debug_str:0000000000000bde .LASF21
     /tmp/ccPUJK6q.s:4848   .debug_str:00000000000005a6 .LASF22
     /tmp/ccPUJK6q.s:4908   .debug_str:0000000000000771 .LASF31
     /tmp/ccPUJK6q.s:4994   .debug_str:00000000000009f2 .LASF33
     /tmp/ccPUJK6q.s:4694   .debug_str:00000000000000d3 .LASF27
     /tmp/ccPUJK6q.s:5092   .debug_str:0000000000000d5e .LASF29
     /tmp/ccPUJK6q.s:4870   .debug_str:000000000000064a .LASF23
     /tmp/ccPUJK6q.s:4684   .debug_str:000000000000007a .LASF25
GAS LISTING /tmp/ccPUJK6q.s 			page 29


     /tmp/ccPUJK6q.s:5008   .debug_str:0000000000000a56 .LASF24
     /tmp/ccPUJK6q.s:4872   .debug_str:0000000000000654 .LASF26
     /tmp/ccPUJK6q.s:5096   .debug_str:0000000000000d8b .LASF80
     /tmp/ccPUJK6q.s:4732   .debug_str:00000000000001f4 .LASF82
     /tmp/ccPUJK6q.s:4672   .debug_str:0000000000000014 .LASF28
     /tmp/ccPUJK6q.s:4704   .debug_str:000000000000010d .LASF30
     /tmp/ccPUJK6q.s:4774   .debug_str:0000000000000387 .LASF32
     /tmp/ccPUJK6q.s:4982   .debug_str:0000000000000984 .LASF34
     /tmp/ccPUJK6q.s:5084   .debug_str:0000000000000cf8 .LASF209
     /tmp/ccPUJK6q.s:4790   .debug_str:00000000000003ee .LASF210
     /tmp/ccPUJK6q.s:5058   .debug_str:0000000000000c45 .LASF35
     /tmp/ccPUJK6q.s:5048   .debug_str:0000000000000c18 .LASF37
     /tmp/ccPUJK6q.s:4830   .debug_str:000000000000054e .LASF38
     /tmp/ccPUJK6q.s:5090   .debug_str:0000000000000d3f .LASF102
     /tmp/ccPUJK6q.s:4882   .debug_str:00000000000006ab .LASF39
     /tmp/ccPUJK6q.s:4876   .debug_str:0000000000000687 .LASF40
     /tmp/ccPUJK6q.s:4992   .debug_str:00000000000009df .LASF41
     /tmp/ccPUJK6q.s:4762   .debug_str:0000000000000317 .LASF47
     /tmp/ccPUJK6q.s:4950   .debug_str:00000000000008a0 .LASF175
     /tmp/ccPUJK6q.s:4938   .debug_str:0000000000000851 .LASF177
     /tmp/ccPUJK6q.s:4942   .debug_str:0000000000000875 .LASF42
     /tmp/ccPUJK6q.s:4706   .debug_str:000000000000012a .LASF43
     /tmp/ccPUJK6q.s:4844   .debug_str:0000000000000589 .LASF44
     /tmp/ccPUJK6q.s:4758   .debug_str:00000000000002e0 .LASF45
     /tmp/ccPUJK6q.s:4910   .debug_str:0000000000000781 .LASF46
     /tmp/ccPUJK6q.s:5060   .debug_str:0000000000000c4f .LASF48
     /tmp/ccPUJK6q.s:5102   .debug_str:0000000000000da0 .LASF49
     /tmp/ccPUJK6q.s:5088   .debug_str:0000000000000d24 .LASF50
     /tmp/ccPUJK6q.s:4974   .debug_str:0000000000000948 .LASF51
     /tmp/ccPUJK6q.s:4824   .debug_str:000000000000050b .LASF52
     /tmp/ccPUJK6q.s:4934   .debug_str:000000000000083f .LASF53
     /tmp/ccPUJK6q.s:4674   .debug_str:000000000000001a .LASF54
     /tmp/ccPUJK6q.s:4748   .debug_str:0000000000000299 .LASF55
     /tmp/ccPUJK6q.s:4972   .debug_str:000000000000092e .LASF56
     /tmp/ccPUJK6q.s:4722   .debug_str:00000000000001aa .LASF57
     /tmp/ccPUJK6q.s:5010   .debug_str:0000000000000a5f .LASF58
     /tmp/ccPUJK6q.s:4878   .debug_str:000000000000068c .LASF59
     /tmp/ccPUJK6q.s:4700   .debug_str:00000000000000fc .LASF60
     /tmp/ccPUJK6q.s:5040   .debug_str:0000000000000be3 .LASF61
     /tmp/ccPUJK6q.s:5072   .debug_str:0000000000000ca3 .LASF62
     /tmp/ccPUJK6q.s:4708   .debug_str:0000000000000147 .LASF63
     /tmp/ccPUJK6q.s:5012   .debug_str:0000000000000a6a .LASF64
     /tmp/ccPUJK6q.s:4726   .debug_str:00000000000001c5 .LASF65
     /tmp/ccPUJK6q.s:4836   .debug_str:000000000000056b .LASF66
     /tmp/ccPUJK6q.s:5030   .debug_str:0000000000000b83 .LASF67
     /tmp/ccPUJK6q.s:4742   .debug_str:0000000000000269 .LASF68
     /tmp/ccPUJK6q.s:4724   .debug_str:00000000000001b2 .LASF69
     /tmp/ccPUJK6q.s:5024   .debug_str:0000000000000aab .LASF70
     /tmp/ccPUJK6q.s:5000   .debug_str:0000000000000a12 .LASF71
     /tmp/ccPUJK6q.s:4860   .debug_str:00000000000005de .LASF72
     /tmp/ccPUJK6q.s:4902   .debug_str:000000000000073d .LASF211
     /tmp/ccPUJK6q.s:4856   .debug_str:00000000000005c5 .LASF73
     /tmp/ccPUJK6q.s:4764   .debug_str:000000000000032e .LASF87
     /tmp/ccPUJK6q.s:5020   .debug_str:0000000000000a95 .LASF74
     /tmp/ccPUJK6q.s:4668   .debug_str:0000000000000000 .LASF75
     /tmp/ccPUJK6q.s:4868   .debug_str:000000000000063f .LASF76
     /tmp/ccPUJK6q.s:5018   .debug_str:0000000000000a7f .LASF77
GAS LISTING /tmp/ccPUJK6q.s 			page 30


     /tmp/ccPUJK6q.s:4922   .debug_str:00000000000007f6 .LASF212
     /tmp/ccPUJK6q.s:4958   .debug_str:00000000000008dd .LASF78
     /tmp/ccPUJK6q.s:4678   .debug_str:000000000000005c .LASF79
     /tmp/ccPUJK6q.s:4940   .debug_str:0000000000000868 .LASF81
     /tmp/ccPUJK6q.s:4978   .debug_str:0000000000000958 .LASF83
     /tmp/ccPUJK6q.s:4898   .debug_str:0000000000000731 .LASF84
     /tmp/ccPUJK6q.s:4980   .debug_str:0000000000000970 .LASF85
     /tmp/ccPUJK6q.s:4852   .debug_str:00000000000005b1 .LASF86
     /tmp/ccPUJK6q.s:4874   .debug_str:0000000000000675 .LASF88
     /tmp/ccPUJK6q.s:5052   .debug_str:0000000000000c28 .LASF89
     /tmp/ccPUJK6q.s:4686   .debug_str:000000000000009b .LASF90
     /tmp/ccPUJK6q.s:4670   .debug_str:000000000000000f .LASF91
     /tmp/ccPUJK6q.s:4850   .debug_str:00000000000005ab .LASF92
     /tmp/ccPUJK6q.s:5036   .debug_str:0000000000000bd6 .LASF93
     /tmp/ccPUJK6q.s:4988   .debug_str:00000000000009c0 .LASF94
     /tmp/ccPUJK6q.s:4894   .debug_str:0000000000000714 .LASF95
     /tmp/ccPUJK6q.s:5100   .debug_str:0000000000000d99 .LASF96
     /tmp/ccPUJK6q.s:4744   .debug_str:0000000000000272 .LASF153
     /tmp/ccPUJK6q.s:4772   .debug_str:000000000000036d .LASF155
     /tmp/ccPUJK6q.s:4730   .debug_str:00000000000001eb .LASF97
     /tmp/ccPUJK6q.s:4986   .debug_str:00000000000009b4 .LASF98
     /tmp/ccPUJK6q.s:4932   .debug_str:0000000000000837 .LASF99
     /tmp/ccPUJK6q.s:5028   .debug_str:0000000000000b77 .LASF100
     /tmp/ccPUJK6q.s:4734   .debug_str:000000000000021a .LASF101
     /tmp/ccPUJK6q.s:4676   .debug_str:0000000000000034 .LASF103
     /tmp/ccPUJK6q.s:5064   .debug_str:0000000000000c74 .LASF104
     /tmp/ccPUJK6q.s:4810   .debug_str:0000000000000495 .LASF105
     /tmp/ccPUJK6q.s:4984   .debug_str:0000000000000995 .LASF106
     /tmp/ccPUJK6q.s:4968   .debug_str:0000000000000913 .LASF107
     /tmp/ccPUJK6q.s:4760   .debug_str:00000000000002fc .LASF108
     /tmp/ccPUJK6q.s:4804   .debug_str:000000000000046e .LASF109
     /tmp/ccPUJK6q.s:5070   .debug_str:0000000000000c89 .LASF110
     /tmp/ccPUJK6q.s:4786   .debug_str:00000000000003dd .LASF111
     /tmp/ccPUJK6q.s:4796   .debug_str:0000000000000429 .LASF112
     /tmp/ccPUJK6q.s:5044   .debug_str:0000000000000c09 .LASF113
     /tmp/ccPUJK6q.s:4846   .debug_str:0000000000000591 .LASF114
     /tmp/ccPUJK6q.s:4944   .debug_str:000000000000087e .LASF115
     /tmp/ccPUJK6q.s:4896   .debug_str:000000000000071c .LASF116
     /tmp/ccPUJK6q.s:4926   .debug_str:0000000000000813 .LASF117
     /tmp/ccPUJK6q.s:4928   .debug_str:000000000000081a .LASF118
     /tmp/ccPUJK6q.s:4886   .debug_str:00000000000006ca .LASF119
     /tmp/ccPUJK6q.s:4828   .debug_str:000000000000053b .LASF120
     /tmp/ccPUJK6q.s:5074   .debug_str:0000000000000cad .LASF121
     /tmp/ccPUJK6q.s:4998   .debug_str:00000000000009fe .LASF122
     /tmp/ccPUJK6q.s:4880   .debug_str:00000000000006a3 .LASF123
     /tmp/ccPUJK6q.s:4768   .debug_str:0000000000000354 .LASF124
     /tmp/ccPUJK6q.s:4840   .debug_str:000000000000057a .LASF125
     /tmp/ccPUJK6q.s:4814   .debug_str:00000000000004b8 .LASF126
     /tmp/ccPUJK6q.s:5098   .debug_str:0000000000000d91 .LASF127
     /tmp/ccPUJK6q.s:4808   .debug_str:0000000000000481 .LASF128
     /tmp/ccPUJK6q.s:4996   .debug_str:00000000000009f7 .LASF129
     /tmp/ccPUJK6q.s:4962   .debug_str:00000000000008e8 .LASF130
     /tmp/ccPUJK6q.s:4964   .debug_str:00000000000008fb .LASF131
     /tmp/ccPUJK6q.s:4720   .debug_str:0000000000000197 .LASF132
     /tmp/ccPUJK6q.s:4960   .debug_str:00000000000008e2 .LASF133
     /tmp/ccPUJK6q.s:4792   .debug_str:0000000000000406 .LASF134
     /tmp/ccPUJK6q.s:4806   .debug_str:000000000000047b .LASF135
GAS LISTING /tmp/ccPUJK6q.s 			page 31


     /tmp/ccPUJK6q.s:4740   .debug_str:0000000000000257 .LASF136
     /tmp/ccPUJK6q.s:4682   .debug_str:000000000000006f .LASF137
     /tmp/ccPUJK6q.s:4952   .debug_str:00000000000008aa .LASF138
     /tmp/ccPUJK6q.s:4946   .debug_str:0000000000000887 .LASF139
     /tmp/ccPUJK6q.s:4746   .debug_str:0000000000000281 .LASF140
     /tmp/ccPUJK6q.s:5066   .debug_str:0000000000000c7a .LASF141
     /tmp/ccPUJK6q.s:5078   .debug_str:0000000000000cbc .LASF142
     /tmp/ccPUJK6q.s:4718   .debug_str:000000000000018d .LASF143
     /tmp/ccPUJK6q.s:4866   .debug_str:0000000000000629 .LASF144
     /tmp/ccPUJK6q.s:5042   .debug_str:0000000000000bfa .LASF145
     /tmp/ccPUJK6q.s:4780   .debug_str:00000000000003a8 .LASF146
     /tmp/ccPUJK6q.s:4966   .debug_str:0000000000000902 .LASF147
     /tmp/ccPUJK6q.s:4906   .debug_str:0000000000000753 .LASF148
     /tmp/ccPUJK6q.s:5068   .debug_str:0000000000000c84 .LASF149
     /tmp/ccPUJK6q.s:4904   .debug_str:0000000000000742 .LASF150
     /tmp/ccPUJK6q.s:4818   .debug_str:00000000000004de .LASF151
     /tmp/ccPUJK6q.s:5022   .debug_str:0000000000000a9a .LASF152
     /tmp/ccPUJK6q.s:4914   .debug_str:00000000000007a0 .LASF154
     /tmp/ccPUJK6q.s:4822   .debug_str:00000000000004e9 .LASF156
     /tmp/ccPUJK6q.s:5004   .debug_str:0000000000000a2b .LASF157
     /tmp/ccPUJK6q.s:4888   .debug_str:00000000000006d1 .LASF158
     /tmp/ccPUJK6q.s:4736   .debug_str:0000000000000228 .LASF159
     /tmp/ccPUJK6q.s:4756   .debug_str:00000000000002bc .LASF160
     /tmp/ccPUJK6q.s:5056   .debug_str:0000000000000c3c .LASF161
     /tmp/ccPUJK6q.s:4924   .debug_str:000000000000080d .LASF162
     /tmp/ccPUJK6q.s:5014   .debug_str:0000000000000a75 .LASF163
     /tmp/ccPUJK6q.s:5050   .debug_str:0000000000000c1d .LASF213
     /tmp/ccPUJK6q.s:4710   .debug_str:000000000000015c .LASF164
     /tmp/ccPUJK6q.s:4936   .debug_str:0000000000000848 .LASF165
     /tmp/ccPUJK6q.s:5086   .debug_str:0000000000000d0c .LASF166
     /tmp/ccPUJK6q.s:4930   .debug_str:000000000000082d .LASF167
     /tmp/ccPUJK6q.s:4688   .debug_str:00000000000000a5 .LASF168
     /tmp/ccPUJK6q.s:4838   .debug_str:0000000000000571 .LASF169
     /tmp/ccPUJK6q.s:4864   .debug_str:0000000000000613 .LASF170
     /tmp/ccPUJK6q.s:4784   .debug_str:00000000000003d2 .LASF171
     /tmp/ccPUJK6q.s:5034   .debug_str:0000000000000bbd .LASF172
     /tmp/ccPUJK6q.s:4916   .debug_str:00000000000007b5 .LASF173
     /tmp/ccPUJK6q.s:4884   .debug_str:00000000000006b0 .LASF174
     /tmp/ccPUJK6q.s:4752   .debug_str:00000000000002aa .LASF176
     /tmp/ccPUJK6q.s:4858   .debug_str:00000000000005d1 .LASF178
     /tmp/ccPUJK6q.s:4788   .debug_str:00000000000003e8 .LASF179
     /tmp/ccPUJK6q.s:5062   .debug_str:0000000000000c6d .LASF180
     /tmp/ccPUJK6q.s:4862   .debug_str:0000000000000605 .LASF181
     /tmp/ccPUJK6q.s:5016   .debug_str:0000000000000a7a .LASF182
     /tmp/ccPUJK6q.s:4750   .debug_str:00000000000002a1 .LASF183
     /tmp/ccPUJK6q.s:4698   .debug_str:00000000000000eb .LASF184
     /tmp/ccPUJK6q.s:4920   .debug_str:00000000000007e0 .LASF185
     /tmp/ccPUJK6q.s:5094   .debug_str:0000000000000d7a .LASF186
     /tmp/ccPUJK6q.s:4798   .debug_str:0000000000000441 .LASF214
     /tmp/ccPUJK6q.s:4770   .debug_str:0000000000000368 .LASF187
     /tmp/ccPUJK6q.s:4918   .debug_str:00000000000007c1 .LASF188
     /tmp/ccPUJK6q.s:4702   .debug_str:0000000000000108 .LASF195
     /tmp/ccPUJK6q.s:4696   .debug_str:00000000000000d8 .LASF189
     /tmp/ccPUJK6q.s:781    .text:0000000000000470 .LFB54
     /tmp/ccPUJK6q.s:823    .text:00000000000004c8 .LFE54
     /tmp/ccPUJK6q.s:800    .text:000000000000049c .LVL75
     /tmp/ccPUJK6q.s:806    .text:00000000000004ac .LVL76
GAS LISTING /tmp/ccPUJK6q.s 			page 32


     /tmp/ccPUJK6q.s:727    .text:000000000000041c .LFB53
     /tmp/ccPUJK6q.s:775    .text:0000000000000470 .LFE53
     /tmp/ccPUJK6q.s:4202   .debug_loc:0000000000000000 .LLST25
     /tmp/ccPUJK6q.s:4220   .debug_loc:000000000000004c .LLST26
     /tmp/ccPUJK6q.s:750    .text:0000000000000448 .LVL71
     /tmp/ccPUJK6q.s:758    .text:0000000000000458 .LVL72
     /tmp/ccPUJK6q.s:700    .text:00000000000003fc .LFB52
     /tmp/ccPUJK6q.s:721    .text:000000000000041c .LFE52
     /tmp/ccPUJK6q.s:4842   .debug_str:0000000000000582 .LASF190
     /tmp/ccPUJK6q.s:645    .text:00000000000003b0 .LFB51
     /tmp/ccPUJK6q.s:694    .text:00000000000003fc .LFE51
     /tmp/ccPUJK6q.s:659    .text:00000000000003c4 .LBB48
     /tmp/ccPUJK6q.s:680    .text:00000000000003e8 .LBE48
     /tmp/ccPUJK6q.s:4976   .debug_str:0000000000000953 .LASF191
     /tmp/ccPUJK6q.s:4238   .debug_loc:0000000000000098 .LLST24
     /tmp/ccPUJK6q.s:672    .text:00000000000003e0 .LVL65
     /tmp/ccPUJK6q.s:580    .text:000000000000035c .LFB50
     /tmp/ccPUJK6q.s:639    .text:00000000000003b0 .LFE50
     /tmp/ccPUJK6q.s:4245   .debug_loc:00000000000000bb .LLST22
     /tmp/ccPUJK6q.s:585    .text:000000000000035c .LBB46
     /tmp/ccPUJK6q.s:592    .text:0000000000000360 .LBE46
     /tmp/ccPUJK6q.s:4281   .debug_loc:0000000000000146 .LLST23
     /tmp/ccPUJK6q.s:613    .text:000000000000038c .LVL59
     /tmp/ccPUJK6q.s:10     .text:0000000000000000 .LFB49
     /tmp/ccPUJK6q.s:58     .text:000000000000005c .LFE49
     /tmp/ccPUJK6q.s:27     .text:000000000000001c .LVL0
     /tmp/ccPUJK6q.s:33     .text:0000000000000030 .LVL1
     /tmp/ccPUJK6q.s:45     .text:0000000000000048 .LVL3
     /tmp/ccPUJK6q.s:503    .text:00000000000002dc .LFB48
     /tmp/ccPUJK6q.s:574    .text:000000000000035c .LFE48
     /tmp/ccPUJK6q.s:524    .text:00000000000002fc .LBB44
     /tmp/ccPUJK6q.s:532    .text:0000000000000304 .LBE44
     /tmp/ccPUJK6q.s:4288   .debug_loc:0000000000000169 .LLST20
     /tmp/ccPUJK6q.s:4296   .debug_loc:000000000000018d .LLST21
     /tmp/ccPUJK6q.s:537    .text:0000000000000310 .LVL52
     /tmp/ccPUJK6q.s:544    .text:0000000000000328 .LVL53
     /tmp/ccPUJK6q.s:549    .text:0000000000000334 .LVL54
     /tmp/ccPUJK6q.s:553    .text:000000000000033c .LVL55
     /tmp/ccPUJK6q.s:477    .text:00000000000002dc .LFE47
     /tmp/ccPUJK6q.s:5076   .debug_str:0000000000000cb5 .LASF192
     /tmp/ccPUJK6q.s:4303   .debug_loc:00000000000001b0 .LLST15
     /tmp/ccPUJK6q.s:4343   .debug_loc:000000000000024e .LLST16
     /tmp/ccPUJK6q.s:4369   .debug_loc:00000000000002c0 .LLST17
     /tmp/ccPUJK6q.s:4854   .debug_str:00000000000005b9 .LASF193
     /tmp/ccPUJK6q.s:4395   .debug_loc:0000000000000332 .LLST18
     /tmp/ccPUJK6q.s:5054   .debug_str:0000000000000c31 .LASF194
     /tmp/ccPUJK6q.s:4421   .debug_loc:00000000000003a4 .LLST19
     /tmp/ccPUJK6q.s:408    .text:0000000000000274 .LVL37
     /tmp/ccPUJK6q.s:416    .text:000000000000028c .LVL38
     /tmp/ccPUJK6q.s:470    .text:00000000000002d0 .LVL48
     /tmp/ccPUJK6q.s:474    .text:00000000000002dc .LVL49
     /tmp/ccPUJK6q.s:4812   .debug_str:00000000000004a3 .LASF196
     /tmp/ccPUJK6q.s:5080   .debug_str:0000000000000cd2 .LASF215
     /tmp/ccPUJK6q.s:188    .text:0000000000000108 .LFB45
     /tmp/ccPUJK6q.s:363    .text:0000000000000230 .LFE45
     /tmp/ccPUJK6q.s:4434   .debug_loc:00000000000003dc .LLST3
     /tmp/ccPUJK6q.s:4456   .debug_loc:000000000000043b .LLST4
GAS LISTING /tmp/ccPUJK6q.s 			page 33


     /tmp/ccPUJK6q.s:4493   .debug_loc:00000000000004d6 .LLST5
     /tmp/ccPUJK6q.s:4518   .debug_loc:0000000000000538 .LLST6
     /tmp/ccPUJK6q.s:332    .text:00000000000001fc .LVL31
     /tmp/ccPUJK6q.s:213    .text:0000000000000138 .LBB30
     /tmp/ccPUJK6q.s:221    .text:0000000000000140 .LBE30
     /tmp/ccPUJK6q.s:4543   .debug_loc:000000000000059a .LLST7
     /tmp/ccPUJK6q.s:326    .text:00000000000001f0 .LBB34
     /tmp/ccPUJK6q.s:338    .text:0000000000000204 .LBE34
     /tmp/ccPUJK6q.s:4552   .debug_loc:00000000000005c0 .LLST8
     /tmp/ccPUJK6q.s:243    .text:0000000000000160 .LBB35
     /tmp/ccPUJK6q.s:4658   .debug_ranges:0000000000000000 .Ldebug_ranges0
     /tmp/ccPUJK6q.s:4561   .debug_loc:00000000000005e6 .LLST9
     /tmp/ccPUJK6q.s:4572   .debug_loc:000000000000061c .LLST10
     /tmp/ccPUJK6q.s:4587   .debug_loc:0000000000000658 .LLST11
     /tmp/ccPUJK6q.s:249    .text:000000000000016c .LBB37
     /tmp/ccPUJK6q.s:256    .text:0000000000000174 .LBE37
     /tmp/ccPUJK6q.s:4598   .debug_loc:000000000000068e .LLST12
     /tmp/ccPUJK6q.s:4606   .debug_loc:00000000000006b2 .LLST13
     /tmp/ccPUJK6q.s:4613   .debug_loc:00000000000006d5 .LLST14
     /tmp/ccPUJK6q.s:248    .text:000000000000016c .LVL23
     /tmp/ccPUJK6q.s:238    .text:0000000000000158 .LVL21
     /tmp/ccPUJK6q.s:277    .text:0000000000000198 .LVL26
     /tmp/ccPUJK6q.s:283    .text:00000000000001a8 .LVL27
     /tmp/ccPUJK6q.s:289    .text:00000000000001b8 .LVL28
     /tmp/ccPUJK6q.s:358    .text:000000000000022c .LVL34
     /tmp/ccPUJK6q.s:64     .text:000000000000005c .LFB43
     /tmp/ccPUJK6q.s:143    .text:00000000000000d0 .LFE43
     /tmp/ccPUJK6q.s:4620   .debug_loc:00000000000006f8 .LLST0
     /tmp/ccPUJK6q.s:85     .text:000000000000007c .LBB25
     /tmp/ccPUJK6q.s:93     .text:0000000000000080 .LBE25
     /tmp/ccPUJK6q.s:4631   .debug_loc:000000000000072e .LLST1
     /tmp/ccPUJK6q.s:97     .text:0000000000000084 .LBB27
     /tmp/ccPUJK6q.s:104    .text:0000000000000088 .LBE27
     /tmp/ccPUJK6q.s:4638   .debug_loc:0000000000000751 .LLST2
     /tmp/ccPUJK6q.s:111    .text:0000000000000094 .LVL9
     /tmp/ccPUJK6q.s:119    .text:00000000000000ac .LVL10
     /tmp/ccPUJK6q.s:140    .text:00000000000000cc .LVL13
     /tmp/ccPUJK6q.s:149    .text:00000000000000d0 .LFB42
     /tmp/ccPUJK6q.s:182    .text:0000000000000108 .LFE42
     /tmp/ccPUJK6q.s:163    .text:00000000000000e8 .LVL14
     /tmp/ccPUJK6q.s:167    .text:00000000000000f0 .LVL15
     /tmp/ccPUJK6q.s:171    .text:00000000000000f8 .LVL16
     /tmp/ccPUJK6q.s:4892   .debug_str:00000000000006ff .LASF197
     /tmp/ccPUJK6q.s:4890   .debug_str:00000000000006f3 .LASF199
     /tmp/ccPUJK6q.s:4692   .debug_str:00000000000000c1 .LASF198
     /tmp/ccPUJK6q.s:4794   .debug_str:0000000000000418 .LASF200
     /tmp/ccPUJK6q.s:5046   .debug_str:0000000000000c12 .LASF201
     /tmp/ccPUJK6q.s:4970   .debug_str:0000000000000921 .LASF202
     /tmp/ccPUJK6q.s:4900   .debug_str:0000000000000736 .LASF203
     /tmp/ccPUJK6q.s:4802   .debug_str:000000000000045e .LASF204
     /tmp/ccPUJK6q.s:5082   .debug_str:0000000000000ce9 .LASF216
     /tmp/ccPUJK6q.s:4738   .debug_str:000000000000023f .LASF217
     /tmp/ccPUJK6q.s:4954   .debug_str:00000000000008c2 .LASF205
     /tmp/ccPUJK6q.s:730    .text:000000000000041c .LVL69
     /tmp/ccPUJK6q.s:748    .text:0000000000000440 .LVL70
     /tmp/ccPUJK6q.s:767    .text:0000000000000464 .LVL73
     /tmp/ccPUJK6q.s:770    .text:0000000000000468 .LVL74
GAS LISTING /tmp/ccPUJK6q.s 			page 34


     /tmp/ccPUJK6q.s:664    .text:00000000000003d0 .LVL64
     /tmp/ccPUJK6q.s:689    .text:00000000000003f4 .LVL67
     /tmp/ccPUJK6q.s:583    .text:000000000000035c .LVL56
     /tmp/ccPUJK6q.s:611    .text:0000000000000384 .LVL58
     /tmp/ccPUJK6q.s:626    .text:00000000000003a0 .LVL60
     /tmp/ccPUJK6q.s:630    .text:00000000000003a4 .LVL61
     /tmp/ccPUJK6q.s:632    .text:00000000000003a8 .LVL62
     /tmp/ccPUJK6q.s:635    .text:00000000000003ac .LVL63
     /tmp/ccPUJK6q.s:590    .text:0000000000000360 .LVL57
     /tmp/ccPUJK6q.s:523    .text:00000000000002fc .LVL50
     /tmp/ccPUJK6q.s:530    .text:0000000000000304 .LVL51
     /tmp/ccPUJK6q.s:376    .text:0000000000000230 .LVL35
     /tmp/ccPUJK6q.s:405    .text:000000000000026c .LVL36
     /tmp/ccPUJK6q.s:432    .text:00000000000002a0 .LVL39
     /tmp/ccPUJK6q.s:448    .text:00000000000002b8 .LVL44
     /tmp/ccPUJK6q.s:452    .text:00000000000002bc .LVL45
     /tmp/ccPUJK6q.s:455    .text:00000000000002c0 .LVL46
     /tmp/ccPUJK6q.s:466    .text:00000000000002c4 .LVL47
     /tmp/ccPUJK6q.s:435    .text:00000000000002a4 .LVL40
     /tmp/ccPUJK6q.s:438    .text:00000000000002a8 .LVL41
     /tmp/ccPUJK6q.s:441    .text:00000000000002ac .LVL42
     /tmp/ccPUJK6q.s:444    .text:00000000000002b0 .LVL43
     /tmp/ccPUJK6q.s:191    .text:0000000000000108 .LVL17
     /tmp/ccPUJK6q.s:229    .text:0000000000000148 .LVL20
     /tmp/ccPUJK6q.s:314    .text:00000000000001e4 .LVL29
     /tmp/ccPUJK6q.s:320    .text:00000000000001f0 .LVL30
     /tmp/ccPUJK6q.s:242    .text:0000000000000160 .LVL22
     /tmp/ccPUJK6q.s:336    .text:0000000000000204 .LVL32
     /tmp/ccPUJK6q.s:346    .text:0000000000000210 .LVL33
     /tmp/ccPUJK6q.s:212    .text:0000000000000138 .LVL18
     /tmp/ccPUJK6q.s:219    .text:0000000000000140 .LVL19
     /tmp/ccPUJK6q.s:265    .text:0000000000000184 .LVL25
     /tmp/ccPUJK6q.s:254    .text:0000000000000174 .LVL24
     /tmp/ccPUJK6q.s:80     .text:0000000000000078 .LVL4
     /tmp/ccPUJK6q.s:129    .text:00000000000000b8 .LVL11
     /tmp/ccPUJK6q.s:133    .text:00000000000000c0 .LVL12
     /tmp/ccPUJK6q.s:84     .text:000000000000007c .LVL5
     /tmp/ccPUJK6q.s:91     .text:0000000000000080 .LVL6
     /tmp/ccPUJK6q.s:96     .text:0000000000000084 .LVL7
     /tmp/ccPUJK6q.s:102    .text:0000000000000088 .LVL8
     /tmp/ccPUJK6q.s:856    .debug_info:0000000000000000 .Ldebug_info0
     /tmp/ccPUJK6q.s:268    .text:0000000000000184 .LBE35
     /tmp/ccPUJK6q.s:340    .text:0000000000000204 .LBB41
     /tmp/ccPUJK6q.s:349    .text:0000000000000210 .LBE41
     /tmp/ccPUJK6q.s:480    .gcc_except_table:0000000000000000 .LLSDA47

UNDEFINED SYMBOLS
_ZN5Riscv10popSppSpieEv
_Z8sem_waitP4_sem
_Z11thread_exitv
_ZN9Scheduler3getEv
_ZN3TCB13contextSwitchEPNS_7ContextES1_
_ZN9Scheduler3putEP3TCB
_ZN5Riscv13pushRegistersEv
_ZN5Riscv12popRegistersEv
_Znwm
_ZN4_sem8sem_openEPPS_l
GAS LISTING /tmp/ccPUJK6q.s 			page 35


_Z8sem_openPP4_semj
_ZN15MemoryAllocator9mem_allocEm
_ZdlPv
_Unwind_Resume
__gxx_personality_v0
_ZN15MemoryAllocator8mem_freeEPv
_ZN4_sem9sem_closeEPS_
_ZN4_sem10sem_signalEPS_
_Z11thread_joinP3TCB
_ZN4_sem8sem_waitEPS_
