GAS LISTING /tmp/cc5DfMJF.s 			page 1


   1              		.file	"TCB.cpp"
   2              		.option pic
   3              		.option norelax
   4              		.text
   5              	.Ltext0:
   6              		.align	2
   7              		.globl	_ZN3TCB14thread_wrapperEv
   9              	_ZN3TCB14thread_wrapperEv:
  10              	.LFB48:
  11              		.file 1 "src/TCB.cpp"
   1:src/TCB.cpp   **** #include "../lib/hw.h"
   2:src/TCB.cpp   **** #include "../lib/mem.h"
   3:src/TCB.cpp   **** #include "../h/TCB.hpp"
   4:src/TCB.cpp   **** #include "../h/riscv.hpp"
   5:src/TCB.cpp   **** #include "../h/scheduler.hpp"
   6:src/TCB.cpp   **** #include "../test/printing.hpp"
   7:src/TCB.cpp   **** #include "../h/_sem.hpp"
   8:src/TCB.cpp   **** 
   9:src/TCB.cpp   **** TCB *TCB::running = nullptr;
  10:src/TCB.cpp   **** long TCB::max_threads = 0x7FFFFFFF;
  11:src/TCB.cpp   **** _sem* TCB::max_sem = nullptr;
  12:src/TCB.cpp   **** 
  13:src/TCB.cpp   **** void TCB::yield() {
  14:src/TCB.cpp   ****     Riscv::pushRegisters();
  15:src/TCB.cpp   ****     TCB::dispatch();
  16:src/TCB.cpp   ****     Riscv::popRegisters();
  17:src/TCB.cpp   **** }
  18:src/TCB.cpp   **** 
  19:src/TCB.cpp   **** void TCB::dispatch() { //promena konteksta, trenutnu zavrsenu zameni nekom drugom
  20:src/TCB.cpp   ****     TCB *old = running;
  21:src/TCB.cpp   ****     if (old != nullptr && !old->isFinished() && !old->isBlocked()) {
  22:src/TCB.cpp   ****         Scheduler::put(old);
  23:src/TCB.cpp   ****     }
  24:src/TCB.cpp   ****     running = Scheduler::get();
  25:src/TCB.cpp   ****     TCB::contextSwitch(&old->context, &running->context);
  26:src/TCB.cpp   **** }
  27:src/TCB.cpp   **** 
  28:src/TCB.cpp   **** 
  29:src/TCB.cpp   **** TCB::TCB(Body body, void *arg, void *stack_space) : body(body), arg(arg), finished(false),
  30:src/TCB.cpp   ****                                                     blocked(false) {// da li moze drugacije
  31:src/TCB.cpp   ****     if (stack_space) {
  32:src/TCB.cpp   ****         stack = static_cast<uint64 *>(stack_space);
  33:src/TCB.cpp   ****     } else {
  34:src/TCB.cpp   ****         size_t stack_size_in_blocks = (DEFAULT_STACK_SIZE * sizeof(uint64) + MEM_BLOCK_SIZE - 1) / 
  35:src/TCB.cpp   ****         stack = static_cast<uint64 *>(MemoryAllocator::mem_alloc(stack_size_in_blocks * MEM_BLOCK_S
  36:src/TCB.cpp   ****     }
  37:src/TCB.cpp   ****     if (body) {
  38:src/TCB.cpp   ****         Scheduler::put(this);
  39:src/TCB.cpp   ****         running->children.addLast(this);
  40:src/TCB.cpp   ****     } else {
  41:src/TCB.cpp   ****         TCB::running = this;
  42:src/TCB.cpp   ****         _sem::sem_open(&max_sem, max_threads);
  43:src/TCB.cpp   ****     }
  44:src/TCB.cpp   ****     sem_open(&this->joiner, 0);
  45:src/TCB.cpp   ****     context.ra = (uint64) &thread_wrapper;
  46:src/TCB.cpp   ****     context.sp = (uint64) ((char *) stack + DEFAULT_STACK_SIZE - 1);
  47:src/TCB.cpp   **** }
GAS LISTING /tmp/cc5DfMJF.s 			page 2


  48:src/TCB.cpp   **** 
  49:src/TCB.cpp   **** int TCB::createThread(thread_t *handle, Body body, void *arg, void *stack_space) {
  50:src/TCB.cpp   ****     if (!handle) {
  51:src/TCB.cpp   ****         return -1;
  52:src/TCB.cpp   ****     }
  53:src/TCB.cpp   ****     TCB *new_thread = new TCB(body, arg, stack_space); //drugi konstruktor da li imati odma samo je
  54:src/TCB.cpp   ****     *handle = new_thread;
  55:src/TCB.cpp   ****     return 0;
  56:src/TCB.cpp   **** }
  57:src/TCB.cpp   **** 
  58:src/TCB.cpp   **** int TCB::thread_exit() { // da li treba jos nesto
  59:src/TCB.cpp   ****     if (running == nullptr) {
  60:src/TCB.cpp   ****         return -1;
  61:src/TCB.cpp   ****     }
  62:src/TCB.cpp   ****     running->setFinished(true);
  63:src/TCB.cpp   ****     MemoryAllocator::mem_free(running->stack);
  64:src/TCB.cpp   ****     _sem::sem_close(running->joiner);
  65:src/TCB.cpp   ****     _sem::sem_signal(max_sem);
  66:src/TCB.cpp   ****     TCB::dispatch();
  67:src/TCB.cpp   ****     return 0;
  68:src/TCB.cpp   **** }
  69:src/TCB.cpp   **** 
  70:src/TCB.cpp   **** void TCB::thread_wrapper() {
  12              		.loc 1 70 28
  13              		.cfi_startproc
  14 0000 130101FE 		addi	sp,sp,-32
  15              		.cfi_def_cfa_offset 32
  16 0004 233C1100 		sd	ra,24(sp)
  17 0008 23388100 		sd	s0,16(sp)
  18 000c 23349100 		sd	s1,8(sp)
  19              		.cfi_offset 1, -8
  20              		.cfi_offset 8, -16
  21              		.cfi_offset 9, -24
  22 0010 13040102 		addi	s0,sp,32
  23              		.cfi_def_cfa 8, 0
  71:src/TCB.cpp   ****     Riscv::popSppSpie();
  24              		.loc 1 71 5
  25              		.loc 1 71 22 is_stmt 0
  26 0014 97000000 		call	_ZN5Riscv10popSppSpieEv@plt
  26      E7800000 
  27              	.LVL0:
  72:src/TCB.cpp   ****     sem_wait(max_sem);
  28              		.loc 1 72 5 is_stmt 1
  29              		.loc 1 72 13 is_stmt 0
  30 001c 97040000 		lla	s1,.LANCHOR0
  30      93840400 
  31 0024 03B50400 		ld	a0,0(s1)
  32 0028 97000000 		call	_Z8sem_waitP4_sem@plt
  32      E7800000 
  33              	.LVL1:
  73:src/TCB.cpp   ****     running->body(running->arg);
  34              		.loc 1 73 5 is_stmt 1
  35              		.loc 1 73 14 is_stmt 0
  36 0030 83B78400 		ld	a5,8(s1)
  37 0034 03B70700 		ld	a4,0(a5)
  38              		.loc 1 73 18
  39 0038 03B58700 		ld	a0,8(a5)
GAS LISTING /tmp/cc5DfMJF.s 			page 3


  40 003c E7000700 		jalr	a4
  41              	.LVL2:
  74:src/TCB.cpp   ****     ::thread_exit();
  42              		.loc 1 74 5 is_stmt 1
  43              		.loc 1 74 18 is_stmt 0
  44 0040 97000000 		call	_Z11thread_exitv@plt
  44      E7800000 
  45              	.LVL3:
  75:src/TCB.cpp   **** }
  46              		.loc 1 75 1
  47 0048 83308101 		ld	ra,24(sp)
  48              		.cfi_restore 1
  49 004c 03340101 		ld	s0,16(sp)
  50              		.cfi_restore 8
  51              		.cfi_def_cfa 2, 32
  52 0050 83348100 		ld	s1,8(sp)
  53              		.cfi_restore 9
  54 0054 13010102 		addi	sp,sp,32
  55              		.cfi_def_cfa_offset 0
  56 0058 67800000 		jr	ra
  57              		.cfi_endproc
  58              	.LFE48:
  60              		.align	2
  61              		.globl	_ZN3TCB8dispatchEv
  63              	_ZN3TCB8dispatchEv:
  64              	.LFB42:
  19:src/TCB.cpp   ****     TCB *old = running;
  65              		.loc 1 19 22 is_stmt 1
  66              		.cfi_startproc
  67 005c 130101FE 		addi	sp,sp,-32
  68              		.cfi_def_cfa_offset 32
  69 0060 233C1100 		sd	ra,24(sp)
  70 0064 23388100 		sd	s0,16(sp)
  71 0068 23349100 		sd	s1,8(sp)
  72              		.cfi_offset 1, -8
  73              		.cfi_offset 8, -16
  74              		.cfi_offset 9, -24
  75 006c 13040102 		addi	s0,sp,32
  76              		.cfi_def_cfa 8, 0
  20:src/TCB.cpp   ****     if (old != nullptr && !old->isFinished() && !old->isBlocked()) {
  77              		.loc 1 20 5
  20:src/TCB.cpp   ****     if (old != nullptr && !old->isFinished() && !old->isBlocked()) {
  78              		.loc 1 20 10 is_stmt 0
  79 0070 97040000 		ld	s1,.LANCHOR0+8
  79      83B40400 
  80              	.LVL4:
  21:src/TCB.cpp   ****         Scheduler::put(old);
  81              		.loc 1 21 5 is_stmt 1
  21:src/TCB.cpp   ****         Scheduler::put(old);
  82              		.loc 1 21 46 is_stmt 0
  83 0078 638A0400 		beqz	s1,.L4
  84              	.LVL5:
  85              	.LBB25:
  86              	.LBB26:
  87              		.file 2 "src/../h/TCB.hpp"
   1:src/../h/TCB.hpp **** //
   2:src/../h/TCB.hpp **** // Created by os on 9/13/24.
GAS LISTING /tmp/cc5DfMJF.s 			page 4


   3:src/../h/TCB.hpp **** //
   4:src/../h/TCB.hpp **** 
   5:src/../h/TCB.hpp **** #ifndef TCB_HPP
   6:src/../h/TCB.hpp **** #define TCB_HPP
   7:src/../h/TCB.hpp **** 
   8:src/../h/TCB.hpp **** #include "../lib/hw.h"
   9:src/../h/TCB.hpp **** #include "scheduler.hpp"
  10:src/../h/TCB.hpp **** #include "../h/riscv.hpp"
  11:src/../h/TCB.hpp **** #include "../lib/mem.h"
  12:src/../h/TCB.hpp **** #include "syscall_c.hpp"
  13:src/../h/TCB.hpp **** #include "../h/list.hpp"
  14:src/../h/TCB.hpp **** 
  15:src/../h/TCB.hpp **** class TCB {
  16:src/../h/TCB.hpp **** public:
  17:src/../h/TCB.hpp ****     using Body = void (*)(void *);
  18:src/../h/TCB.hpp **** 
  19:src/../h/TCB.hpp ****     bool isFinished() const { return finished; }
  88              		.loc 2 19 31 is_stmt 1
  89              		.loc 2 19 38 is_stmt 0
  90 007c 83C78402 		lbu	a5,40(s1)
  91              	.LVL6:
  92              	.LBE26:
  93              	.LBE25:
  21:src/TCB.cpp   ****         Scheduler::put(old);
  94              		.loc 1 21 24
  95 0080 63960700 		bnez	a5,.L4
  96              	.LVL7:
  97              	.LBB27:
  98              	.LBB28:
  20:src/../h/TCB.hpp **** 
  21:src/../h/TCB.hpp ****     void setFinished(bool value) { finished = value; }
  22:src/../h/TCB.hpp **** 
  23:src/../h/TCB.hpp ****     bool isBlocked() const { return blocked; }
  99              		.loc 2 23 30 is_stmt 1
 100              		.loc 2 23 37 is_stmt 0
 101 0084 83C79402 		lbu	a5,41(s1)
 102              	.LVL8:
 103              	.LBE28:
 104              	.LBE27:
  21:src/TCB.cpp   ****         Scheduler::put(old);
 105              		.loc 1 21 46
 106 0088 638C0702 		beqz	a5,.L6
 107              	.L4:
  24:src/TCB.cpp   ****     TCB::contextSwitch(&old->context, &running->context);
 108              		.loc 1 24 5 is_stmt 1
  24:src/TCB.cpp   ****     TCB::contextSwitch(&old->context, &running->context);
 109              		.loc 1 24 29 is_stmt 0
 110 008c 97000000 		call	_ZN9Scheduler3getEv@plt
 110      E7800000 
 111              	.LVL9:
  24:src/TCB.cpp   ****     TCB::contextSwitch(&old->context, &running->context);
 112              		.loc 1 24 13
 113 0094 97070000 		sd	a0,.LANCHOR0+8,a5
 113      23B0A700 
  25:src/TCB.cpp   **** }
 114              		.loc 1 25 5 is_stmt 1
  25:src/TCB.cpp   **** }
GAS LISTING /tmp/cc5DfMJF.s 			page 5


 115              		.loc 1 25 23 is_stmt 0
 116 009c 93058501 		addi	a1,a0,24
 117 00a0 13858401 		addi	a0,s1,24
 118 00a4 97000000 		call	_ZN3TCB13contextSwitchEPNS_7ContextES1_@plt
 118      E7800000 
 119              	.LVL10:
  26:src/TCB.cpp   **** 
 120              		.loc 1 26 1
 121 00ac 83308101 		ld	ra,24(sp)
 122              		.cfi_remember_state
 123              		.cfi_restore 1
 124 00b0 03340101 		ld	s0,16(sp)
 125              		.cfi_restore 8
 126              		.cfi_def_cfa 2, 32
 127 00b4 83348100 		ld	s1,8(sp)
 128              		.cfi_restore 9
 129              	.LVL11:
 130 00b8 13010102 		addi	sp,sp,32
 131              		.cfi_def_cfa_offset 0
 132 00bc 67800000 		jr	ra
 133              	.LVL12:
 134              	.L6:
 135              		.cfi_restore_state
  22:src/TCB.cpp   ****     }
 136              		.loc 1 22 9 is_stmt 1
  22:src/TCB.cpp   ****     }
 137              		.loc 1 22 23 is_stmt 0
 138 00c0 13850400 		mv	a0,s1
 139 00c4 97000000 		call	_ZN9Scheduler3putEP3TCB@plt
 139      E7800000 
 140              	.LVL13:
 141 00cc 6FF01FFC 		j	.L4
 142              		.cfi_endproc
 143              	.LFE42:
 145              		.align	2
 146              		.globl	_ZN3TCB5yieldEv
 148              	_ZN3TCB5yieldEv:
 149              	.LFB41:
  13:src/TCB.cpp   ****     Riscv::pushRegisters();
 150              		.loc 1 13 19 is_stmt 1
 151              		.cfi_startproc
 152 00d0 130101FF 		addi	sp,sp,-16
 153              		.cfi_def_cfa_offset 16
 154 00d4 23341100 		sd	ra,8(sp)
 155 00d8 23308100 		sd	s0,0(sp)
 156              		.cfi_offset 1, -8
 157              		.cfi_offset 8, -16
 158 00dc 13040101 		addi	s0,sp,16
 159              		.cfi_def_cfa 8, 0
  14:src/TCB.cpp   ****     TCB::dispatch();
 160              		.loc 1 14 5
  14:src/TCB.cpp   ****     TCB::dispatch();
 161              		.loc 1 14 25 is_stmt 0
 162 00e0 97000000 		call	_ZN5Riscv13pushRegistersEv@plt
 162      E7800000 
 163              	.LVL14:
  15:src/TCB.cpp   ****     Riscv::popRegisters();
GAS LISTING /tmp/cc5DfMJF.s 			page 6


 164              		.loc 1 15 5 is_stmt 1
  15:src/TCB.cpp   ****     Riscv::popRegisters();
 165              		.loc 1 15 18 is_stmt 0
 166 00e8 97000000 		call	_ZN3TCB8dispatchEv
 166      E7800000 
 167              	.LVL15:
  16:src/TCB.cpp   **** }
 168              		.loc 1 16 5 is_stmt 1
  16:src/TCB.cpp   **** }
 169              		.loc 1 16 24 is_stmt 0
 170 00f0 97000000 		call	_ZN5Riscv12popRegistersEv@plt
 170      E7800000 
 171              	.LVL16:
  17:src/TCB.cpp   **** 
 172              		.loc 1 17 1
 173 00f8 83308100 		ld	ra,8(sp)
 174              		.cfi_restore 1
 175 00fc 03340100 		ld	s0,0(sp)
 176              		.cfi_restore 8
 177              		.cfi_def_cfa 2, 16
 178 0100 13010101 		addi	sp,sp,16
 179              		.cfi_def_cfa_offset 0
 180 0104 67800000 		jr	ra
 181              		.cfi_endproc
 182              	.LFE41:
 184              		.align	2
 185              		.globl	_ZN3TCBC2EPFvPvES0_S0_
 187              	_ZN3TCBC2EPFvPvES0_S0_:
 188              	.LFB44:
  29:src/TCB.cpp   ****                                                     blocked(false) {// da li moze drugacije
 189              		.loc 1 29 1 is_stmt 1
 190              		.cfi_startproc
 191              	.LVL17:
 192 0108 130101FE 		addi	sp,sp,-32
 193              		.cfi_def_cfa_offset 32
 194 010c 233C1100 		sd	ra,24(sp)
 195 0110 23388100 		sd	s0,16(sp)
 196 0114 23349100 		sd	s1,8(sp)
 197 0118 23302101 		sd	s2,0(sp)
 198              		.cfi_offset 1, -8
 199              		.cfi_offset 8, -16
 200              		.cfi_offset 9, -24
 201              		.cfi_offset 18, -32
 202 011c 13040102 		addi	s0,sp,32
 203              		.cfi_def_cfa 8, 0
 204 0120 93040500 		mv	s1,a0
 205 0124 13890500 		mv	s2,a1
 206              	.LBB29:
  30:src/TCB.cpp   ****     if (stack_space) {
 207              		.loc 1 30 66 is_stmt 0
 208 0128 2330B500 		sd	a1,0(a0)
 209 012c 2334C500 		sd	a2,8(a0)
 210 0130 23040502 		sb	zero,40(a0)
 211 0134 A3040502 		sb	zero,41(a0)
 212              	.LVL18:
 213              	.LBB30:
 214              	.LBB31:
GAS LISTING /tmp/cc5DfMJF.s 			page 7


 215              		.file 3 "src/../h/list.hpp"
   1:src/../h/list.hpp **** //
   2:src/../h/list.hpp **** // Created by os on 9/13/24.
   3:src/../h/list.hpp **** //
   4:src/../h/list.hpp **** 
   5:src/../h/list.hpp **** #ifndef LIST_HPP
   6:src/../h/list.hpp **** #define LIST_HPP
   7:src/../h/list.hpp **** 
   8:src/../h/list.hpp **** #include "../lib/mem.h"
   9:src/../h/list.hpp **** #include "MemoryAllocator.hpp"
  10:src/../h/list.hpp **** template<typename T>
  11:src/../h/list.hpp **** class List{
  12:src/../h/list.hpp ****         private:
  13:src/../h/list.hpp ****         struct Elem
  14:src/../h/list.hpp ****         {
  15:src/../h/list.hpp ****             T *data;
  16:src/../h/list.hpp ****             Elem *next;
  17:src/../h/list.hpp **** 
  18:src/../h/list.hpp ****             Elem(T *data, Elem *next) : data(data), next(next) {}
  19:src/../h/list.hpp **** 
  20:src/../h/list.hpp ****         };
  21:src/../h/list.hpp **** 
  22:src/../h/list.hpp ****         public:
  23:src/../h/list.hpp **** 
  24:src/../h/list.hpp ****         Elem *head, *tail;
  25:src/../h/list.hpp ****         List() : head(0), tail(0) {}
 216              		.loc 3 25 33
 217 0138 233C0502 		sd	zero,56(a0)
 218 013c 23300504 		sd	zero,64(a0)
 219              	.LVL19:
 220              	.LBE31:
 221              	.LBE30:
 222              	.LBB32:
  31:src/TCB.cpp   ****         stack = static_cast<uint64 *>(stack_space);
 223              		.loc 1 31 5 is_stmt 1
 224              	.LBB33:
 225 0140 63860608 		beqz	a3,.L10
  32:src/TCB.cpp   ****     } else {
 226              		.loc 1 32 9
  32:src/TCB.cpp   ****     } else {
 227              		.loc 1 32 15 is_stmt 0
 228 0144 2338D500 		sd	a3,16(a0)
 229              	.LVL20:
 230              	.L11:
 231              	.LBE33:
  37:src/TCB.cpp   ****         Scheduler::put(this);
 232              		.loc 1 37 5 is_stmt 1
 233 0148 6302090A 		beqz	s2,.L12
  38:src/TCB.cpp   ****         running->children.addLast(this);
 234              		.loc 1 38 9
  38:src/TCB.cpp   ****         running->children.addLast(this);
 235              		.loc 1 38 23 is_stmt 0
 236 014c 13850400 		mv	a0,s1
 237 0150 97000000 		call	_ZN9Scheduler3putEP3TCB@plt
 237      E7800000 
 238              	.LVL21:
  39:src/TCB.cpp   ****     } else {
GAS LISTING /tmp/cc5DfMJF.s 			page 8


 239              		.loc 1 39 9 is_stmt 1
  39:src/TCB.cpp   ****     } else {
 240              		.loc 1 39 18 is_stmt 0
 241 0158 17090000 		ld	s2,.LANCHOR0+8
 241      03390900 
 242              	.LVL22:
 243              	.LBB35:
 244              	.LBB36:
  26:src/../h/list.hpp **** 
  27:src/../h/list.hpp ****         List(const List<T> &) = delete;
  28:src/../h/list.hpp **** 
  29:src/../h/list.hpp **** 
  30:src/../h/list.hpp ****         List<T> &operator=(const List<T> &) = delete;
  31:src/../h/list.hpp **** 
  32:src/../h/list.hpp ****         void addFirst(T *data)
  33:src/../h/list.hpp ****         {
  34:src/../h/list.hpp ****             Elem *elem = new Elem(data, head);
  35:src/../h/list.hpp ****             head = elem;
  36:src/../h/list.hpp ****             if (!tail) { tail = head; }
  37:src/../h/list.hpp ****         }
  38:src/../h/list.hpp **** 
  39:src/../h/list.hpp ****         void addLast(T *data)
  40:src/../h/list.hpp ****         {
  41:src/../h/list.hpp ****             Elem *elem = new Elem(data, 0);
 245              		.loc 3 41 26
 246 0160 13050001 		li	a0,16
 247 0164 97000000 		call	_Znwm@plt
 247      E7800000 
 248              	.LVL23:
 249              	.LBB37:
 250              	.LBB38:
  18:src/../h/list.hpp **** 
 251              		.loc 3 18 62
 252 016c 23309500 		sd	s1,0(a0)
 253 0170 23340500 		sd	zero,8(a0)
 254              	.LVL24:
 255              	.LBE38:
 256              	.LBE37:
  42:src/../h/list.hpp ****             if (tail)
 257              		.loc 3 42 17
 258 0174 83370904 		ld	a5,64(s2)
 259              		.loc 3 42 13
 260 0178 63840706 		beqz	a5,.L13
  43:src/../h/list.hpp ****             {
  44:src/../h/list.hpp ****                 tail->next = elem;
 261              		.loc 3 44 17
 262 017c 23B4A700 		sd	a0,8(a5)
  45:src/../h/list.hpp ****                 tail = elem;
 263              		.loc 3 45 17
 264 0180 2330A904 		sd	a0,64(s2)
 265              	.LVL25:
 266              	.L14:
 267              	.LBE36:
 268              	.LBE35:
  44:src/TCB.cpp   ****     context.ra = (uint64) &thread_wrapper;
 269              		.loc 1 44 5 is_stmt 1
  44:src/TCB.cpp   ****     context.ra = (uint64) &thread_wrapper;
GAS LISTING /tmp/cc5DfMJF.s 			page 9


 270              		.loc 1 44 13 is_stmt 0
 271 0184 93050000 		li	a1,0
 272 0188 13850403 		addi	a0,s1,48
 273 018c 97000000 		call	_Z8sem_openPP4_semj@plt
 273      E7800000 
 274              	.LVL26:
  45:src/TCB.cpp   ****     context.sp = (uint64) ((char *) stack + DEFAULT_STACK_SIZE - 1);
 275              		.loc 1 45 5 is_stmt 1
  45:src/TCB.cpp   ****     context.sp = (uint64) ((char *) stack + DEFAULT_STACK_SIZE - 1);
 276              		.loc 1 45 16 is_stmt 0
 277 0194 97070000 		lla	a5,_ZN3TCB14thread_wrapperEv
 277      93870700 
 278 019c 23BCF400 		sd	a5,24(s1)
  46:src/TCB.cpp   **** }
 279              		.loc 1 46 5 is_stmt 1
  46:src/TCB.cpp   **** }
 280              		.loc 1 46 37 is_stmt 0
 281 01a0 83B70401 		ld	a5,16(s1)
  46:src/TCB.cpp   **** }
 282              		.loc 1 46 64
 283 01a4 37170000 		li	a4,4096
 284 01a8 1307F7FF 		addi	a4,a4,-1
 285 01ac B387E700 		add	a5,a5,a4
  46:src/TCB.cpp   **** }
 286              		.loc 1 46 16
 287 01b0 23B0F402 		sd	a5,32(s1)
 288              	.LBE32:
 289              	.LBE29:
  47:src/TCB.cpp   **** 
 290              		.loc 1 47 1
 291 01b4 83308101 		ld	ra,24(sp)
 292              		.cfi_remember_state
 293              		.cfi_restore 1
 294 01b8 03340101 		ld	s0,16(sp)
 295              		.cfi_restore 8
 296              		.cfi_def_cfa 2, 32
 297 01bc 83348100 		ld	s1,8(sp)
 298              		.cfi_restore 9
 299              	.LVL27:
 300 01c0 03390100 		ld	s2,0(sp)
 301              		.cfi_restore 18
 302 01c4 13010102 		addi	sp,sp,32
 303              		.cfi_def_cfa_offset 0
 304 01c8 67800000 		jr	ra
 305              	.LVL28:
 306              	.L10:
 307              		.cfi_restore_state
 308              	.LBB43:
 309              	.LBB42:
 310              	.LBB40:
 311              	.LBB34:
  34:src/TCB.cpp   ****         stack = static_cast<uint64 *>(MemoryAllocator::mem_alloc(stack_size_in_blocks * MEM_BLOCK_S
 312              		.loc 1 34 9 is_stmt 1
  35:src/TCB.cpp   ****     }
 313              		.loc 1 35 9
  35:src/TCB.cpp   ****     }
 314              		.loc 1 35 65 is_stmt 0
GAS LISTING /tmp/cc5DfMJF.s 			page 10


 315 01cc 37850000 		li	a0,32768
 316 01d0 97000000 		call	_ZN15MemoryAllocator9mem_allocEm@plt
 316      E7800000 
 317              	.LVL29:
  35:src/TCB.cpp   ****     }
 318              		.loc 1 35 15
 319 01d8 23B8A400 		sd	a0,16(s1)
 320 01dc 6FF0DFF6 		j	.L11
 321              	.LVL30:
 322              	.L13:
 323              	.LBE34:
 324              	.LBE40:
 325              	.LBB41:
 326              	.LBB39:
  46:src/../h/list.hpp ****             } else
  47:src/../h/list.hpp ****             {
  48:src/../h/list.hpp ****                 head = tail = elem;
 327              		.loc 3 48 17
 328 01e0 2330A904 		sd	a0,64(s2)
 329 01e4 233CA902 		sd	a0,56(s2)
 330 01e8 6FF0DFF9 		j	.L14
 331              	.LVL31:
 332              	.L12:
 333              	.LBE39:
 334              	.LBE41:
  41:src/TCB.cpp   ****         _sem::sem_open(&max_sem, max_threads);
 335              		.loc 1 41 9 is_stmt 1
  41:src/TCB.cpp   ****         _sem::sem_open(&max_sem, max_threads);
 336              		.loc 1 41 22 is_stmt 0
 337 01ec 17050000 		lla	a0,.LANCHOR0
 337      13050500 
 338 01f4 23349500 		sd	s1,8(a0)
  42:src/TCB.cpp   ****     }
 339              		.loc 1 42 9 is_stmt 1
  42:src/TCB.cpp   ****     }
 340              		.loc 1 42 23 is_stmt 0
 341 01f8 97050000 		ld	a1,.LANCHOR1
 341      83B50500 
 342 0200 97000000 		call	_ZN4_sem8sem_openEPPS_l@plt
 342      E7800000 
 343              	.LVL32:
 344 0208 6FF0DFF7 		j	.L14
 345              	.LBE42:
 346              	.LBE43:
 347              		.cfi_endproc
 348              	.LFE44:
 350              		.globl	_ZN3TCBC1EPFvPvES0_S0_
 351              		.set	_ZN3TCBC1EPFvPvES0_S0_,_ZN3TCBC2EPFvPvES0_S0_
 352              		.align	2
 353              		.globl	_ZN3TCB12createThreadEPPS_PFvPvES2_S2_
 355              	_ZN3TCB12createThreadEPPS_PFvPvES2_S2_:
 356              	.LFB46:
  49:src/TCB.cpp   ****     if (!handle) {
 357              		.loc 1 49 82 is_stmt 1
 358              		.cfi_startproc
 359              		.cfi_personality 0x9b,DW.ref.__gxx_personality_v0
 360              		.cfi_lsda 0x1b,.LLSDA46
GAS LISTING /tmp/cc5DfMJF.s 			page 11


 361              	.LVL33:
  50:src/TCB.cpp   ****         return -1;
 362              		.loc 1 50 5
 363 020c 63040508 		beqz	a0,.L19
  49:src/TCB.cpp   ****     if (!handle) {
 364              		.loc 1 49 82 is_stmt 0
 365 0210 130101FC 		addi	sp,sp,-64
 366              		.cfi_def_cfa_offset 64
 367 0214 233C1102 		sd	ra,56(sp)
 368 0218 23388102 		sd	s0,48(sp)
 369 021c 23349102 		sd	s1,40(sp)
 370 0220 23302103 		sd	s2,32(sp)
 371 0224 233C3101 		sd	s3,24(sp)
 372 0228 23384101 		sd	s4,16(sp)
 373 022c 23345101 		sd	s5,8(sp)
 374              		.cfi_offset 1, -8
 375              		.cfi_offset 8, -16
 376              		.cfi_offset 9, -24
 377              		.cfi_offset 18, -32
 378              		.cfi_offset 19, -40
 379              		.cfi_offset 20, -48
 380              		.cfi_offset 21, -56
 381 0230 13040104 		addi	s0,sp,64
 382              		.cfi_def_cfa 8, 0
 383 0234 93040500 		mv	s1,a0
 384 0238 13890500 		mv	s2,a1
 385 023c 93090600 		mv	s3,a2
 386 0240 138A0600 		mv	s4,a3
  53:src/TCB.cpp   ****     *handle = new_thread;
 387              		.loc 1 53 5 is_stmt 1
  53:src/TCB.cpp   ****     *handle = new_thread;
 388              		.loc 1 53 53 is_stmt 0
 389 0244 13058004 		li	a0,72
 390              	.LVL34:
 391              	.LEHB0:
 392 0248 97000000 		call	_Znwm@plt
 392      E7800000 
 393              	.LVL35:
 394              	.LEHE0:
 395 0250 930A0500 		mv	s5,a0
 396 0254 93060A00 		mv	a3,s4
 397 0258 13860900 		mv	a2,s3
 398 025c 93050900 		mv	a1,s2
 399              	.LEHB1:
 400 0260 97000000 		call	_ZN3TCBC1EPFvPvES0_S0_
 400      E7800000 
 401              	.LVL36:
 402              	.LEHE1:
  54:src/TCB.cpp   ****     return 0;
 403              		.loc 1 54 5 is_stmt 1 discriminator 2
  54:src/TCB.cpp   ****     return 0;
 404              		.loc 1 54 13 is_stmt 0 discriminator 2
 405 0268 23B05401 		sd	s5,0(s1)
  55:src/TCB.cpp   **** }
 406              		.loc 1 55 5 is_stmt 1 discriminator 2
  55:src/TCB.cpp   **** }
 407              		.loc 1 55 12 is_stmt 0 discriminator 2
GAS LISTING /tmp/cc5DfMJF.s 			page 12


 408 026c 13050000 		li	a0,0
  56:src/TCB.cpp   **** 
 409              		.loc 1 56 1 discriminator 2
 410 0270 83308103 		ld	ra,56(sp)
 411              		.cfi_restore 1
 412 0274 03340103 		ld	s0,48(sp)
 413              		.cfi_restore 8
 414              		.cfi_def_cfa 2, 64
 415 0278 83348102 		ld	s1,40(sp)
 416              		.cfi_restore 9
 417              	.LVL37:
 418 027c 03390102 		ld	s2,32(sp)
 419              		.cfi_restore 18
 420              	.LVL38:
 421 0280 83398101 		ld	s3,24(sp)
 422              		.cfi_restore 19
 423              	.LVL39:
 424 0284 033A0101 		ld	s4,16(sp)
 425              		.cfi_restore 20
 426              	.LVL40:
 427 0288 833A8100 		ld	s5,8(sp)
 428              		.cfi_restore 21
 429              	.LVL41:
 430 028c 13010104 		addi	sp,sp,64
 431              		.cfi_def_cfa_offset 0
 432 0290 67800000 		jr	ra
 433              	.LVL42:
 434              	.L19:
  51:src/TCB.cpp   ****     }
 435              		.loc 1 51 17
 436 0294 1305F0FF 		li	a0,-1
 437              	.LVL43:
  56:src/TCB.cpp   **** 
 438              		.loc 1 56 1
 439 0298 67800000 		ret
 440              	.LVL44:
 441              	.L20:
 442              		.cfi_def_cfa_register 8
 443              		.cfi_offset 1, -8
 444              		.cfi_offset 8, -16
 445              		.cfi_offset 9, -24
 446              		.cfi_offset 18, -32
 447              		.cfi_offset 19, -40
 448              		.cfi_offset 20, -48
 449              		.cfi_offset 21, -56
 450 029c 93040500 		mv	s1,a0
 451              	.LVL45:
  53:src/TCB.cpp   ****     *handle = new_thread;
 452              		.loc 1 53 53
 453 02a0 13850A00 		mv	a0,s5
 454 02a4 97000000 		call	_ZdlPv@plt
 454      E7800000 
 455              	.LVL46:
 456 02ac 13850400 		mv	a0,s1
 457              	.LEHB2:
 458 02b0 97000000 		call	_Unwind_Resume@plt
 458      E7800000 
GAS LISTING /tmp/cc5DfMJF.s 			page 13


 459              	.LVL47:
 460              	.LEHE2:
 461              		.cfi_endproc
 462              	.LFE46:
 463              		.globl	__gxx_personality_v0
 464              		.section	.gcc_except_table,"a",@progbits
 465              	.LLSDA46:
 466 0000 FF       		.byte	0xff
 467 0001 FF       		.byte	0xff
 468 0002 03       		.byte	0x3
 469 0003 27       		.byte	0x27
 470 0004 00000000 		.4byte	.LEHB0-.LFB46
 471 0008 00000000 		.4byte	.LEHE0-.LEHB0
 472 000c 00000000 		.4byte	0
 473 0010 00       		.byte	0
 474 0011 00000000 		.4byte	.LEHB1-.LFB46
 475 0015 00000000 		.4byte	.LEHE1-.LEHB1
 476 0019 00000000 		.4byte	.L20-.LFB46
 477 001d 00       		.byte	0
 478 001e 00000000 		.4byte	.LEHB2-.LFB46
 479 0022 00000000 		.4byte	.LEHE2-.LEHB2
 480 0026 00000000 		.4byte	0
 481 002a 00       		.byte	0
 482              		.text
 484              		.align	2
 485              		.globl	_ZN3TCB11thread_exitEv
 487              	_ZN3TCB11thread_exitEv:
 488              	.LFB47:
  58:src/TCB.cpp   ****     if (running == nullptr) {
 489              		.loc 1 58 24 is_stmt 1
 490              		.cfi_startproc
  59:src/TCB.cpp   ****         return -1;
 491              		.loc 1 59 5
  59:src/TCB.cpp   ****         return -1;
 492              		.loc 1 59 17 is_stmt 0
 493 02b8 97070000 		ld	a5,.LANCHOR0+8
 493      83B70700 
  59:src/TCB.cpp   ****         return -1;
 494              		.loc 1 59 5
 495 02c0 63880706 		beqz	a5,.L28
  58:src/TCB.cpp   ****     if (running == nullptr) {
 496              		.loc 1 58 24
 497 02c4 130101FE 		addi	sp,sp,-32
 498              		.cfi_def_cfa_offset 32
 499 02c8 233C1100 		sd	ra,24(sp)
 500 02cc 23388100 		sd	s0,16(sp)
 501 02d0 23349100 		sd	s1,8(sp)
 502              		.cfi_offset 1, -8
 503              		.cfi_offset 8, -16
 504              		.cfi_offset 9, -24
 505 02d4 13040102 		addi	s0,sp,32
 506              		.cfi_def_cfa 8, 0
  62:src/TCB.cpp   ****     MemoryAllocator::mem_free(running->stack);
 507              		.loc 1 62 5 is_stmt 1
 508              	.LVL48:
 509              	.LBB44:
 510              	.LBB45:
GAS LISTING /tmp/cc5DfMJF.s 			page 14


  21:src/../h/TCB.hpp **** 
 511              		.loc 2 21 36
  21:src/../h/TCB.hpp **** 
 512              		.loc 2 21 45 is_stmt 0
 513 02d8 13071000 		li	a4,1
 514 02dc 2384E702 		sb	a4,40(a5)
 515              	.LVL49:
 516              	.LBE45:
 517              	.LBE44:
  63:src/TCB.cpp   ****     _sem::sem_close(running->joiner);
 518              		.loc 1 63 5 is_stmt 1
  63:src/TCB.cpp   ****     _sem::sem_close(running->joiner);
 519              		.loc 1 63 30 is_stmt 0
 520 02e0 03B50701 		ld	a0,16(a5)
 521 02e4 97000000 		call	_ZN15MemoryAllocator8mem_freeEPv@plt
 521      E7800000 
 522              	.LVL50:
  64:src/TCB.cpp   ****     _sem::sem_signal(max_sem);
 523              		.loc 1 64 5 is_stmt 1
  64:src/TCB.cpp   ****     _sem::sem_signal(max_sem);
 524              		.loc 1 64 20 is_stmt 0
 525 02ec 97040000 		lla	s1,.LANCHOR0
 525      93840400 
 526 02f4 83B78400 		ld	a5,8(s1)
 527 02f8 03B50703 		ld	a0,48(a5)
 528 02fc 97000000 		call	_ZN4_sem9sem_closeEPS_@plt
 528      E7800000 
 529              	.LVL51:
  65:src/TCB.cpp   ****     TCB::dispatch();
 530              		.loc 1 65 5 is_stmt 1
  65:src/TCB.cpp   ****     TCB::dispatch();
 531              		.loc 1 65 21 is_stmt 0
 532 0304 03B50400 		ld	a0,0(s1)
 533 0308 97000000 		call	_ZN4_sem10sem_signalEPS_@plt
 533      E7800000 
 534              	.LVL52:
  66:src/TCB.cpp   ****     return 0;
 535              		.loc 1 66 5 is_stmt 1
  66:src/TCB.cpp   ****     return 0;
 536              		.loc 1 66 18 is_stmt 0
 537 0310 97000000 		call	_ZN3TCB8dispatchEv
 537      E7800000 
 538              	.LVL53:
  67:src/TCB.cpp   **** }
 539              		.loc 1 67 5 is_stmt 1
  67:src/TCB.cpp   **** }
 540              		.loc 1 67 12 is_stmt 0
 541 0318 13050000 		li	a0,0
  68:src/TCB.cpp   **** 
 542              		.loc 1 68 1
 543 031c 83308101 		ld	ra,24(sp)
 544              		.cfi_restore 1
 545 0320 03340101 		ld	s0,16(sp)
 546              		.cfi_restore 8
 547              		.cfi_def_cfa 2, 32
 548 0324 83348100 		ld	s1,8(sp)
 549              		.cfi_restore 9
GAS LISTING /tmp/cc5DfMJF.s 			page 15


 550 0328 13010102 		addi	sp,sp,32
 551              		.cfi_def_cfa_offset 0
 552 032c 67800000 		jr	ra
 553              	.L28:
  60:src/TCB.cpp   ****     }
 554              		.loc 1 60 17
 555 0330 1305F0FF 		li	a0,-1
  68:src/TCB.cpp   **** 
 556              		.loc 1 68 1
 557 0334 67800000 		ret
 558              		.cfi_endproc
 559              	.LFE47:
 561              		.align	2
 562              		.globl	_ZN3TCB4joinEv
 564              	_ZN3TCB4joinEv:
 565              	.LFB49:
  76:src/TCB.cpp   **** 
  77:src/TCB.cpp   **** int TCB::join() {
 566              		.loc 1 77 17 is_stmt 1
 567              		.cfi_startproc
 568              	.LVL54:
  78:src/TCB.cpp   ****     if (this->isFinished()) return -1;
 569              		.loc 1 78 5
 570              	.LBB46:
 571              	.LBB47:
  19:src/../h/TCB.hpp **** 
 572              		.loc 2 19 31
  19:src/../h/TCB.hpp **** 
 573              		.loc 2 19 38 is_stmt 0
 574 0338 83478502 		lbu	a5,40(a0)
 575              	.LVL55:
 576              	.LBE47:
 577              	.LBE46:
 578              		.loc 1 78 5
 579 033c 639A0702 		bnez	a5,.L35
  77:src/TCB.cpp   ****     if (this->isFinished()) return -1;
 580              		.loc 1 77 17
 581 0340 130101FF 		addi	sp,sp,-16
 582              		.cfi_def_cfa_offset 16
 583 0344 23341100 		sd	ra,8(sp)
 584 0348 23308100 		sd	s0,0(sp)
 585              		.cfi_offset 1, -8
 586              		.cfi_offset 8, -16
 587 034c 13040101 		addi	s0,sp,16
 588              		.cfi_def_cfa 8, 0
  79:src/TCB.cpp   ****     sem_wait(this->joiner);
 589              		.loc 1 79 5 is_stmt 1
 590              		.loc 1 79 13 is_stmt 0
 591 0350 03350503 		ld	a0,48(a0)
 592              	.LVL56:
 593 0354 97000000 		call	_Z8sem_waitP4_sem@plt
 593      E7800000 
 594              	.LVL57:
  80:src/TCB.cpp   ****     return 0;
 595              		.loc 1 80 5 is_stmt 1
 596              		.loc 1 80 12 is_stmt 0
 597 035c 13050000 		li	a0,0
GAS LISTING /tmp/cc5DfMJF.s 			page 16


  81:src/TCB.cpp   **** }
 598              		.loc 1 81 1
 599 0360 83308100 		ld	ra,8(sp)
 600              		.cfi_restore 1
 601 0364 03340100 		ld	s0,0(sp)
 602              		.cfi_restore 8
 603              		.cfi_def_cfa 2, 16
 604 0368 13010101 		addi	sp,sp,16
 605              		.cfi_def_cfa_offset 0
 606 036c 67800000 		jr	ra
 607              	.LVL58:
 608              	.L35:
  78:src/TCB.cpp   ****     sem_wait(this->joiner);
 609              		.loc 1 78 37
 610 0370 1305F0FF 		li	a0,-1
 611              	.LVL59:
 612              		.loc 1 81 1
 613 0374 67800000 		ret
 614              		.cfi_endproc
 615              	.LFE49:
 617              		.align	2
 618              		.globl	_ZN3TCB10waitForAllEv
 620              	_ZN3TCB10waitForAllEv:
 621              	.LFB50:
  82:src/TCB.cpp   **** 
  83:src/TCB.cpp   **** void TCB::waitForAll() {
 622              		.loc 1 83 24 is_stmt 1
 623              		.cfi_startproc
 624 0378 130101FE 		addi	sp,sp,-32
 625              		.cfi_def_cfa_offset 32
 626 037c 233C1100 		sd	ra,24(sp)
 627 0380 23388100 		sd	s0,16(sp)
 628 0384 23349100 		sd	s1,8(sp)
 629              		.cfi_offset 1, -8
 630              		.cfi_offset 8, -16
 631              		.cfi_offset 9, -24
 632 0388 13040102 		addi	s0,sp,32
 633              		.cfi_def_cfa 8, 0
  84:src/TCB.cpp   ****     for (auto curr = running->children.head; curr; curr = curr->next) {
 634              		.loc 1 84 5
 635              	.LBB48:
 636              		.loc 1 84 40 is_stmt 0
 637 038c 97070000 		ld	a5,.LANCHOR0+8
 637      83B70700 
 638              		.loc 1 84 15
 639 0394 83B48703 		ld	s1,56(a5)
 640              	.LVL60:
 641              	.L42:
 642              		.loc 1 84 46 is_stmt 1 discriminator 3
 643 0398 638C0400 		beqz	s1,.L40
  85:src/TCB.cpp   ****         thread_join(curr->data);
 644              		.loc 1 85 9 discriminator 2
 645              		.loc 1 85 20 is_stmt 0 discriminator 2
 646 039c 03B50400 		ld	a0,0(s1)
 647 03a0 97000000 		call	_Z11thread_joinP3TCB@plt
 647      E7800000 
 648              	.LVL61:
GAS LISTING /tmp/cc5DfMJF.s 			page 17


  84:src/TCB.cpp   ****     for (auto curr = running->children.head; curr; curr = curr->next) {
 649              		.loc 1 84 5 is_stmt 1 discriminator 2
  84:src/TCB.cpp   ****     for (auto curr = running->children.head; curr; curr = curr->next) {
 650              		.loc 1 84 57 is_stmt 0 discriminator 2
 651 03a8 83B48400 		ld	s1,8(s1)
 652              	.LVL62:
  84:src/TCB.cpp   ****     for (auto curr = running->children.head; curr; curr = curr->next) {
 653              		.loc 1 84 5 discriminator 2
 654 03ac 6FF0DFFE 		j	.L42
 655              	.L40:
 656              	.LBE48:
  86:src/TCB.cpp   ****     }
  87:src/TCB.cpp   **** }
 657              		.loc 1 87 1
 658 03b0 83308101 		ld	ra,24(sp)
 659              		.cfi_restore 1
 660 03b4 03340101 		ld	s0,16(sp)
 661              		.cfi_restore 8
 662              		.cfi_def_cfa 2, 32
 663 03b8 83348100 		ld	s1,8(sp)
 664              		.cfi_restore 9
 665              	.LVL63:
 666 03bc 13010102 		addi	sp,sp,32
 667              		.cfi_def_cfa_offset 0
 668 03c0 67800000 		jr	ra
 669              		.cfi_endproc
 670              	.LFE50:
 672              		.align	2
 673              		.globl	_ZN3TCB12setMaxThreadEi
 675              	_ZN3TCB12setMaxThreadEi:
 676              	.LFB51:
  88:src/TCB.cpp   **** 
  89:src/TCB.cpp   **** void TCB::setMaxThread(int number) {
 677              		.loc 1 89 36 is_stmt 1
 678              		.cfi_startproc
 679              	.LVL64:
 680 03c4 130101FF 		addi	sp,sp,-16
 681              		.cfi_def_cfa_offset 16
 682 03c8 23348100 		sd	s0,8(sp)
 683              		.cfi_offset 8, -8
 684 03cc 13040101 		addi	s0,sp,16
 685              		.cfi_def_cfa 8, 0
  90:src/TCB.cpp   ****     max_threads = number;
 686              		.loc 1 90 5
 687              		.loc 1 90 17 is_stmt 0
 688 03d0 97070000 		sd	a0,.LANCHOR1,a5
 688      23B0A700 
  91:src/TCB.cpp   **** }
 689              		.loc 1 91 1
 690 03d8 03348100 		ld	s0,8(sp)
 691              		.cfi_restore 8
 692              		.cfi_def_cfa 2, 16
 693 03dc 13010101 		addi	sp,sp,16
 694              		.cfi_def_cfa_offset 0
 695 03e0 67800000 		jr	ra
 696              		.cfi_endproc
 697              	.LFE51:
GAS LISTING /tmp/cc5DfMJF.s 			page 18


 699              		.globl	_ZN3TCB7max_semE
 700              		.globl	_ZN3TCB11max_threadsE
 701              		.globl	_ZN3TCB7runningE
 702              		.data
 703              		.align	3
 704              		.set	.LANCHOR1,. + 0
 707              	_ZN3TCB11max_threadsE:
 708 0000 FFFFFF7F 		.dword	2147483647
 708      00000000 
 709              		.bss
 710              		.align	3
 711              		.set	.LANCHOR0,. + 0
 714              	_ZN3TCB7max_semE:
 715 0000 00000000 		.zero	8
 715      00000000 
 718              	_ZN3TCB7runningE:
 719 0008 00000000 		.zero	8
 719      00000000 
 720              		.text
 721              	.Letext0:
 722              		.file 4 "src/../lib/hw.h"
 723              		.file 5 "src/../h/MemoryAllocator.hpp"
 724              		.file 6 "src/../h/scheduler.hpp"
 725              		.file 7 "src/../h/../h/riscv.hpp"
 726              		.file 8 "src/../h/syscall_c.hpp"
 727              		.file 9 "src/../h/_sem.hpp"
 4778              		.align	3
 4781              	DW.ref.__gxx_personality_v0:
 4782 0000 00000000 		.dword	__gxx_personality_v0
 4782      00000000 
 4783              		.ident	"GCC: (Ubuntu 9.4.0-1ubuntu1~20.04) 9.4.0"
 4784              		.section	.note.GNU-stack,"",@progbits
GAS LISTING /tmp/cc5DfMJF.s 			page 19


DEFINED SYMBOLS
                            *ABS*:0000000000000000 TCB.cpp
     /tmp/cc5DfMJF.s:9      .text:0000000000000000 _ZN3TCB14thread_wrapperEv
     /tmp/cc5DfMJF.s:13     .text:0000000000000000 .L0 
     /tmp/cc5DfMJF.s:14     .text:0000000000000000 .L0 
     /tmp/cc5DfMJF.s:15     .text:0000000000000004 .L0 
     /tmp/cc5DfMJF.s:19     .text:0000000000000010 .L0 
     /tmp/cc5DfMJF.s:20     .text:0000000000000010 .L0 
     /tmp/cc5DfMJF.s:21     .text:0000000000000010 .L0 
     /tmp/cc5DfMJF.s:23     .text:0000000000000014 .L0 
     /tmp/cc5DfMJF.s:25     .text:0000000000000014 .L0 
     /tmp/cc5DfMJF.s:26     .text:0000000000000014 .L0 
     /tmp/cc5DfMJF.s:29     .text:000000000000001c .L0 
     /tmp/cc5DfMJF.s:30     .text:000000000000001c .L0 
     /tmp/cc5DfMJF.s:35     .text:0000000000000030 .L0 
     /tmp/cc5DfMJF.s:36     .text:0000000000000030 .L0 
     /tmp/cc5DfMJF.s:39     .text:0000000000000038 .L0 
     /tmp/cc5DfMJF.s:43     .text:0000000000000040 .L0 
     /tmp/cc5DfMJF.s:44     .text:0000000000000040 .L0 
     /tmp/cc5DfMJF.s:47     .text:0000000000000048 .L0 
     /tmp/cc5DfMJF.s:48     .text:000000000000004c .L0 
     /tmp/cc5DfMJF.s:50     .text:0000000000000050 .L0 
     /tmp/cc5DfMJF.s:51     .text:0000000000000050 .L0 
     /tmp/cc5DfMJF.s:53     .text:0000000000000054 .L0 
     /tmp/cc5DfMJF.s:55     .text:0000000000000058 .L0 
     /tmp/cc5DfMJF.s:57     .text:000000000000005c .L0 
     /tmp/cc5DfMJF.s:63     .text:000000000000005c _ZN3TCB8dispatchEv
     /tmp/cc5DfMJF.s:66     .text:000000000000005c .L0 
     /tmp/cc5DfMJF.s:67     .text:000000000000005c .L0 
     /tmp/cc5DfMJF.s:68     .text:0000000000000060 .L0 
     /tmp/cc5DfMJF.s:72     .text:000000000000006c .L0 
     /tmp/cc5DfMJF.s:73     .text:000000000000006c .L0 
     /tmp/cc5DfMJF.s:74     .text:000000000000006c .L0 
     /tmp/cc5DfMJF.s:76     .text:0000000000000070 .L0 
     /tmp/cc5DfMJF.s:78     .text:0000000000000070 .L0 
     /tmp/cc5DfMJF.s:79     .text:0000000000000070 .L0 
     /tmp/cc5DfMJF.s:82     .text:0000000000000078 .L0 
     /tmp/cc5DfMJF.s:83     .text:0000000000000078 .L0 
     /tmp/cc5DfMJF.s:89     .text:000000000000007c .L0 
     /tmp/cc5DfMJF.s:90     .text:000000000000007c .L0 
     /tmp/cc5DfMJF.s:95     .text:0000000000000080 .L0 
     /tmp/cc5DfMJF.s:100    .text:0000000000000084 .L0 
     /tmp/cc5DfMJF.s:101    .text:0000000000000084 .L0 
     /tmp/cc5DfMJF.s:106    .text:0000000000000088 .L0 
     /tmp/cc5DfMJF.s:109    .text:000000000000008c .L0 
     /tmp/cc5DfMJF.s:110    .text:000000000000008c .L0 
     /tmp/cc5DfMJF.s:113    .text:0000000000000094 .L0 
     /tmp/cc5DfMJF.s:115    .text:000000000000009c .L0 
     /tmp/cc5DfMJF.s:116    .text:000000000000009c .L0 
     /tmp/cc5DfMJF.s:121    .text:00000000000000ac .L0 
     /tmp/cc5DfMJF.s:122    .text:00000000000000b0 .L0 
     /tmp/cc5DfMJF.s:123    .text:00000000000000b0 .L0 
     /tmp/cc5DfMJF.s:125    .text:00000000000000b4 .L0 
     /tmp/cc5DfMJF.s:126    .text:00000000000000b4 .L0 
     /tmp/cc5DfMJF.s:128    .text:00000000000000b8 .L0 
     /tmp/cc5DfMJF.s:131    .text:00000000000000bc .L0 
     /tmp/cc5DfMJF.s:135    .text:00000000000000c0 .L0 
GAS LISTING /tmp/cc5DfMJF.s 			page 20


     /tmp/cc5DfMJF.s:137    .text:00000000000000c0 .L0 
     /tmp/cc5DfMJF.s:138    .text:00000000000000c0 .L0 
     /tmp/cc5DfMJF.s:142    .text:00000000000000d0 .L0 
     /tmp/cc5DfMJF.s:148    .text:00000000000000d0 _ZN3TCB5yieldEv
     /tmp/cc5DfMJF.s:151    .text:00000000000000d0 .L0 
     /tmp/cc5DfMJF.s:152    .text:00000000000000d0 .L0 
     /tmp/cc5DfMJF.s:153    .text:00000000000000d4 .L0 
     /tmp/cc5DfMJF.s:156    .text:00000000000000dc .L0 
     /tmp/cc5DfMJF.s:157    .text:00000000000000dc .L0 
     /tmp/cc5DfMJF.s:159    .text:00000000000000e0 .L0 
     /tmp/cc5DfMJF.s:161    .text:00000000000000e0 .L0 
     /tmp/cc5DfMJF.s:162    .text:00000000000000e0 .L0 
     /tmp/cc5DfMJF.s:165    .text:00000000000000e8 .L0 
     /tmp/cc5DfMJF.s:166    .text:00000000000000e8 .L0 
     /tmp/cc5DfMJF.s:169    .text:00000000000000f0 .L0 
     /tmp/cc5DfMJF.s:170    .text:00000000000000f0 .L0 
     /tmp/cc5DfMJF.s:173    .text:00000000000000f8 .L0 
     /tmp/cc5DfMJF.s:174    .text:00000000000000fc .L0 
     /tmp/cc5DfMJF.s:176    .text:0000000000000100 .L0 
     /tmp/cc5DfMJF.s:177    .text:0000000000000100 .L0 
     /tmp/cc5DfMJF.s:179    .text:0000000000000104 .L0 
     /tmp/cc5DfMJF.s:181    .text:0000000000000108 .L0 
     /tmp/cc5DfMJF.s:187    .text:0000000000000108 _ZN3TCBC2EPFvPvES0_S0_
     /tmp/cc5DfMJF.s:190    .text:0000000000000108 .L0 
     /tmp/cc5DfMJF.s:192    .text:0000000000000108 .L0 
     /tmp/cc5DfMJF.s:193    .text:000000000000010c .L0 
     /tmp/cc5DfMJF.s:198    .text:000000000000011c .L0 
     /tmp/cc5DfMJF.s:199    .text:000000000000011c .L0 
     /tmp/cc5DfMJF.s:200    .text:000000000000011c .L0 
     /tmp/cc5DfMJF.s:201    .text:000000000000011c .L0 
     /tmp/cc5DfMJF.s:203    .text:0000000000000120 .L0 
     /tmp/cc5DfMJF.s:208    .text:0000000000000128 .L0 
     /tmp/cc5DfMJF.s:217    .text:0000000000000138 .L0 
     /tmp/cc5DfMJF.s:225    .text:0000000000000140 .L0 
     /tmp/cc5DfMJF.s:227    .text:0000000000000144 .L0 
     /tmp/cc5DfMJF.s:228    .text:0000000000000144 .L0 
     /tmp/cc5DfMJF.s:233    .text:0000000000000148 .L0 
     /tmp/cc5DfMJF.s:235    .text:000000000000014c .L0 
     /tmp/cc5DfMJF.s:236    .text:000000000000014c .L0 
     /tmp/cc5DfMJF.s:240    .text:0000000000000158 .L0 
     /tmp/cc5DfMJF.s:241    .text:0000000000000158 .L0 
     /tmp/cc5DfMJF.s:246    .text:0000000000000160 .L0 
     /tmp/cc5DfMJF.s:252    .text:000000000000016c .L0 
     /tmp/cc5DfMJF.s:258    .text:0000000000000174 .L0 
     /tmp/cc5DfMJF.s:260    .text:0000000000000178 .L0 
     /tmp/cc5DfMJF.s:262    .text:000000000000017c .L0 
     /tmp/cc5DfMJF.s:264    .text:0000000000000180 .L0 
     /tmp/cc5DfMJF.s:270    .text:0000000000000184 .L0 
     /tmp/cc5DfMJF.s:271    .text:0000000000000184 .L0 
     /tmp/cc5DfMJF.s:276    .text:0000000000000194 .L0 
     /tmp/cc5DfMJF.s:277    .text:0000000000000194 .L0 
     /tmp/cc5DfMJF.s:280    .text:00000000000001a0 .L0 
     /tmp/cc5DfMJF.s:281    .text:00000000000001a0 .L0 
     /tmp/cc5DfMJF.s:283    .text:00000000000001a4 .L0 
     /tmp/cc5DfMJF.s:287    .text:00000000000001b0 .L0 
     /tmp/cc5DfMJF.s:291    .text:00000000000001b4 .L0 
     /tmp/cc5DfMJF.s:292    .text:00000000000001b8 .L0 
GAS LISTING /tmp/cc5DfMJF.s 			page 21


     /tmp/cc5DfMJF.s:293    .text:00000000000001b8 .L0 
     /tmp/cc5DfMJF.s:295    .text:00000000000001bc .L0 
     /tmp/cc5DfMJF.s:296    .text:00000000000001bc .L0 
     /tmp/cc5DfMJF.s:298    .text:00000000000001c0 .L0 
     /tmp/cc5DfMJF.s:301    .text:00000000000001c4 .L0 
     /tmp/cc5DfMJF.s:303    .text:00000000000001c8 .L0 
     /tmp/cc5DfMJF.s:307    .text:00000000000001cc .L0 
     /tmp/cc5DfMJF.s:313    .text:00000000000001cc .L0 
     /tmp/cc5DfMJF.s:314    .text:00000000000001cc .L0 
     /tmp/cc5DfMJF.s:315    .text:00000000000001cc .L0 
     /tmp/cc5DfMJF.s:319    .text:00000000000001d8 .L0 
     /tmp/cc5DfMJF.s:328    .text:00000000000001e0 .L0 
     /tmp/cc5DfMJF.s:336    .text:00000000000001ec .L0 
     /tmp/cc5DfMJF.s:337    .text:00000000000001ec .L0 
     /tmp/cc5DfMJF.s:340    .text:00000000000001f8 .L0 
     /tmp/cc5DfMJF.s:341    .text:00000000000001f8 .L0 
     /tmp/cc5DfMJF.s:347    .text:000000000000020c .L0 
     /tmp/cc5DfMJF.s:187    .text:0000000000000108 _ZN3TCBC1EPFvPvES0_S0_
     /tmp/cc5DfMJF.s:355    .text:000000000000020c _ZN3TCB12createThreadEPPS_PFvPvES2_S2_
     /tmp/cc5DfMJF.s:358    .text:000000000000020c .L0 
     /tmp/cc5DfMJF.s:4781   .data.rel.local.DW.ref.__gxx_personality_v0:0000000000000000 DW.ref.__gxx_personality_v0
     /tmp/cc5DfMJF.s:362    .text:000000000000020c .L0 
     /tmp/cc5DfMJF.s:363    .text:000000000000020c .L0 
     /tmp/cc5DfMJF.s:365    .text:0000000000000210 .L0 
     /tmp/cc5DfMJF.s:366    .text:0000000000000214 .L0 
     /tmp/cc5DfMJF.s:374    .text:0000000000000230 .L0 
     /tmp/cc5DfMJF.s:375    .text:0000000000000230 .L0 
     /tmp/cc5DfMJF.s:376    .text:0000000000000230 .L0 
     /tmp/cc5DfMJF.s:377    .text:0000000000000230 .L0 
     /tmp/cc5DfMJF.s:378    .text:0000000000000230 .L0 
     /tmp/cc5DfMJF.s:379    .text:0000000000000230 .L0 
     /tmp/cc5DfMJF.s:380    .text:0000000000000230 .L0 
     /tmp/cc5DfMJF.s:382    .text:0000000000000234 .L0 
     /tmp/cc5DfMJF.s:388    .text:0000000000000244 .L0 
     /tmp/cc5DfMJF.s:389    .text:0000000000000244 .L0 
     /tmp/cc5DfMJF.s:404    .text:0000000000000268 .L0 
     /tmp/cc5DfMJF.s:405    .text:0000000000000268 .L0 
     /tmp/cc5DfMJF.s:407    .text:000000000000026c .L0 
     /tmp/cc5DfMJF.s:408    .text:000000000000026c .L0 
     /tmp/cc5DfMJF.s:410    .text:0000000000000270 .L0 
     /tmp/cc5DfMJF.s:411    .text:0000000000000274 .L0 
     /tmp/cc5DfMJF.s:413    .text:0000000000000278 .L0 
     /tmp/cc5DfMJF.s:414    .text:0000000000000278 .L0 
     /tmp/cc5DfMJF.s:416    .text:000000000000027c .L0 
     /tmp/cc5DfMJF.s:419    .text:0000000000000280 .L0 
     /tmp/cc5DfMJF.s:422    .text:0000000000000284 .L0 
     /tmp/cc5DfMJF.s:425    .text:0000000000000288 .L0 
     /tmp/cc5DfMJF.s:428    .text:000000000000028c .L0 
     /tmp/cc5DfMJF.s:431    .text:0000000000000290 .L0 
     /tmp/cc5DfMJF.s:436    .text:0000000000000294 .L0 
     /tmp/cc5DfMJF.s:439    .text:0000000000000298 .L0 
     /tmp/cc5DfMJF.s:442    .text:000000000000029c .L0 
     /tmp/cc5DfMJF.s:443    .text:000000000000029c .L0 
     /tmp/cc5DfMJF.s:444    .text:000000000000029c .L0 
     /tmp/cc5DfMJF.s:445    .text:000000000000029c .L0 
     /tmp/cc5DfMJF.s:446    .text:000000000000029c .L0 
     /tmp/cc5DfMJF.s:447    .text:000000000000029c .L0 
GAS LISTING /tmp/cc5DfMJF.s 			page 22


     /tmp/cc5DfMJF.s:448    .text:000000000000029c .L0 
     /tmp/cc5DfMJF.s:449    .text:000000000000029c .L0 
     /tmp/cc5DfMJF.s:453    .text:00000000000002a0 .L0 
     /tmp/cc5DfMJF.s:461    .text:00000000000002b8 .L0 
     /tmp/cc5DfMJF.s:487    .text:00000000000002b8 _ZN3TCB11thread_exitEv
     /tmp/cc5DfMJF.s:490    .text:00000000000002b8 .L0 
     /tmp/cc5DfMJF.s:491    .text:00000000000002b8 .L0 
     /tmp/cc5DfMJF.s:492    .text:00000000000002b8 .L0 
     /tmp/cc5DfMJF.s:493    .text:00000000000002b8 .L0 
     /tmp/cc5DfMJF.s:495    .text:00000000000002c0 .L0 
     /tmp/cc5DfMJF.s:497    .text:00000000000002c4 .L0 
     /tmp/cc5DfMJF.s:498    .text:00000000000002c8 .L0 
     /tmp/cc5DfMJF.s:502    .text:00000000000002d4 .L0 
     /tmp/cc5DfMJF.s:503    .text:00000000000002d4 .L0 
     /tmp/cc5DfMJF.s:504    .text:00000000000002d4 .L0 
     /tmp/cc5DfMJF.s:506    .text:00000000000002d8 .L0 
     /tmp/cc5DfMJF.s:511    .text:00000000000002d8 .L0 
     /tmp/cc5DfMJF.s:512    .text:00000000000002d8 .L0 
     /tmp/cc5DfMJF.s:513    .text:00000000000002d8 .L0 
     /tmp/cc5DfMJF.s:519    .text:00000000000002e0 .L0 
     /tmp/cc5DfMJF.s:520    .text:00000000000002e0 .L0 
     /tmp/cc5DfMJF.s:524    .text:00000000000002ec .L0 
     /tmp/cc5DfMJF.s:525    .text:00000000000002ec .L0 
     /tmp/cc5DfMJF.s:531    .text:0000000000000304 .L0 
     /tmp/cc5DfMJF.s:532    .text:0000000000000304 .L0 
     /tmp/cc5DfMJF.s:536    .text:0000000000000310 .L0 
     /tmp/cc5DfMJF.s:537    .text:0000000000000310 .L0 
     /tmp/cc5DfMJF.s:540    .text:0000000000000318 .L0 
     /tmp/cc5DfMJF.s:541    .text:0000000000000318 .L0 
     /tmp/cc5DfMJF.s:543    .text:000000000000031c .L0 
     /tmp/cc5DfMJF.s:544    .text:0000000000000320 .L0 
     /tmp/cc5DfMJF.s:546    .text:0000000000000324 .L0 
     /tmp/cc5DfMJF.s:547    .text:0000000000000324 .L0 
     /tmp/cc5DfMJF.s:549    .text:0000000000000328 .L0 
     /tmp/cc5DfMJF.s:551    .text:000000000000032c .L0 
     /tmp/cc5DfMJF.s:555    .text:0000000000000330 .L0 
     /tmp/cc5DfMJF.s:557    .text:0000000000000334 .L0 
     /tmp/cc5DfMJF.s:558    .text:0000000000000338 .L0 
     /tmp/cc5DfMJF.s:564    .text:0000000000000338 _ZN3TCB4joinEv
     /tmp/cc5DfMJF.s:567    .text:0000000000000338 .L0 
     /tmp/cc5DfMJF.s:569    .text:0000000000000338 .L0 
     /tmp/cc5DfMJF.s:572    .text:0000000000000338 .L0 
     /tmp/cc5DfMJF.s:573    .text:0000000000000338 .L0 
     /tmp/cc5DfMJF.s:574    .text:0000000000000338 .L0 
     /tmp/cc5DfMJF.s:579    .text:000000000000033c .L0 
     /tmp/cc5DfMJF.s:581    .text:0000000000000340 .L0 
     /tmp/cc5DfMJF.s:582    .text:0000000000000344 .L0 
     /tmp/cc5DfMJF.s:585    .text:000000000000034c .L0 
     /tmp/cc5DfMJF.s:586    .text:000000000000034c .L0 
     /tmp/cc5DfMJF.s:588    .text:0000000000000350 .L0 
     /tmp/cc5DfMJF.s:590    .text:0000000000000350 .L0 
     /tmp/cc5DfMJF.s:591    .text:0000000000000350 .L0 
     /tmp/cc5DfMJF.s:596    .text:000000000000035c .L0 
     /tmp/cc5DfMJF.s:597    .text:000000000000035c .L0 
     /tmp/cc5DfMJF.s:599    .text:0000000000000360 .L0 
     /tmp/cc5DfMJF.s:600    .text:0000000000000364 .L0 
     /tmp/cc5DfMJF.s:602    .text:0000000000000368 .L0 
GAS LISTING /tmp/cc5DfMJF.s 			page 23


     /tmp/cc5DfMJF.s:603    .text:0000000000000368 .L0 
     /tmp/cc5DfMJF.s:605    .text:000000000000036c .L0 
     /tmp/cc5DfMJF.s:610    .text:0000000000000370 .L0 
     /tmp/cc5DfMJF.s:613    .text:0000000000000374 .L0 
     /tmp/cc5DfMJF.s:614    .text:0000000000000378 .L0 
     /tmp/cc5DfMJF.s:620    .text:0000000000000378 _ZN3TCB10waitForAllEv
     /tmp/cc5DfMJF.s:623    .text:0000000000000378 .L0 
     /tmp/cc5DfMJF.s:624    .text:0000000000000378 .L0 
     /tmp/cc5DfMJF.s:625    .text:000000000000037c .L0 
     /tmp/cc5DfMJF.s:629    .text:0000000000000388 .L0 
     /tmp/cc5DfMJF.s:630    .text:0000000000000388 .L0 
     /tmp/cc5DfMJF.s:631    .text:0000000000000388 .L0 
     /tmp/cc5DfMJF.s:633    .text:000000000000038c .L0 
     /tmp/cc5DfMJF.s:636    .text:000000000000038c .L0 
     /tmp/cc5DfMJF.s:637    .text:000000000000038c .L0 
     /tmp/cc5DfMJF.s:639    .text:0000000000000394 .L0 
     /tmp/cc5DfMJF.s:643    .text:0000000000000398 .L0 
     /tmp/cc5DfMJF.s:645    .text:000000000000039c .L0 
     /tmp/cc5DfMJF.s:646    .text:000000000000039c .L0 
     /tmp/cc5DfMJF.s:650    .text:00000000000003a8 .L0 
     /tmp/cc5DfMJF.s:651    .text:00000000000003a8 .L0 
     /tmp/cc5DfMJF.s:654    .text:00000000000003ac .L0 
     /tmp/cc5DfMJF.s:658    .text:00000000000003b0 .L0 
     /tmp/cc5DfMJF.s:659    .text:00000000000003b4 .L0 
     /tmp/cc5DfMJF.s:661    .text:00000000000003b8 .L0 
     /tmp/cc5DfMJF.s:662    .text:00000000000003b8 .L0 
     /tmp/cc5DfMJF.s:664    .text:00000000000003bc .L0 
     /tmp/cc5DfMJF.s:667    .text:00000000000003c0 .L0 
     /tmp/cc5DfMJF.s:669    .text:00000000000003c4 .L0 
     /tmp/cc5DfMJF.s:675    .text:00000000000003c4 _ZN3TCB12setMaxThreadEi
     /tmp/cc5DfMJF.s:678    .text:00000000000003c4 .L0 
     /tmp/cc5DfMJF.s:680    .text:00000000000003c4 .L0 
     /tmp/cc5DfMJF.s:681    .text:00000000000003c8 .L0 
     /tmp/cc5DfMJF.s:683    .text:00000000000003cc .L0 
     /tmp/cc5DfMJF.s:685    .text:00000000000003d0 .L0 
     /tmp/cc5DfMJF.s:687    .text:00000000000003d0 .L0 
     /tmp/cc5DfMJF.s:688    .text:00000000000003d0 .L0 
     /tmp/cc5DfMJF.s:690    .text:00000000000003d8 .L0 
     /tmp/cc5DfMJF.s:691    .text:00000000000003dc .L0 
     /tmp/cc5DfMJF.s:692    .text:00000000000003dc .L0 
     /tmp/cc5DfMJF.s:694    .text:00000000000003e0 .L0 
     /tmp/cc5DfMJF.s:696    .text:00000000000003e4 .L0 
     /tmp/cc5DfMJF.s:714    .bss:0000000000000000 _ZN3TCB7max_semE
     /tmp/cc5DfMJF.s:707    .data:0000000000000000 _ZN3TCB11max_threadsE
     /tmp/cc5DfMJF.s:718    .bss:0000000000000008 _ZN3TCB7runningE
     /tmp/cc5DfMJF.s:704    .data:0000000000000000 .LANCHOR1
     /tmp/cc5DfMJF.s:711    .bss:0000000000000000 .LANCHOR0
     /tmp/cc5DfMJF.s:728    .text:00000000000003e4 .L0 
     /tmp/cc5DfMJF.s:30     .text:000000000000001c .L0 
     /tmp/cc5DfMJF.s:79     .text:0000000000000070 .L0 
     /tmp/cc5DfMJF.s:113    .text:0000000000000094 .L0 
     /tmp/cc5DfMJF.s:241    .text:0000000000000158 .L0 
     /tmp/cc5DfMJF.s:277    .text:0000000000000194 .L0 
     /tmp/cc5DfMJF.s:337    .text:00000000000001ec .L0 
     /tmp/cc5DfMJF.s:341    .text:00000000000001f8 .L0 
     /tmp/cc5DfMJF.s:493    .text:00000000000002b8 .L0 
     /tmp/cc5DfMJF.s:525    .text:00000000000002ec .L0 
GAS LISTING /tmp/cc5DfMJF.s 			page 24


     /tmp/cc5DfMJF.s:637    .text:000000000000038c .L0 
     /tmp/cc5DfMJF.s:688    .text:00000000000003d0 .L0 
     /tmp/cc5DfMJF.s:107    .text:000000000000008c .L4
     /tmp/cc5DfMJF.s:134    .text:00000000000000c0 .L6
     /tmp/cc5DfMJF.s:306    .text:00000000000001cc .L10
     /tmp/cc5DfMJF.s:332    .text:00000000000001ec .L12
     /tmp/cc5DfMJF.s:322    .text:00000000000001e0 .L13
     /tmp/cc5DfMJF.s:230    .text:0000000000000148 .L11
     /tmp/cc5DfMJF.s:266    .text:0000000000000184 .L14
     /tmp/cc5DfMJF.s:434    .text:0000000000000294 .L19
     /tmp/cc5DfMJF.s:553    .text:0000000000000330 .L28
     /tmp/cc5DfMJF.s:608    .text:0000000000000370 .L35
     /tmp/cc5DfMJF.s:655    .text:00000000000003b0 .L40
     /tmp/cc5DfMJF.s:641    .text:0000000000000398 .L42
     /tmp/cc5DfMJF.s:391    .text:0000000000000248 .LEHB0
     /tmp/cc5DfMJF.s:356    .text:000000000000020c .LFB46
     /tmp/cc5DfMJF.s:394    .text:0000000000000250 .LEHE0
     /tmp/cc5DfMJF.s:399    .text:0000000000000260 .LEHB1
     /tmp/cc5DfMJF.s:402    .text:0000000000000268 .LEHE1
     /tmp/cc5DfMJF.s:441    .text:000000000000029c .L20
     /tmp/cc5DfMJF.s:457    .text:00000000000002b0 .LEHB2
     /tmp/cc5DfMJF.s:460    .text:00000000000002b8 .LEHE2
     /tmp/cc5DfMJF.s:2633   .debug_abbrev:0000000000000000 .Ldebug_abbrev0
     /tmp/cc5DfMJF.s:4701   .debug_str:0000000000000a71 .LASF200
     /tmp/cc5DfMJF.s:4439   .debug_str:00000000000002b3 .LASF201
     /tmp/cc5DfMJF.s:4705   .debug_str:0000000000000b45 .LASF202
     /tmp/cc5DfMJF.s:5      .text:0000000000000000 .Ltext0
     /tmp/cc5DfMJF.s:721    .text:00000000000003e4 .Letext0
     /tmp/cc5DfMJF.s:4353   .debug_line:0000000000000000 .Ldebug_line0
     /tmp/cc5DfMJF.s:4485   .debug_str:0000000000000447 .LASF0
     /tmp/cc5DfMJF.s:4519   .debug_str:000000000000054e .LASF1
     /tmp/cc5DfMJF.s:4627   .debug_str:0000000000000869 .LASF2
     /tmp/cc5DfMJF.s:4463   .debug_str:0000000000000397 .LASF3
     /tmp/cc5DfMJF.s:4635   .debug_str:00000000000008ad .LASF4
     /tmp/cc5DfMJF.s:4501   .debug_str:00000000000004c2 .LASF5
     /tmp/cc5DfMJF.s:4367   .debug_str:0000000000000068 .LASF6
     /tmp/cc5DfMJF.s:4591   .debug_str:0000000000000764 .LASF7
     /tmp/cc5DfMJF.s:4511   .debug_str:000000000000051e .LASF8
     /tmp/cc5DfMJF.s:4461   .debug_str:0000000000000387 .LASF9
     /tmp/cc5DfMJF.s:4467   .debug_str:00000000000003ba .LASF10
     /tmp/cc5DfMJF.s:4399   .debug_str:000000000000017c .LASF11
     /tmp/cc5DfMJF.s:4453   .debug_str:0000000000000355 .LASF12
     /tmp/cc5DfMJF.s:4413   .debug_str:00000000000001de .LASF13
     /tmp/cc5DfMJF.s:4397   .debug_str:000000000000016c .LASF14
     /tmp/cc5DfMJF.s:4679   .debug_str:00000000000009e2 .LASF15
     /tmp/cc5DfMJF.s:4683   .debug_str:0000000000000a03 .LASF16
     /tmp/cc5DfMJF.s:4667   .debug_str:000000000000098c .LASF17
     /tmp/cc5DfMJF.s:4505   .debug_str:00000000000004d9 .LASF36
     /tmp/cc5DfMJF.s:4401   .debug_str:000000000000018b .LASF18
     /tmp/cc5DfMJF.s:4375   .debug_str:00000000000000b2 .LASF19
     /tmp/cc5DfMJF.s:4517   .debug_str:0000000000000549 .LASF20
     /tmp/cc5DfMJF.s:4711   .debug_str:0000000000000b90 .LASF21
     /tmp/cc5DfMJF.s:4533   .debug_str:000000000000059c .LASF22
     /tmp/cc5DfMJF.s:4587   .debug_str:0000000000000748 .LASF31
     /tmp/cc5DfMJF.s:4671   .debug_str:00000000000009b5 .LASF33
     /tmp/cc5DfMJF.s:4379   .debug_str:00000000000000c9 .LASF27
     /tmp/cc5DfMJF.s:4763   .debug_str:0000000000000d07 .LASF29
GAS LISTING /tmp/cc5DfMJF.s 			page 25


     /tmp/cc5DfMJF.s:4553   .debug_str:0000000000000638 .LASF23
     /tmp/cc5DfMJF.s:4371   .debug_str:000000000000007a .LASF25
     /tmp/cc5DfMJF.s:4685   .debug_str:0000000000000a19 .LASF24
     /tmp/cc5DfMJF.s:4555   .debug_str:0000000000000642 .LASF26
     /tmp/cc5DfMJF.s:4767   .debug_str:0000000000000d34 .LASF80
     /tmp/cc5DfMJF.s:4417   .debug_str:00000000000001f7 .LASF82
     /tmp/cc5DfMJF.s:4359   .debug_str:0000000000000014 .LASF28
     /tmp/cc5DfMJF.s:4389   .debug_str:0000000000000103 .LASF30
     /tmp/cc5DfMJF.s:4459   .debug_str:000000000000037d .LASF32
     /tmp/cc5DfMJF.s:4659   .debug_str:0000000000000947 .LASF34
     /tmp/cc5DfMJF.s:4755   .debug_str:0000000000000ca1 .LASF203
     /tmp/cc5DfMJF.s:4475   .debug_str:00000000000003e4 .LASF204
     /tmp/cc5DfMJF.s:4729   .debug_str:0000000000000bee .LASF35
     /tmp/cc5DfMJF.s:4721   .debug_str:0000000000000bca .LASF37
     /tmp/cc5DfMJF.s:4515   .debug_str:0000000000000544 .LASF38
     /tmp/cc5DfMJF.s:4761   .debug_str:0000000000000ce8 .LASF94
     /tmp/cc5DfMJF.s:4565   .debug_str:00000000000006a1 .LASF39
     /tmp/cc5DfMJF.s:4559   .debug_str:000000000000067d .LASF40
     /tmp/cc5DfMJF.s:4669   .debug_str:00000000000009a2 .LASF41
     /tmp/cc5DfMJF.s:4449   .debug_str:0000000000000327 .LASF47
     /tmp/cc5DfMJF.s:4629   .debug_str:0000000000000877 .LASF168
     /tmp/cc5DfMJF.s:4617   .debug_str:0000000000000828 .LASF170
     /tmp/cc5DfMJF.s:4621   .debug_str:000000000000084c .LASF42
     /tmp/cc5DfMJF.s:4391   .debug_str:0000000000000120 .LASF43
     /tmp/cc5DfMJF.s:4529   .debug_str:000000000000057f .LASF44
     /tmp/cc5DfMJF.s:4443   .debug_str:00000000000002e3 .LASF45
     /tmp/cc5DfMJF.s:4589   .debug_str:0000000000000758 .LASF46
     /tmp/cc5DfMJF.s:4731   .debug_str:0000000000000bf8 .LASF48
     /tmp/cc5DfMJF.s:4773   .debug_str:0000000000000d49 .LASF49
     /tmp/cc5DfMJF.s:4759   .debug_str:0000000000000ccd .LASF50
     /tmp/cc5DfMJF.s:4653   .debug_str:000000000000091f .LASF51
     /tmp/cc5DfMJF.s:4509   .debug_str:0000000000000501 .LASF52
     /tmp/cc5DfMJF.s:4613   .debug_str:0000000000000816 .LASF53
     /tmp/cc5DfMJF.s:4361   .debug_str:000000000000001a .LASF54
     /tmp/cc5DfMJF.s:4433   .debug_str:000000000000029c .LASF55
     /tmp/cc5DfMJF.s:4651   .debug_str:0000000000000905 .LASF56
     /tmp/cc5DfMJF.s:4407   .debug_str:00000000000001ad .LASF57
     /tmp/cc5DfMJF.s:4687   .debug_str:0000000000000a22 .LASF58
     /tmp/cc5DfMJF.s:4561   .debug_str:0000000000000682 .LASF59
     /tmp/cc5DfMJF.s:4385   .debug_str:00000000000000f2 .LASF60
     /tmp/cc5DfMJF.s:4713   .debug_str:0000000000000b95 .LASF61
     /tmp/cc5DfMJF.s:4743   .debug_str:0000000000000c4c .LASF62
     /tmp/cc5DfMJF.s:4393   .debug_str:000000000000013d .LASF63
     /tmp/cc5DfMJF.s:4689   .debug_str:0000000000000a2d .LASF64
     /tmp/cc5DfMJF.s:4411   .debug_str:00000000000001c8 .LASF65
     /tmp/cc5DfMJF.s:4521   .debug_str:0000000000000561 .LASF66
     /tmp/cc5DfMJF.s:4703   .debug_str:0000000000000b35 .LASF67
     /tmp/cc5DfMJF.s:4427   .debug_str:000000000000026c .LASF68
     /tmp/cc5DfMJF.s:4409   .debug_str:00000000000001b5 .LASF69
     /tmp/cc5DfMJF.s:4699   .debug_str:0000000000000a69 .LASF70
     /tmp/cc5DfMJF.s:4677   .debug_str:00000000000009d5 .LASF71
     /tmp/cc5DfMJF.s:4543   .debug_str:00000000000005cc .LASF72
     /tmp/cc5DfMJF.s:4581   .debug_str:0000000000000714 .LASF205
     /tmp/cc5DfMJF.s:4539   .debug_str:00000000000005b3 .LASF73
     /tmp/cc5DfMJF.s:4451   .debug_str:000000000000033e .LASF106
     /tmp/cc5DfMJF.s:4695   .debug_str:0000000000000a53 .LASF74
     /tmp/cc5DfMJF.s:4355   .debug_str:0000000000000000 .LASF75
GAS LISTING /tmp/cc5DfMJF.s 			page 26


     /tmp/cc5DfMJF.s:4551   .debug_str:000000000000062d .LASF76
     /tmp/cc5DfMJF.s:4693   .debug_str:0000000000000a3d .LASF77
     /tmp/cc5DfMJF.s:4601   .debug_str:00000000000007cd .LASF206
     /tmp/cc5DfMJF.s:4637   .debug_str:00000000000008b4 .LASF78
     /tmp/cc5DfMJF.s:4365   .debug_str:000000000000005c .LASF79
     /tmp/cc5DfMJF.s:4619   .debug_str:000000000000083f .LASF81
     /tmp/cc5DfMJF.s:4657   .debug_str:000000000000092f .LASF83
     /tmp/cc5DfMJF.s:4357   .debug_str:000000000000000f .LASF84
     /tmp/cc5DfMJF.s:4535   .debug_str:00000000000005a1 .LASF85
     /tmp/cc5DfMJF.s:4709   .debug_str:0000000000000b88 .LASF86
     /tmp/cc5DfMJF.s:4665   .debug_str:0000000000000983 .LASF87
     /tmp/cc5DfMJF.s:4575   .debug_str:00000000000006f0 .LASF88
     /tmp/cc5DfMJF.s:4771   .debug_str:0000000000000d42 .LASF89
     /tmp/cc5DfMJF.s:4429   .debug_str:0000000000000275 .LASF146
     /tmp/cc5DfMJF.s:4557   .debug_str:0000000000000663 .LASF148
     /tmp/cc5DfMJF.s:4415   .debug_str:00000000000001ee .LASF90
     /tmp/cc5DfMJF.s:4663   .debug_str:0000000000000977 .LASF91
     /tmp/cc5DfMJF.s:4611   .debug_str:000000000000080e .LASF92
     /tmp/cc5DfMJF.s:4419   .debug_str:000000000000021d .LASF93
     /tmp/cc5DfMJF.s:4363   .debug_str:0000000000000034 .LASF95
     /tmp/cc5DfMJF.s:4735   .debug_str:0000000000000c1d .LASF96
     /tmp/cc5DfMJF.s:4495   .debug_str:000000000000048b .LASF97
     /tmp/cc5DfMJF.s:4661   .debug_str:0000000000000958 .LASF98
     /tmp/cc5DfMJF.s:4647   .debug_str:00000000000008ea .LASF99
     /tmp/cc5DfMJF.s:4445   .debug_str:00000000000002ff .LASF100
     /tmp/cc5DfMJF.s:4489   .debug_str:0000000000000464 .LASF101
     /tmp/cc5DfMJF.s:4741   .debug_str:0000000000000c32 .LASF102
     /tmp/cc5DfMJF.s:4471   .debug_str:00000000000003d3 .LASF103
     /tmp/cc5DfMJF.s:4481   .debug_str:000000000000041f .LASF104
     /tmp/cc5DfMJF.s:4717   .debug_str:0000000000000bbb .LASF105
     /tmp/cc5DfMJF.s:4531   .debug_str:0000000000000587 .LASF107
     /tmp/cc5DfMJF.s:4623   .debug_str:0000000000000855 .LASF108
     /tmp/cc5DfMJF.s:4577   .debug_str:00000000000006f8 .LASF109
     /tmp/cc5DfMJF.s:4605   .debug_str:00000000000007ea .LASF110
     /tmp/cc5DfMJF.s:4607   .debug_str:00000000000007f1 .LASF111
     /tmp/cc5DfMJF.s:4567   .debug_str:00000000000006a6 .LASF112
     /tmp/cc5DfMJF.s:4513   .debug_str:0000000000000531 .LASF113
     /tmp/cc5DfMJF.s:4745   .debug_str:0000000000000c56 .LASF114
     /tmp/cc5DfMJF.s:4675   .debug_str:00000000000009c1 .LASF115
     /tmp/cc5DfMJF.s:4563   .debug_str:0000000000000699 .LASF116
     /tmp/cc5DfMJF.s:4455   .debug_str:0000000000000364 .LASF117
     /tmp/cc5DfMJF.s:4525   .debug_str:0000000000000570 .LASF118
     /tmp/cc5DfMJF.s:4499   .debug_str:00000000000004ae .LASF119
     /tmp/cc5DfMJF.s:4769   .debug_str:0000000000000d3a .LASF120
     /tmp/cc5DfMJF.s:4493   .debug_str:0000000000000477 .LASF121
     /tmp/cc5DfMJF.s:4673   .debug_str:00000000000009ba .LASF122
     /tmp/cc5DfMJF.s:4641   .debug_str:00000000000008bf .LASF123
     /tmp/cc5DfMJF.s:4643   .debug_str:00000000000008d2 .LASF124
     /tmp/cc5DfMJF.s:4405   .debug_str:000000000000019a .LASF125
     /tmp/cc5DfMJF.s:4639   .debug_str:00000000000008b9 .LASF126
     /tmp/cc5DfMJF.s:4477   .debug_str:00000000000003fc .LASF127
     /tmp/cc5DfMJF.s:4491   .debug_str:0000000000000471 .LASF128
     /tmp/cc5DfMJF.s:4425   .debug_str:000000000000025a .LASF129
     /tmp/cc5DfMJF.s:4369   .debug_str:000000000000006f .LASF130
     /tmp/cc5DfMJF.s:4631   .debug_str:0000000000000881 .LASF131
     /tmp/cc5DfMJF.s:4625   .debug_str:000000000000085e .LASF132
     /tmp/cc5DfMJF.s:4431   .debug_str:0000000000000284 .LASF133
GAS LISTING /tmp/cc5DfMJF.s 			page 27


     /tmp/cc5DfMJF.s:4737   .debug_str:0000000000000c23 .LASF134
     /tmp/cc5DfMJF.s:4749   .debug_str:0000000000000c65 .LASF135
     /tmp/cc5DfMJF.s:4403   .debug_str:0000000000000190 .LASF136
     /tmp/cc5DfMJF.s:4549   .debug_str:0000000000000617 .LASF137
     /tmp/cc5DfMJF.s:4715   .debug_str:0000000000000bac .LASF138
     /tmp/cc5DfMJF.s:4465   .debug_str:000000000000039e .LASF139
     /tmp/cc5DfMJF.s:4645   .debug_str:00000000000008d9 .LASF140
     /tmp/cc5DfMJF.s:4585   .debug_str:000000000000072a .LASF141
     /tmp/cc5DfMJF.s:4739   .debug_str:0000000000000c2d .LASF142
     /tmp/cc5DfMJF.s:4583   .debug_str:0000000000000719 .LASF143
     /tmp/cc5DfMJF.s:4503   .debug_str:00000000000004d4 .LASF144
     /tmp/cc5DfMJF.s:4697   .debug_str:0000000000000a58 .LASF145
     /tmp/cc5DfMJF.s:4593   .debug_str:0000000000000777 .LASF147
     /tmp/cc5DfMJF.s:4507   .debug_str:00000000000004df .LASF149
     /tmp/cc5DfMJF.s:4681   .debug_str:00000000000009ee .LASF150
     /tmp/cc5DfMJF.s:4569   .debug_str:00000000000006ad .LASF151
     /tmp/cc5DfMJF.s:4421   .debug_str:000000000000022b .LASF152
     /tmp/cc5DfMJF.s:4441   .debug_str:00000000000002bf .LASF153
     /tmp/cc5DfMJF.s:4727   .debug_str:0000000000000be5 .LASF154
     /tmp/cc5DfMJF.s:4603   .debug_str:00000000000007e4 .LASF155
     /tmp/cc5DfMJF.s:4691   .debug_str:0000000000000a38 .LASF156
     /tmp/cc5DfMJF.s:4723   .debug_str:0000000000000bcf .LASF207
     /tmp/cc5DfMJF.s:4447   .debug_str:000000000000031a .LASF157
     /tmp/cc5DfMJF.s:4615   .debug_str:000000000000081f .LASF158
     /tmp/cc5DfMJF.s:4757   .debug_str:0000000000000cb5 .LASF159
     /tmp/cc5DfMJF.s:4609   .debug_str:0000000000000804 .LASF160
     /tmp/cc5DfMJF.s:4373   .debug_str:000000000000009b .LASF161
     /tmp/cc5DfMJF.s:4523   .debug_str:0000000000000567 .LASF162
     /tmp/cc5DfMJF.s:4547   .debug_str:0000000000000601 .LASF163
     /tmp/cc5DfMJF.s:4469   .debug_str:00000000000003c8 .LASF164
     /tmp/cc5DfMJF.s:4707   .debug_str:0000000000000b6f .LASF165
     /tmp/cc5DfMJF.s:4595   .debug_str:000000000000078c .LASF166
     /tmp/cc5DfMJF.s:4395   .debug_str:0000000000000152 .LASF167
     /tmp/cc5DfMJF.s:4437   .debug_str:00000000000002ad .LASF169
     /tmp/cc5DfMJF.s:4541   .debug_str:00000000000005bf .LASF171
     /tmp/cc5DfMJF.s:4473   .debug_str:00000000000003de .LASF172
     /tmp/cc5DfMJF.s:4733   .debug_str:0000000000000c16 .LASF173
     /tmp/cc5DfMJF.s:4545   .debug_str:00000000000005f3 .LASF174
     /tmp/cc5DfMJF.s:4435   .debug_str:00000000000002a4 .LASF175
     /tmp/cc5DfMJF.s:4383   .debug_str:00000000000000e1 .LASF176
     /tmp/cc5DfMJF.s:4599   .debug_str:00000000000007b7 .LASF177
     /tmp/cc5DfMJF.s:4765   .debug_str:0000000000000d23 .LASF178
     /tmp/cc5DfMJF.s:4483   .debug_str:0000000000000437 .LASF208
     /tmp/cc5DfMJF.s:4457   .debug_str:0000000000000378 .LASF179
     /tmp/cc5DfMJF.s:4597   .debug_str:0000000000000798 .LASF180
     /tmp/cc5DfMJF.s:4387   .debug_str:00000000000000fe .LASF187
     /tmp/cc5DfMJF.s:4381   .debug_str:00000000000000ce .LASF181
     /tmp/cc5DfMJF.s:676    .text:00000000000003c4 .LFB51
     /tmp/cc5DfMJF.s:697    .text:00000000000003e4 .LFE51
     /tmp/cc5DfMJF.s:4527   .debug_str:0000000000000578 .LASF183
     /tmp/cc5DfMJF.s:621    .text:0000000000000378 .LFB50
     /tmp/cc5DfMJF.s:670    .text:00000000000003c4 .LFE50
     /tmp/cc5DfMJF.s:635    .text:000000000000038c .LBB48
     /tmp/cc5DfMJF.s:656    .text:00000000000003b0 .LBE48
     /tmp/cc5DfMJF.s:4655   .debug_str:000000000000092a .LASF182
     /tmp/cc5DfMJF.s:3936   .debug_loc:0000000000000000 .LLST24
     /tmp/cc5DfMJF.s:648    .text:00000000000003a8 .LVL61
GAS LISTING /tmp/cc5DfMJF.s 			page 28


     /tmp/cc5DfMJF.s:565    .text:0000000000000338 .LFB49
     /tmp/cc5DfMJF.s:615    .text:0000000000000378 .LFE49
     /tmp/cc5DfMJF.s:3943   .debug_loc:0000000000000023 .LLST22
     /tmp/cc5DfMJF.s:570    .text:0000000000000338 .LBB46
     /tmp/cc5DfMJF.s:577    .text:000000000000033c .LBE46
     /tmp/cc5DfMJF.s:3968   .debug_loc:0000000000000085 .LLST23
     /tmp/cc5DfMJF.s:594    .text:000000000000035c .LVL57
     /tmp/cc5DfMJF.s:10     .text:0000000000000000 .LFB48
     /tmp/cc5DfMJF.s:58     .text:000000000000005c .LFE48
     /tmp/cc5DfMJF.s:27     .text:000000000000001c .LVL0
     /tmp/cc5DfMJF.s:33     .text:0000000000000030 .LVL1
     /tmp/cc5DfMJF.s:45     .text:0000000000000048 .LVL3
     /tmp/cc5DfMJF.s:488    .text:00000000000002b8 .LFB47
     /tmp/cc5DfMJF.s:559    .text:0000000000000338 .LFE47
     /tmp/cc5DfMJF.s:509    .text:00000000000002d8 .LBB44
     /tmp/cc5DfMJF.s:517    .text:00000000000002e0 .LBE44
     /tmp/cc5DfMJF.s:3975   .debug_loc:00000000000000a8 .LLST20
     /tmp/cc5DfMJF.s:3983   .debug_loc:00000000000000cc .LLST21
     /tmp/cc5DfMJF.s:522    .text:00000000000002ec .LVL50
     /tmp/cc5DfMJF.s:529    .text:0000000000000304 .LVL51
     /tmp/cc5DfMJF.s:534    .text:0000000000000310 .LVL52
     /tmp/cc5DfMJF.s:538    .text:0000000000000318 .LVL53
     /tmp/cc5DfMJF.s:462    .text:00000000000002b8 .LFE46
     /tmp/cc5DfMJF.s:4747   .debug_str:0000000000000c5e .LASF184
     /tmp/cc5DfMJF.s:3990   .debug_loc:00000000000000ef .LLST15
     /tmp/cc5DfMJF.s:4030   .debug_loc:000000000000018d .LLST16
     /tmp/cc5DfMJF.s:4056   .debug_loc:00000000000001ff .LLST17
     /tmp/cc5DfMJF.s:4537   .debug_str:00000000000005a7 .LASF185
     /tmp/cc5DfMJF.s:4082   .debug_loc:0000000000000271 .LLST18
     /tmp/cc5DfMJF.s:4725   .debug_str:0000000000000bda .LASF186
     /tmp/cc5DfMJF.s:4108   .debug_loc:00000000000002e3 .LLST19
     /tmp/cc5DfMJF.s:393    .text:0000000000000250 .LVL35
     /tmp/cc5DfMJF.s:401    .text:0000000000000268 .LVL36
     /tmp/cc5DfMJF.s:455    .text:00000000000002ac .LVL46
     /tmp/cc5DfMJF.s:459    .text:00000000000002b8 .LVL47
     /tmp/cc5DfMJF.s:4497   .debug_str:0000000000000499 .LASF188
     /tmp/cc5DfMJF.s:4751   .debug_str:0000000000000c7b .LASF209
     /tmp/cc5DfMJF.s:188    .text:0000000000000108 .LFB44
     /tmp/cc5DfMJF.s:348    .text:000000000000020c .LFE44
     /tmp/cc5DfMJF.s:4121   .debug_loc:000000000000031b .LLST3
     /tmp/cc5DfMJF.s:4143   .debug_loc:000000000000037a .LLST4
     /tmp/cc5DfMJF.s:4180   .debug_loc:0000000000000415 .LLST5
     /tmp/cc5DfMJF.s:4205   .debug_loc:0000000000000477 .LLST6
     /tmp/cc5DfMJF.s:317    .text:00000000000001d8 .LVL29
     /tmp/cc5DfMJF.s:213    .text:0000000000000138 .LBB30
     /tmp/cc5DfMJF.s:221    .text:0000000000000140 .LBE30
     /tmp/cc5DfMJF.s:4230   .debug_loc:00000000000004d9 .LLST7
     /tmp/cc5DfMJF.s:311    .text:00000000000001cc .LBB34
     /tmp/cc5DfMJF.s:323    .text:00000000000001e0 .LBE34
     /tmp/cc5DfMJF.s:4239   .debug_loc:00000000000004fe .LLST8
     /tmp/cc5DfMJF.s:243    .text:0000000000000160 .LBB35
     /tmp/cc5DfMJF.s:4345   .debug_ranges:0000000000000000 .Ldebug_ranges0
     /tmp/cc5DfMJF.s:4248   .debug_loc:0000000000000524 .LLST9
     /tmp/cc5DfMJF.s:4259   .debug_loc:000000000000055a .LLST10
     /tmp/cc5DfMJF.s:4274   .debug_loc:0000000000000594 .LLST11
     /tmp/cc5DfMJF.s:249    .text:000000000000016c .LBB37
     /tmp/cc5DfMJF.s:256    .text:0000000000000174 .LBE37
GAS LISTING /tmp/cc5DfMJF.s 			page 29


     /tmp/cc5DfMJF.s:4285   .debug_loc:00000000000005ca .LLST12
     /tmp/cc5DfMJF.s:4293   .debug_loc:00000000000005ee .LLST13
     /tmp/cc5DfMJF.s:4300   .debug_loc:0000000000000611 .LLST14
     /tmp/cc5DfMJF.s:248    .text:000000000000016c .LVL23
     /tmp/cc5DfMJF.s:238    .text:0000000000000158 .LVL21
     /tmp/cc5DfMJF.s:274    .text:0000000000000194 .LVL26
     /tmp/cc5DfMJF.s:343    .text:0000000000000208 .LVL32
     /tmp/cc5DfMJF.s:64     .text:000000000000005c .LFB42
     /tmp/cc5DfMJF.s:143    .text:00000000000000d0 .LFE42
     /tmp/cc5DfMJF.s:4307   .debug_loc:0000000000000634 .LLST0
     /tmp/cc5DfMJF.s:85     .text:000000000000007c .LBB25
     /tmp/cc5DfMJF.s:93     .text:0000000000000080 .LBE25
     /tmp/cc5DfMJF.s:4318   .debug_loc:000000000000066a .LLST1
     /tmp/cc5DfMJF.s:97     .text:0000000000000084 .LBB27
     /tmp/cc5DfMJF.s:104    .text:0000000000000088 .LBE27
     /tmp/cc5DfMJF.s:4325   .debug_loc:000000000000068d .LLST2
     /tmp/cc5DfMJF.s:111    .text:0000000000000094 .LVL9
     /tmp/cc5DfMJF.s:119    .text:00000000000000ac .LVL10
     /tmp/cc5DfMJF.s:140    .text:00000000000000cc .LVL13
     /tmp/cc5DfMJF.s:149    .text:00000000000000d0 .LFB41
     /tmp/cc5DfMJF.s:182    .text:0000000000000108 .LFE41
     /tmp/cc5DfMJF.s:163    .text:00000000000000e8 .LVL14
     /tmp/cc5DfMJF.s:167    .text:00000000000000f0 .LVL15
     /tmp/cc5DfMJF.s:171    .text:00000000000000f8 .LVL16
     /tmp/cc5DfMJF.s:4573   .debug_str:00000000000006db .LASF189
     /tmp/cc5DfMJF.s:4571   .debug_str:00000000000006cf .LASF191
     /tmp/cc5DfMJF.s:4377   .debug_str:00000000000000b7 .LASF190
     /tmp/cc5DfMJF.s:4479   .debug_str:000000000000040e .LASF192
     /tmp/cc5DfMJF.s:4719   .debug_str:0000000000000bc4 .LASF193
     /tmp/cc5DfMJF.s:4649   .debug_str:00000000000008f8 .LASF195
     /tmp/cc5DfMJF.s:4579   .debug_str:000000000000070d .LASF194
     /tmp/cc5DfMJF.s:4487   .debug_str:0000000000000454 .LASF196
     /tmp/cc5DfMJF.s:4753   .debug_str:0000000000000c92 .LASF197
     /tmp/cc5DfMJF.s:4423   .debug_str:0000000000000242 .LASF198
     /tmp/cc5DfMJF.s:4633   .debug_str:0000000000000899 .LASF199
     /tmp/cc5DfMJF.s:640    .text:0000000000000398 .LVL60
     /tmp/cc5DfMJF.s:665    .text:00000000000003bc .LVL63
     /tmp/cc5DfMJF.s:568    .text:0000000000000338 .LVL54
     /tmp/cc5DfMJF.s:592    .text:0000000000000354 .LVL56
     /tmp/cc5DfMJF.s:607    .text:0000000000000370 .LVL58
     /tmp/cc5DfMJF.s:611    .text:0000000000000374 .LVL59
     /tmp/cc5DfMJF.s:575    .text:000000000000033c .LVL55
     /tmp/cc5DfMJF.s:508    .text:00000000000002d8 .LVL48
     /tmp/cc5DfMJF.s:515    .text:00000000000002e0 .LVL49
     /tmp/cc5DfMJF.s:361    .text:000000000000020c .LVL33
     /tmp/cc5DfMJF.s:390    .text:0000000000000248 .LVL34
     /tmp/cc5DfMJF.s:417    .text:000000000000027c .LVL37
     /tmp/cc5DfMJF.s:433    .text:0000000000000294 .LVL42
     /tmp/cc5DfMJF.s:437    .text:0000000000000298 .LVL43
     /tmp/cc5DfMJF.s:440    .text:000000000000029c .LVL44
     /tmp/cc5DfMJF.s:451    .text:00000000000002a0 .LVL45
     /tmp/cc5DfMJF.s:420    .text:0000000000000280 .LVL38
     /tmp/cc5DfMJF.s:423    .text:0000000000000284 .LVL39
     /tmp/cc5DfMJF.s:426    .text:0000000000000288 .LVL40
     /tmp/cc5DfMJF.s:429    .text:000000000000028c .LVL41
     /tmp/cc5DfMJF.s:191    .text:0000000000000108 .LVL17
     /tmp/cc5DfMJF.s:229    .text:0000000000000148 .LVL20
GAS LISTING /tmp/cc5DfMJF.s 			page 30


     /tmp/cc5DfMJF.s:299    .text:00000000000001c0 .LVL27
     /tmp/cc5DfMJF.s:305    .text:00000000000001cc .LVL28
     /tmp/cc5DfMJF.s:242    .text:0000000000000160 .LVL22
     /tmp/cc5DfMJF.s:321    .text:00000000000001e0 .LVL30
     /tmp/cc5DfMJF.s:331    .text:00000000000001ec .LVL31
     /tmp/cc5DfMJF.s:212    .text:0000000000000138 .LVL18
     /tmp/cc5DfMJF.s:219    .text:0000000000000140 .LVL19
     /tmp/cc5DfMJF.s:265    .text:0000000000000184 .LVL25
     /tmp/cc5DfMJF.s:254    .text:0000000000000174 .LVL24
     /tmp/cc5DfMJF.s:80     .text:0000000000000078 .LVL4
     /tmp/cc5DfMJF.s:129    .text:00000000000000b8 .LVL11
     /tmp/cc5DfMJF.s:133    .text:00000000000000c0 .LVL12
     /tmp/cc5DfMJF.s:84     .text:000000000000007c .LVL5
     /tmp/cc5DfMJF.s:91     .text:0000000000000080 .LVL6
     /tmp/cc5DfMJF.s:96     .text:0000000000000084 .LVL7
     /tmp/cc5DfMJF.s:102    .text:0000000000000088 .LVL8
     /tmp/cc5DfMJF.s:729    .debug_info:0000000000000000 .Ldebug_info0
     /tmp/cc5DfMJF.s:268    .text:0000000000000184 .LBE35
     /tmp/cc5DfMJF.s:325    .text:00000000000001e0 .LBB41
     /tmp/cc5DfMJF.s:334    .text:00000000000001ec .LBE41
     /tmp/cc5DfMJF.s:465    .gcc_except_table:0000000000000000 .LLSDA46

UNDEFINED SYMBOLS
_ZN5Riscv10popSppSpieEv
_Z8sem_waitP4_sem
_Z11thread_exitv
_ZN9Scheduler3getEv
_ZN3TCB13contextSwitchEPNS_7ContextES1_
_ZN9Scheduler3putEP3TCB
_ZN5Riscv13pushRegistersEv
_ZN5Riscv12popRegistersEv
_Znwm
_Z8sem_openPP4_semj
_ZN15MemoryAllocator9mem_allocEm
_ZN4_sem8sem_openEPPS_l
_ZdlPv
_Unwind_Resume
__gxx_personality_v0
_ZN15MemoryAllocator8mem_freeEPv
_ZN4_sem9sem_closeEPS_
_ZN4_sem10sem_signalEPS_
_Z11thread_joinP3TCB
