GAS LISTING /tmp/ccshhsuJ.s 			page 1


   1              		.file	"TCB.cpp"
   2              		.option pic
   3              		.option norelax
   4              		.text
   5              	.Ltext0:
   6              		.align	2
   7              		.globl	_ZN3TCB14thread_wrapperEv
   9              	_ZN3TCB14thread_wrapperEv:
  10              	.LFB41:
  11              		.file 1 "src/TCB.cpp"
   1:src/TCB.cpp   **** #include "../lib/hw.h"
   2:src/TCB.cpp   **** #include "../lib/mem.h"
   3:src/TCB.cpp   **** #include "../h/TCB.hpp"
   4:src/TCB.cpp   **** #include "../h/riscv.hpp"
   5:src/TCB.cpp   **** #include "../h/scheduler.hpp"
   6:src/TCB.cpp   **** 
   7:src/TCB.cpp   **** TCB* TCB::running = nullptr;
   8:src/TCB.cpp   **** 
   9:src/TCB.cpp   **** void TCB::yield() {
  10:src/TCB.cpp   ****     Riscv::pushRegisters();
  11:src/TCB.cpp   ****     TCB::dispatch();
  12:src/TCB.cpp   ****     Riscv::popRegisters();
  13:src/TCB.cpp   **** }
  14:src/TCB.cpp   **** 
  15:src/TCB.cpp   **** void TCB::dispatch() { //promena konteksta, trenutnu zavrsenu zameni nekom drugom
  16:src/TCB.cpp   ****     TCB* old = running;
  17:src/TCB.cpp   ****     if (old != nullptr && !old->isFinished() && !old->isBlocked()) {
  18:src/TCB.cpp   ****         Scheduler::put(old);
  19:src/TCB.cpp   ****     }
  20:src/TCB.cpp   ****     running = Scheduler::get();
  21:src/TCB.cpp   ****     TCB::contextSwitch(&old->context, &running->context);
  22:src/TCB.cpp   **** }
  23:src/TCB.cpp   **** 
  24:src/TCB.cpp   **** 
  25:src/TCB.cpp   **** TCB::TCB(Body body, void* arg, void* stack_space): body(body), arg(arg), finished(false), blocked(f
  26:src/TCB.cpp   ****     if (stack_space) {
  27:src/TCB.cpp   ****         stack = static_cast<uint64*>(stack_space);
  28:src/TCB.cpp   ****     } else {
  29:src/TCB.cpp   ****         size_t stack_size_in_blocks = (DEFAULT_STACK_SIZE * sizeof(uint64) + MEM_BLOCK_SIZE - 1) / 
  30:src/TCB.cpp   ****         stack = static_cast<uint64*>(MemoryAllocator::mem_alloc(stack_size_in_blocks * MEM_BLOCK_SI
  31:src/TCB.cpp   ****     }
  32:src/TCB.cpp   ****     context.ra = (uint64)&thread_wrapper;
  33:src/TCB.cpp   ****     context.sp = (uint64)((char*)stack + DEFAULT_STACK_SIZE);
  34:src/TCB.cpp   ****     Scheduler::put(this);
  35:src/TCB.cpp   **** 
  36:src/TCB.cpp   **** }
  37:src/TCB.cpp   **** 
  38:src/TCB.cpp   **** int TCB::createThread(thread_t *handle, Body body, void *arg, void *stack_space) {
  39:src/TCB.cpp   ****     if (!handle) {
  40:src/TCB.cpp   ****         return -1;
  41:src/TCB.cpp   ****     }
  42:src/TCB.cpp   ****     TCB* new_thread = new TCB(body, arg, stack_space); //drugi konstruktor da li imati odma samo je
  43:src/TCB.cpp   ****     *handle = new_thread;
  44:src/TCB.cpp   ****     return 0;
  45:src/TCB.cpp   **** }
  46:src/TCB.cpp   **** 
  47:src/TCB.cpp   **** int TCB::thread_exit(){ // da li treba jos nesto
GAS LISTING /tmp/ccshhsuJ.s 			page 2


  48:src/TCB.cpp   ****     if (running == nullptr) {
  49:src/TCB.cpp   ****         return -1;
  50:src/TCB.cpp   ****     }
  51:src/TCB.cpp   ****     running->setFinished(true);
  52:src/TCB.cpp   ****     return 0;
  53:src/TCB.cpp   ****   }
  54:src/TCB.cpp   **** 
  55:src/TCB.cpp   **** void TCB::thread_wrapper() {
  12              		.loc 1 55 28
  13              		.cfi_startproc
  14 0000 130101FE 		addi	sp,sp,-32
  15              		.cfi_def_cfa_offset 32
  16 0004 233C1100 		sd	ra,24(sp)
  17 0008 23388100 		sd	s0,16(sp)
  18 000c 23349100 		sd	s1,8(sp)
  19              		.cfi_offset 1, -8
  20              		.cfi_offset 8, -16
  21              		.cfi_offset 9, -24
  22 0010 13040102 		addi	s0,sp,32
  23              		.cfi_def_cfa 8, 0
  56:src/TCB.cpp   ****     Riscv::popSppSpie();
  24              		.loc 1 56 5
  25              		.loc 1 56 22 is_stmt 0
  26 0014 97000000 		call	_ZN5Riscv10popSppSpieEv@plt
  26      E7800000 
  27              	.LVL0:
  57:src/TCB.cpp   ****     running->body(running->arg);
  28              		.loc 1 57 5 is_stmt 1
  29              		.loc 1 57 14 is_stmt 0
  30 001c 97040000 		lla	s1,.LANCHOR0
  30      93840400 
  31 0024 83B70400 		ld	a5,0(s1)
  32 0028 03B70700 		ld	a4,0(a5)
  33              		.loc 1 57 18
  34 002c 03B58700 		ld	a0,8(a5)
  35 0030 E7000700 		jalr	a4
  36              	.LVL1:
  58:src/TCB.cpp   ****     running->setFinished(true);
  37              		.loc 1 58 5 is_stmt 1
  38              		.loc 1 58 25 is_stmt 0
  39 0034 83B70400 		ld	a5,0(s1)
  40              	.LVL2:
  41              	.LBB10:
  42              	.LBB11:
  43              		.file 2 "src/../h/TCB.hpp"
   1:src/../h/TCB.hpp **** //
   2:src/../h/TCB.hpp **** // Created by os on 9/13/24.
   3:src/../h/TCB.hpp **** //
   4:src/../h/TCB.hpp **** 
   5:src/../h/TCB.hpp **** #ifndef TCB_HPP
   6:src/../h/TCB.hpp **** #define TCB_HPP
   7:src/../h/TCB.hpp **** #include "../lib/hw.h"
   8:src/../h/TCB.hpp **** #include "scheduler.hpp"
   9:src/../h/TCB.hpp **** #include "../h/riscv.hpp"
  10:src/../h/TCB.hpp **** #include "../lib/mem.h"
  11:src/../h/TCB.hpp **** #include "syscall_c.hpp"
  12:src/../h/TCB.hpp **** 
GAS LISTING /tmp/ccshhsuJ.s 			page 3


  13:src/../h/TCB.hpp **** class TCB {
  14:src/../h/TCB.hpp ****   public:
  15:src/../h/TCB.hpp ****     using Body = void (*)(void*);
  16:src/../h/TCB.hpp ****     bool isFinished() const { return finished; }
  17:src/../h/TCB.hpp ****     void setFinished(bool value) { finished = value; }
  44              		.loc 2 17 36 is_stmt 1
  45              		.loc 2 17 45 is_stmt 0
  46 0038 13071000 		li	a4,1
  47 003c 2384E702 		sb	a4,40(a5)
  48              	.LVL3:
  49              	.LBE11:
  50              	.LBE10:
  59:src/TCB.cpp   ****     ::thread_dispatch(); //da li treba
  51              		.loc 1 59 5 is_stmt 1
  52              		.loc 1 59 22 is_stmt 0
  53 0040 97000000 		call	_Z15thread_dispatchv@plt
  53      E7800000 
  54              	.LVL4:
  60:src/TCB.cpp   **** }...
  55              		.loc 1 60 1
  56 0048 83308101 		ld	ra,24(sp)
  57              		.cfi_restore 1
  58 004c 03340101 		ld	s0,16(sp)
  59              		.cfi_restore 8
  60              		.cfi_def_cfa 2, 32
  61 0050 83348100 		ld	s1,8(sp)
  62              		.cfi_restore 9
  63 0054 13010102 		addi	sp,sp,32
  64              		.cfi_def_cfa_offset 0
  65 0058 67800000 		jr	ra
  66              		.cfi_endproc
  67              	.LFE41:
  69              		.align	2
  70              		.globl	_ZN3TCB8dispatchEv
  72              	_ZN3TCB8dispatchEv:
  73              	.LFB35:
  15:src/TCB.cpp   **** void TCB::dispatch() { //promena konteksta, trenutnu zavrsenu zameni nekom drugom
  74              		.loc 1 15 22 is_stmt 1
  75              		.cfi_startproc
  76 005c 130101FE 		addi	sp,sp,-32
  77              		.cfi_def_cfa_offset 32
  78 0060 233C1100 		sd	ra,24(sp)
  79 0064 23388100 		sd	s0,16(sp)
  80 0068 23349100 		sd	s1,8(sp)
  81              		.cfi_offset 1, -8
  82              		.cfi_offset 8, -16
  83              		.cfi_offset 9, -24
  84 006c 13040102 		addi	s0,sp,32
  85              		.cfi_def_cfa 8, 0
  16:src/TCB.cpp   ****     TCB* old = running;
  86              		.loc 1 16 5
  16:src/TCB.cpp   ****     TCB* old = running;
  87              		.loc 1 16 10 is_stmt 0
  88 0070 97040000 		ld	s1,.LANCHOR0
  88      83B40400 
  89              	.LVL5:
  17:src/TCB.cpp   ****     if (old != nullptr && !old->isFinished() && !old->isBlocked()) {
GAS LISTING /tmp/ccshhsuJ.s 			page 4


  90              		.loc 1 17 5 is_stmt 1
  17:src/TCB.cpp   ****     if (old != nullptr && !old->isFinished() && !old->isBlocked()) {
  91              		.loc 1 17 46 is_stmt 0
  92 0078 638A0400 		beqz	s1,.L4
  93              	.LVL6:
  94              	.LBB12:
  95              	.LBB13:
  16:src/../h/TCB.hpp ****     void setFinished(bool value) { finished = value; }
  96              		.loc 2 16 31 is_stmt 1
  16:src/../h/TCB.hpp ****     void setFinished(bool value) { finished = value; }
  97              		.loc 2 16 38 is_stmt 0
  98 007c 83C78402 		lbu	a5,40(s1)
  99              	.LVL7:
 100              	.LBE13:
 101              	.LBE12:
  17:src/TCB.cpp   ****     if (old != nullptr && !old->isFinished() && !old->isBlocked()) {
 102              		.loc 1 17 24
 103 0080 63960700 		bnez	a5,.L4
 104              	.LVL8:
 105              	.LBB14:
 106              	.LBB15:
  18:src/../h/TCB.hpp **** 
  19:src/../h/TCB.hpp ****     bool isBlocked() const { return blocked; }
 107              		.loc 2 19 30 is_stmt 1
 108              		.loc 2 19 37 is_stmt 0
 109 0084 83C79402 		lbu	a5,41(s1)
 110              	.LVL9:
 111              	.LBE15:
 112              	.LBE14:
  17:src/TCB.cpp   ****     if (old != nullptr && !old->isFinished() && !old->isBlocked()) {
 113              		.loc 1 17 46
 114 0088 638C0702 		beqz	a5,.L6
 115              	.L4:
  20:src/TCB.cpp   ****     running = Scheduler::get();
 116              		.loc 1 20 5 is_stmt 1
  20:src/TCB.cpp   ****     running = Scheduler::get();
 117              		.loc 1 20 29 is_stmt 0
 118 008c 97000000 		call	_ZN9Scheduler3getEv@plt
 118      E7800000 
 119              	.LVL10:
  20:src/TCB.cpp   ****     running = Scheduler::get();
 120              		.loc 1 20 13
 121 0094 97070000 		sd	a0,.LANCHOR0,a5
 121      23B0A700 
  21:src/TCB.cpp   ****     TCB::contextSwitch(&old->context, &running->context);
 122              		.loc 1 21 5 is_stmt 1
  21:src/TCB.cpp   ****     TCB::contextSwitch(&old->context, &running->context);
 123              		.loc 1 21 23 is_stmt 0
 124 009c 93058501 		addi	a1,a0,24
 125 00a0 13858401 		addi	a0,s1,24
 126 00a4 97000000 		call	_ZN3TCB13contextSwitchEPNS_7ContextES1_@plt
 126      E7800000 
 127              	.LVL11:
  22:src/TCB.cpp   **** }
 128              		.loc 1 22 1
 129 00ac 83308101 		ld	ra,24(sp)
 130              		.cfi_remember_state
GAS LISTING /tmp/ccshhsuJ.s 			page 5


 131              		.cfi_restore 1
 132 00b0 03340101 		ld	s0,16(sp)
 133              		.cfi_restore 8
 134              		.cfi_def_cfa 2, 32
 135 00b4 83348100 		ld	s1,8(sp)
 136              		.cfi_restore 9
 137              	.LVL12:
 138 00b8 13010102 		addi	sp,sp,32
 139              		.cfi_def_cfa_offset 0
 140 00bc 67800000 		jr	ra
 141              	.LVL13:
 142              	.L6:
 143              		.cfi_restore_state
  18:src/TCB.cpp   ****         Scheduler::put(old);
 144              		.loc 1 18 9 is_stmt 1
  18:src/TCB.cpp   ****         Scheduler::put(old);
 145              		.loc 1 18 23 is_stmt 0
 146 00c0 13850400 		mv	a0,s1
 147 00c4 97000000 		call	_ZN9Scheduler3putEP3TCB@plt
 147      E7800000 
 148              	.LVL14:
 149 00cc 6FF01FFC 		j	.L4
 150              		.cfi_endproc
 151              	.LFE35:
 153              		.align	2
 154              		.globl	_ZN3TCB5yieldEv
 156              	_ZN3TCB5yieldEv:
 157              	.LFB34:
   9:src/TCB.cpp   **** void TCB::yield() {
 158              		.loc 1 9 19 is_stmt 1
 159              		.cfi_startproc
 160 00d0 130101FF 		addi	sp,sp,-16
 161              		.cfi_def_cfa_offset 16
 162 00d4 23341100 		sd	ra,8(sp)
 163 00d8 23308100 		sd	s0,0(sp)
 164              		.cfi_offset 1, -8
 165              		.cfi_offset 8, -16
 166 00dc 13040101 		addi	s0,sp,16
 167              		.cfi_def_cfa 8, 0
  10:src/TCB.cpp   ****     Riscv::pushRegisters();
 168              		.loc 1 10 5
  10:src/TCB.cpp   ****     Riscv::pushRegisters();
 169              		.loc 1 10 25 is_stmt 0
 170 00e0 97000000 		call	_ZN5Riscv13pushRegistersEv@plt
 170      E7800000 
 171              	.LVL15:
  11:src/TCB.cpp   ****     TCB::dispatch();
 172              		.loc 1 11 5 is_stmt 1
  11:src/TCB.cpp   ****     TCB::dispatch();
 173              		.loc 1 11 18 is_stmt 0
 174 00e8 97000000 		call	_ZN3TCB8dispatchEv
 174      E7800000 
 175              	.LVL16:
  12:src/TCB.cpp   ****     Riscv::popRegisters();
 176              		.loc 1 12 5 is_stmt 1
  12:src/TCB.cpp   ****     Riscv::popRegisters();
 177              		.loc 1 12 24 is_stmt 0
GAS LISTING /tmp/ccshhsuJ.s 			page 6


 178 00f0 97000000 		call	_ZN5Riscv12popRegistersEv@plt
 178      E7800000 
 179              	.LVL17:
  13:src/TCB.cpp   **** }
 180              		.loc 1 13 1
 181 00f8 83308100 		ld	ra,8(sp)
 182              		.cfi_restore 1
 183 00fc 03340100 		ld	s0,0(sp)
 184              		.cfi_restore 8
 185              		.cfi_def_cfa 2, 16
 186 0100 13010101 		addi	sp,sp,16
 187              		.cfi_def_cfa_offset 0
 188 0104 67800000 		jr	ra
 189              		.cfi_endproc
 190              	.LFE34:
 192              		.align	2
 193              		.globl	_ZN3TCBC2EPFvPvES0_S0_
 195              	_ZN3TCBC2EPFvPvES0_S0_:
 196              	.LFB37:
  25:src/TCB.cpp   **** TCB::TCB(Body body, void* arg, void* stack_space): body(body), arg(arg), finished(false), blocked(f
 197              		.loc 1 25 1 is_stmt 1
 198              		.cfi_startproc
 199              	.LVL18:
 200 0108 130101FE 		addi	sp,sp,-32
 201              		.cfi_def_cfa_offset 32
 202 010c 233C1100 		sd	ra,24(sp)
 203 0110 23388100 		sd	s0,16(sp)
 204 0114 23349100 		sd	s1,8(sp)
 205              		.cfi_offset 1, -8
 206              		.cfi_offset 8, -16
 207              		.cfi_offset 9, -24
 208 0118 13040102 		addi	s0,sp,32
 209              		.cfi_def_cfa 8, 0
 210 011c 93040500 		mv	s1,a0
 211              	.LBB16:
  25:src/TCB.cpp   **** TCB::TCB(Body body, void* arg, void* stack_space): body(body), arg(arg), finished(false), blocked(f
 212              		.loc 1 25 104 is_stmt 0
 213 0120 2330B500 		sd	a1,0(a0)
 214 0124 2334C500 		sd	a2,8(a0)
 215 0128 23040502 		sb	zero,40(a0)
 216 012c A3040502 		sb	zero,41(a0)
 217              	.LBB17:
  26:src/TCB.cpp   ****     if (stack_space) {
 218              		.loc 1 26 5 is_stmt 1
 219              	.LBB18:
 220 0130 63820604 		beqz	a3,.L10
  27:src/TCB.cpp   ****         stack = static_cast<uint64*>(stack_space);
 221              		.loc 1 27 9
  27:src/TCB.cpp   ****         stack = static_cast<uint64*>(stack_space);
 222              		.loc 1 27 15 is_stmt 0
 223 0134 2338D500 		sd	a3,16(a0)
 224              	.LVL19:
 225              	.L11:
 226              	.LBE18:
  32:src/TCB.cpp   ****     context.ra = (uint64)&thread_wrapper;
 227              		.loc 1 32 5 is_stmt 1
  32:src/TCB.cpp   ****     context.ra = (uint64)&thread_wrapper;
GAS LISTING /tmp/ccshhsuJ.s 			page 7


 228              		.loc 1 32 16 is_stmt 0
 229 0138 97070000 		lla	a5,_ZN3TCB14thread_wrapperEv
 229      93870700 
 230 0140 23BCF400 		sd	a5,24(s1)
  33:src/TCB.cpp   ****     context.sp = (uint64)((char*)stack + DEFAULT_STACK_SIZE);
 231              		.loc 1 33 5 is_stmt 1
  33:src/TCB.cpp   ****     context.sp = (uint64)((char*)stack + DEFAULT_STACK_SIZE);
 232              		.loc 1 33 34 is_stmt 0
 233 0144 83B70401 		ld	a5,16(s1)
  33:src/TCB.cpp   ****     context.sp = (uint64)((char*)stack + DEFAULT_STACK_SIZE);
 234              		.loc 1 33 40
 235 0148 37170000 		li	a4,4096
 236 014c B387E700 		add	a5,a5,a4
  33:src/TCB.cpp   ****     context.sp = (uint64)((char*)stack + DEFAULT_STACK_SIZE);
 237              		.loc 1 33 16
 238 0150 23B0F402 		sd	a5,32(s1)
  34:src/TCB.cpp   ****     Scheduler::put(this);
 239              		.loc 1 34 5 is_stmt 1
  34:src/TCB.cpp   ****     Scheduler::put(this);
 240              		.loc 1 34 19 is_stmt 0
 241 0154 13850400 		mv	a0,s1
 242 0158 97000000 		call	_ZN9Scheduler3putEP3TCB@plt
 242      E7800000 
 243              	.LVL20:
 244              	.LBE17:
 245              	.LBE16:
  36:src/TCB.cpp   **** }
 246              		.loc 1 36 1
 247 0160 83308101 		ld	ra,24(sp)
 248              		.cfi_remember_state
 249              		.cfi_restore 1
 250 0164 03340101 		ld	s0,16(sp)
 251              		.cfi_restore 8
 252              		.cfi_def_cfa 2, 32
 253 0168 83348100 		ld	s1,8(sp)
 254              		.cfi_restore 9
 255              	.LVL21:
 256 016c 13010102 		addi	sp,sp,32
 257              		.cfi_def_cfa_offset 0
 258 0170 67800000 		jr	ra
 259              	.LVL22:
 260              	.L10:
 261              		.cfi_restore_state
 262              	.LBB22:
 263              	.LBB21:
 264              	.LBB20:
 265              	.LBB19:
  29:src/TCB.cpp   ****         size_t stack_size_in_blocks = (DEFAULT_STACK_SIZE * sizeof(uint64) + MEM_BLOCK_SIZE - 1) / 
 266              		.loc 1 29 9 is_stmt 1
  30:src/TCB.cpp   ****         stack = static_cast<uint64*>(MemoryAllocator::mem_alloc(stack_size_in_blocks * MEM_BLOCK_SI
 267              		.loc 1 30 9
  30:src/TCB.cpp   ****         stack = static_cast<uint64*>(MemoryAllocator::mem_alloc(stack_size_in_blocks * MEM_BLOCK_SI
 268              		.loc 1 30 64 is_stmt 0
 269 0174 37850000 		li	a0,32768
 270 0178 97000000 		call	_ZN15MemoryAllocator9mem_allocEm@plt
 270      E7800000 
 271              	.LVL23:
GAS LISTING /tmp/ccshhsuJ.s 			page 8


  30:src/TCB.cpp   ****         stack = static_cast<uint64*>(MemoryAllocator::mem_alloc(stack_size_in_blocks * MEM_BLOCK_SI
 272              		.loc 1 30 15
 273 0180 23B8A400 		sd	a0,16(s1)
 274 0184 6FF05FFB 		j	.L11
 275              	.LBE19:
 276              	.LBE20:
 277              	.LBE21:
 278              	.LBE22:
 279              		.cfi_endproc
 280              	.LFE37:
 282              		.globl	_ZN3TCBC1EPFvPvES0_S0_
 283              		.set	_ZN3TCBC1EPFvPvES0_S0_,_ZN3TCBC2EPFvPvES0_S0_
 284              		.align	2
 285              		.globl	_ZN3TCB12createThreadEPPS_PFvPvES2_S2_
 287              	_ZN3TCB12createThreadEPPS_PFvPvES2_S2_:
 288              	.LFB39:
  38:src/TCB.cpp   **** int TCB::createThread(thread_t *handle, Body body, void *arg, void *stack_space) {
 289              		.loc 1 38 82 is_stmt 1
 290              		.cfi_startproc
 291              		.cfi_personality 0x9b,DW.ref.__gxx_personality_v0
 292              		.cfi_lsda 0x1b,.LLSDA39
 293              	.LVL24:
  39:src/TCB.cpp   ****     if (!handle) {
 294              		.loc 1 39 5
 295 0188 63040508 		beqz	a0,.L16
  38:src/TCB.cpp   **** int TCB::createThread(thread_t *handle, Body body, void *arg, void *stack_space) {
 296              		.loc 1 38 82 is_stmt 0
 297 018c 130101FC 		addi	sp,sp,-64
 298              		.cfi_def_cfa_offset 64
 299 0190 233C1102 		sd	ra,56(sp)
 300 0194 23388102 		sd	s0,48(sp)
 301 0198 23349102 		sd	s1,40(sp)
 302 019c 23302103 		sd	s2,32(sp)
 303 01a0 233C3101 		sd	s3,24(sp)
 304 01a4 23384101 		sd	s4,16(sp)
 305 01a8 23345101 		sd	s5,8(sp)
 306              		.cfi_offset 1, -8
 307              		.cfi_offset 8, -16
 308              		.cfi_offset 9, -24
 309              		.cfi_offset 18, -32
 310              		.cfi_offset 19, -40
 311              		.cfi_offset 20, -48
 312              		.cfi_offset 21, -56
 313 01ac 13040104 		addi	s0,sp,64
 314              		.cfi_def_cfa 8, 0
 315 01b0 93040500 		mv	s1,a0
 316 01b4 13890500 		mv	s2,a1
 317 01b8 93090600 		mv	s3,a2
 318 01bc 138A0600 		mv	s4,a3
  42:src/TCB.cpp   ****     TCB* new_thread = new TCB(body, arg, stack_space); //drugi konstruktor da li imati odma samo je
 319              		.loc 1 42 5 is_stmt 1
  42:src/TCB.cpp   ****     TCB* new_thread = new TCB(body, arg, stack_space); //drugi konstruktor da li imati odma samo je
 320              		.loc 1 42 53 is_stmt 0
 321 01c0 13050003 		li	a0,48
 322              	.LVL25:
 323              	.LEHB0:
 324 01c4 97000000 		call	_Znwm@plt
GAS LISTING /tmp/ccshhsuJ.s 			page 9


 324      E7800000 
 325              	.LVL26:
 326              	.LEHE0:
 327 01cc 930A0500 		mv	s5,a0
 328 01d0 93060A00 		mv	a3,s4
 329 01d4 13860900 		mv	a2,s3
 330 01d8 93050900 		mv	a1,s2
 331              	.LEHB1:
 332 01dc 97000000 		call	_ZN3TCBC1EPFvPvES0_S0_
 332      E7800000 
 333              	.LVL27:
 334              	.LEHE1:
  43:src/TCB.cpp   ****     *handle = new_thread;
 335              		.loc 1 43 5 is_stmt 1 discriminator 2
  43:src/TCB.cpp   ****     *handle = new_thread;
 336              		.loc 1 43 13 is_stmt 0 discriminator 2
 337 01e4 23B05401 		sd	s5,0(s1)
  44:src/TCB.cpp   ****     return 0;
 338              		.loc 1 44 5 is_stmt 1 discriminator 2
  44:src/TCB.cpp   ****     return 0;
 339              		.loc 1 44 12 is_stmt 0 discriminator 2
 340 01e8 13050000 		li	a0,0
  45:src/TCB.cpp   **** }
 341              		.loc 1 45 1 discriminator 2
 342 01ec 83308103 		ld	ra,56(sp)
 343              		.cfi_restore 1
 344 01f0 03340103 		ld	s0,48(sp)
 345              		.cfi_restore 8
 346              		.cfi_def_cfa 2, 64
 347 01f4 83348102 		ld	s1,40(sp)
 348              		.cfi_restore 9
 349              	.LVL28:
 350 01f8 03390102 		ld	s2,32(sp)
 351              		.cfi_restore 18
 352              	.LVL29:
 353 01fc 83398101 		ld	s3,24(sp)
 354              		.cfi_restore 19
 355              	.LVL30:
 356 0200 033A0101 		ld	s4,16(sp)
 357              		.cfi_restore 20
 358              	.LVL31:
 359 0204 833A8100 		ld	s5,8(sp)
 360              		.cfi_restore 21
 361              	.LVL32:
 362 0208 13010104 		addi	sp,sp,64
 363              		.cfi_def_cfa_offset 0
 364 020c 67800000 		jr	ra
 365              	.LVL33:
 366              	.L16:
  40:src/TCB.cpp   ****         return -1;
 367              		.loc 1 40 17
 368 0210 1305F0FF 		li	a0,-1
 369              	.LVL34:
  45:src/TCB.cpp   **** }
 370              		.loc 1 45 1
 371 0214 67800000 		ret
 372              	.LVL35:
GAS LISTING /tmp/ccshhsuJ.s 			page 10


 373              	.L17:
 374              		.cfi_def_cfa_register 8
 375              		.cfi_offset 1, -8
 376              		.cfi_offset 8, -16
 377              		.cfi_offset 9, -24
 378              		.cfi_offset 18, -32
 379              		.cfi_offset 19, -40
 380              		.cfi_offset 20, -48
 381              		.cfi_offset 21, -56
 382 0218 93040500 		mv	s1,a0
 383              	.LVL36:
  42:src/TCB.cpp   ****     TCB* new_thread = new TCB(body, arg, stack_space); //drugi konstruktor da li imati odma samo je
 384              		.loc 1 42 53
 385 021c 13850A00 		mv	a0,s5
 386 0220 97000000 		call	_ZdlPv@plt
 386      E7800000 
 387              	.LVL37:
 388 0228 13850400 		mv	a0,s1
 389              	.LEHB2:
 390 022c 97000000 		call	_Unwind_Resume@plt
 390      E7800000 
 391              	.LVL38:
 392              	.LEHE2:
 393              		.cfi_endproc
 394              	.LFE39:
 395              		.globl	__gxx_personality_v0
 396              		.section	.gcc_except_table,"a",@progbits
 397              	.LLSDA39:
 398 0000 FF       		.byte	0xff
 399 0001 FF       		.byte	0xff
 400 0002 03       		.byte	0x3
 401 0003 27       		.byte	0x27
 402 0004 00000000 		.4byte	.LEHB0-.LFB39
 403 0008 00000000 		.4byte	.LEHE0-.LEHB0
 404 000c 00000000 		.4byte	0
 405 0010 00       		.byte	0
 406 0011 00000000 		.4byte	.LEHB1-.LFB39
 407 0015 00000000 		.4byte	.LEHE1-.LEHB1
 408 0019 00000000 		.4byte	.L17-.LFB39
 409 001d 00       		.byte	0
 410 001e 00000000 		.4byte	.LEHB2-.LFB39
 411 0022 00000000 		.4byte	.LEHE2-.LEHB2
 412 0026 00000000 		.4byte	0
 413 002a 00       		.byte	0
 414              		.text
 416              		.align	2
 417              		.globl	_ZN3TCB11thread_exitEv
 419              	_ZN3TCB11thread_exitEv:
 420              	.LFB40:
  47:src/TCB.cpp   **** int TCB::thread_exit(){ // da li treba jos nesto
 421              		.loc 1 47 23 is_stmt 1
 422              		.cfi_startproc
 423 0234 130101FF 		addi	sp,sp,-16
 424              		.cfi_def_cfa_offset 16
 425 0238 23348100 		sd	s0,8(sp)
 426              		.cfi_offset 8, -8
 427 023c 13040101 		addi	s0,sp,16
GAS LISTING /tmp/ccshhsuJ.s 			page 11


 428              		.cfi_def_cfa 8, 0
  48:src/TCB.cpp   ****     if (running == nullptr) {
 429              		.loc 1 48 5
  48:src/TCB.cpp   ****     if (running == nullptr) {
 430              		.loc 1 48 17 is_stmt 0
 431 0240 97070000 		ld	a5,.LANCHOR0
 431      83B70700 
  48:src/TCB.cpp   ****     if (running == nullptr) {
 432              		.loc 1 48 5
 433 0248 638E0700 		beqz	a5,.L25
  51:src/TCB.cpp   ****     running->setFinished(true);
 434              		.loc 1 51 5 is_stmt 1
 435              	.LVL39:
 436              	.LBB23:
 437              	.LBB24:
  17:src/../h/TCB.hpp **** 
 438              		.loc 2 17 36
  17:src/../h/TCB.hpp **** 
 439              		.loc 2 17 45 is_stmt 0
 440 024c 13071000 		li	a4,1
 441 0250 2384E702 		sb	a4,40(a5)
 442              	.LVL40:
 443              	.LBE24:
 444              	.LBE23:
  52:src/TCB.cpp   ****     return 0;
 445              		.loc 1 52 5 is_stmt 1
  52:src/TCB.cpp   ****     return 0;
 446              		.loc 1 52 12 is_stmt 0
 447 0254 13050000 		li	a0,0
 448              	.L24:
  53:src/TCB.cpp   ****   }
 449              		.loc 1 53 3
 450 0258 03348100 		ld	s0,8(sp)
 451              		.cfi_remember_state
 452              		.cfi_restore 8
 453              		.cfi_def_cfa 2, 16
 454 025c 13010101 		addi	sp,sp,16
 455              		.cfi_def_cfa_offset 0
 456 0260 67800000 		jr	ra
 457              	.L25:
 458              		.cfi_restore_state
  49:src/TCB.cpp   ****         return -1;
 459              		.loc 1 49 17
 460 0264 1305F0FF 		li	a0,-1
 461 0268 6FF01FFF 		j	.L24
 462              		.cfi_endproc
 463              	.LFE40:
 465              		.globl	_ZN3TCB7runningE
 466              		.bss
 467              		.align	3
 468              		.set	.LANCHOR0,. + 0
 471              	_ZN3TCB7runningE:
 472 0000 00000000 		.zero	8
 472      00000000 
 473              		.text
 474              	.Letext0:
 475              		.file 3 "src/../lib/hw.h"
GAS LISTING /tmp/ccshhsuJ.s 			page 12


 476              		.file 4 "src/../h/MemoryAllocator.hpp"
 477              		.file 5 "src/../h/scheduler.hpp"
 478              		.file 6 "src/../h/../h/riscv.hpp"
 479              		.file 7 "src/../h/syscall_c.hpp"
 3296              		.align	3
 3299              	DW.ref.__gxx_personality_v0:
 3300 0000 00000000 		.dword	__gxx_personality_v0
 3300      00000000 
 3301              		.ident	"GCC: (Ubuntu 9.4.0-1ubuntu1~20.04) 9.4.0"
 3302              		.section	.note.GNU-stack,"",@progbits
GAS LISTING /tmp/ccshhsuJ.s 			page 13

