GAS LISTING /tmp/ccIsKw30.s 			page 1


   1              		.file	"printing.cpp"
   2              		.option pic
   3              		.option norelax
   4              		.text
   5              	.Ltext0:
   6              		.align	2
   7              		.globl	_Z11printStringPKc
   9              	_Z11printStringPKc:
  10              	.LFB0:
  11              		.file 1 "test/printing.cpp"
   1:test/printing.cpp **** //
   2:test/printing.cpp **** // Created by os on 5/18/22.
   3:test/printing.cpp **** //
   4:test/printing.cpp **** 
   5:test/printing.cpp **** #include "printing.hpp"
   6:test/printing.cpp **** 
   7:test/printing.cpp **** uint64 lockPrint = 0;
   8:test/printing.cpp **** 
   9:test/printing.cpp **** #define LOCK() while(copy_and_swap(lockPrint, 0, 1)) thread_dispatch()
  10:test/printing.cpp **** #define UNLOCK() while(copy_and_swap(lockPrint, 1, 0))
  11:test/printing.cpp **** 
  12:test/printing.cpp **** void printString(char const *string)
  13:test/printing.cpp **** {
  12              		.loc 1 13 1
  13              		.cfi_startproc
  14              	.LVL0:
  15 0000 130101FE 		addi	sp,sp,-32
  16              		.cfi_def_cfa_offset 32
  17 0004 233C1100 		sd	ra,24(sp)
  18 0008 23388100 		sd	s0,16(sp)
  19 000c 23349100 		sd	s1,8(sp)
  20              		.cfi_offset 1, -8
  21              		.cfi_offset 8, -16
  22              		.cfi_offset 9, -24
  23 0010 13040102 		addi	s0,sp,32
  24              		.cfi_def_cfa 8, 0
  25 0014 93040500 		mv	s1,a0
  14:test/printing.cpp ****     if (string == nullptr) return;
  26              		.loc 1 14 5
  27 0018 63000506 		beqz	a0,.L1
  28              	.LVL1:
  29              	.L4:
  15:test/printing.cpp ****     LOCK();
  30              		.loc 1 15 5 discriminator 2
  31              		.loc 1 15 5 discriminator 2
  32 001c 13061000 		li	a2,1
  33 0020 93050000 		li	a1,0
  34 0024 17050000 		lla	a0,.LANCHOR0
  34      13050500 
  35 002c 97000000 		call	copy_and_swap@plt
  35      E7800000 
  36              	.LVL2:
  37 0034 63080500 		beqz	a0,.L3
  38              		.loc 1 15 5 discriminator 1
  39 0038 97000000 		call	_Z15thread_dispatchv@plt
  39      E7800000 
  40              	.LVL3:
GAS LISTING /tmp/ccIsKw30.s 			page 2


  41 0040 6FF0DFFD 		j	.L4
  42              	.L3:
  16:test/printing.cpp ****     while (*string != '\0')
  43              		.loc 1 16 5
  44              		.loc 1 16 20
  45              		.loc 1 16 12 is_stmt 0
  46 0044 03C50400 		lbu	a0,0(s1)
  47              		.loc 1 16 20
  48 0048 630A0500 		beqz	a0,.L5
  17:test/printing.cpp ****     {
  18:test/printing.cpp ****         putc(*string);
  49              		.loc 1 18 9 is_stmt 1
  50              		.loc 1 18 13 is_stmt 0
  51 004c 97000000 		call	_Z4putcc@plt
  51      E7800000 
  52              	.LVL4:
  19:test/printing.cpp ****         string++;
  53              		.loc 1 19 9 is_stmt 1
  54              		.loc 1 19 15 is_stmt 0
  55 0054 93841400 		addi	s1,s1,1
  56              	.LVL5:
  16:test/printing.cpp ****     while (*string != '\0')
  57              		.loc 1 16 5
  58 0058 6FF0DFFE 		j	.L3
  59              	.L5:
  20:test/printing.cpp ****     }
  21:test/printing.cpp ****     UNLOCK();
  60              		.loc 1 21 5 is_stmt 1
  61              		.loc 1 21 5
  62 005c 13060000 		li	a2,0
  63 0060 93051000 		li	a1,1
  64 0064 17050000 		lla	a0,.LANCHOR0
  64      13050500 
  65 006c 97000000 		call	copy_and_swap@plt
  65      E7800000 
  66              	.LVL6:
  67 0074 E31405FE 		bnez	a0,.L5
  68              	.L1:
  22:test/printing.cpp **** }
  69              		.loc 1 22 1 is_stmt 0
  70 0078 83308101 		ld	ra,24(sp)
  71              		.cfi_restore 1
  72 007c 03340101 		ld	s0,16(sp)
  73              		.cfi_restore 8
  74              		.cfi_def_cfa 2, 32
  75 0080 83348100 		ld	s1,8(sp)
  76              		.cfi_restore 9
  77              	.LVL7:
  78 0084 13010102 		addi	sp,sp,32
  79              		.cfi_def_cfa_offset 0
  80 0088 67800000 		jr	ra
  81              		.cfi_endproc
  82              	.LFE0:
  84              		.align	2
  85              		.globl	_Z9getStringPci
  87              	_Z9getStringPci:
  88              	.LFB1:
GAS LISTING /tmp/ccIsKw30.s 			page 3


  23:test/printing.cpp **** 
  24:test/printing.cpp **** char* getString(char *buf, int max) {
  89              		.loc 1 24 37 is_stmt 1
  90              		.cfi_startproc
  91              	.LVL8:
  92 008c 130101FD 		addi	sp,sp,-48
  93              		.cfi_def_cfa_offset 48
  94 0090 23341102 		sd	ra,40(sp)
  95 0094 23308102 		sd	s0,32(sp)
  96 0098 233C9100 		sd	s1,24(sp)
  97 009c 23382101 		sd	s2,16(sp)
  98 00a0 23343101 		sd	s3,8(sp)
  99 00a4 23304101 		sd	s4,0(sp)
 100              		.cfi_offset 1, -8
 101              		.cfi_offset 8, -16
 102              		.cfi_offset 9, -24
 103              		.cfi_offset 18, -32
 104              		.cfi_offset 19, -40
 105              		.cfi_offset 20, -48
 106 00a8 13040103 		addi	s0,sp,48
 107              		.cfi_def_cfa 8, 0
 108 00ac 93090500 		mv	s3,a0
 109 00b0 138A0500 		mv	s4,a1
 110              	.LVL9:
 111              	.L9:
  25:test/printing.cpp ****     LOCK();
 112              		.loc 1 25 5 discriminator 2
 113              		.loc 1 25 5 discriminator 2
 114 00b4 13061000 		li	a2,1
 115 00b8 93050000 		li	a1,0
 116 00bc 17050000 		lla	a0,.LANCHOR0
 116      13050500 
 117 00c4 97000000 		call	copy_and_swap@plt
 117      E7800000 
 118              	.LVL10:
 119 00cc 63080500 		beqz	a0,.L12
 120              		.loc 1 25 5 discriminator 1
 121 00d0 97000000 		call	_Z15thread_dispatchv@plt
 121      E7800000 
 122              	.LVL11:
 123 00d8 6FF0DFFD 		j	.L9
 124              	.L12:
  26:test/printing.cpp ****     int i, cc;
  27:test/printing.cpp ****     char c;
  28:test/printing.cpp **** 
  29:test/printing.cpp ****     for(i=0; i+1 < max; ){
 125              		.loc 1 29 10 is_stmt 0
 126 00dc 13090000 		li	s2,0
 127              	.L8:
 128              	.LVL12:
 129              		.loc 1 29 18 is_stmt 1 discriminator 1
 130 00e0 93040900 		mv	s1,s2
 131              		.loc 1 29 15 is_stmt 0 discriminator 1
 132 00e4 1B091900 		addiw	s2,s2,1
 133              	.LVL13:
 134              		.loc 1 29 18 discriminator 1
 135 00e8 635A4903 		bge	s2,s4,.L10
GAS LISTING /tmp/ccIsKw30.s 			page 4


  30:test/printing.cpp ****         cc = getc();
 136              		.loc 1 30 9 is_stmt 1
 137              		.loc 1 30 18 is_stmt 0
 138 00ec 97000000 		call	_Z4getcv@plt
 138      E7800000 
 139              	.LVL14:
  31:test/printing.cpp ****         if(cc < 1)
 140              		.loc 1 31 9 is_stmt 1
 141 00f4 63040502 		beqz	a0,.L10
  32:test/printing.cpp ****             break;
  33:test/printing.cpp ****         c = cc;
 142              		.loc 1 33 9
 143              	.LVL15:
  34:test/printing.cpp ****         buf[i++] = c;
 144              		.loc 1 34 9
 145              		.loc 1 34 16 is_stmt 0
 146 00f8 B3849900 		add	s1,s3,s1
 147              		.loc 1 34 18
 148 00fc 2380A400 		sb	a0,0(s1)
  35:test/printing.cpp ****         if(c == '\n' || c == '\r')
 149              		.loc 1 35 9 is_stmt 1
 150 0100 9307A000 		li	a5,10
 151 0104 630AF500 		beq	a0,a5,.L13
 152              		.loc 1 35 22 is_stmt 0 discriminator 1
 153 0108 9307D000 		li	a5,13
 154 010c E31AF5FC 		bne	a0,a5,.L8
  34:test/printing.cpp ****         buf[i++] = c;
 155              		.loc 1 34 14
 156 0110 93040900 		mv	s1,s2
 157 0114 6F008000 		j	.L10
 158              	.L13:
 159 0118 93040900 		mv	s1,s2
 160              	.LVL16:
 161              	.L10:
  36:test/printing.cpp ****             break;
  37:test/printing.cpp ****     }
  38:test/printing.cpp ****     buf[i] = '\0';
 162              		.loc 1 38 5 is_stmt 1
 163              		.loc 1 38 10 is_stmt 0
 164 011c B3849900 		add	s1,s3,s1
 165              	.LVL17:
 166              		.loc 1 38 12
 167 0120 23800400 		sb	zero,0(s1)
 168              	.L11:
  39:test/printing.cpp **** 
  40:test/printing.cpp ****     UNLOCK();
 169              		.loc 1 40 5 is_stmt 1
 170              		.loc 1 40 5
 171 0124 13060000 		li	a2,0
 172 0128 93051000 		li	a1,1
 173 012c 17050000 		lla	a0,.LANCHOR0
 173      13050500 
 174 0134 97000000 		call	copy_and_swap@plt
 174      E7800000 
 175              	.LVL18:
 176 013c E31405FE 		bnez	a0,.L11
  41:test/printing.cpp ****     return buf;
GAS LISTING /tmp/ccIsKw30.s 			page 5


 177              		.loc 1 41 5
  42:test/printing.cpp **** }
 178              		.loc 1 42 1 is_stmt 0
 179 0140 13850900 		mv	a0,s3
 180 0144 83308102 		ld	ra,40(sp)
 181              		.cfi_restore 1
 182 0148 03340102 		ld	s0,32(sp)
 183              		.cfi_restore 8
 184              		.cfi_def_cfa 2, 48
 185 014c 83348101 		ld	s1,24(sp)
 186              		.cfi_restore 9
 187 0150 03390101 		ld	s2,16(sp)
 188              		.cfi_restore 18
 189 0154 83398100 		ld	s3,8(sp)
 190              		.cfi_restore 19
 191              	.LVL19:
 192 0158 033A0100 		ld	s4,0(sp)
 193              		.cfi_restore 20
 194 015c 13010103 		addi	sp,sp,48
 195              		.cfi_def_cfa_offset 0
 196 0160 67800000 		jr	ra
 197              		.cfi_endproc
 198              	.LFE1:
 200              		.align	2
 201              		.globl	_Z11stringToIntPKc
 203              	_Z11stringToIntPKc:
 204              	.LFB2:
  43:test/printing.cpp **** 
  44:test/printing.cpp **** int stringToInt(const char *s) {
 205              		.loc 1 44 32 is_stmt 1
 206              		.cfi_startproc
 207              	.LVL20:
 208 0164 130101FF 		addi	sp,sp,-16
 209              		.cfi_def_cfa_offset 16
 210 0168 23348100 		sd	s0,8(sp)
 211              		.cfi_offset 8, -8
 212 016c 13040101 		addi	s0,sp,16
 213              		.cfi_def_cfa 8, 0
 214 0170 93060500 		mv	a3,a0
  45:test/printing.cpp ****     int n;
 215              		.loc 1 45 5
  46:test/printing.cpp **** 
  47:test/printing.cpp ****     n = 0;
 216              		.loc 1 47 5
 217              	.LVL21:
 218              		.loc 1 47 7 is_stmt 0
 219 0174 13050000 		li	a0,0
 220              	.LVL22:
 221              	.L17:
  48:test/printing.cpp ****     while ('0' <= *s && *s <= '9')
 222              		.loc 1 48 5 is_stmt 1
 223              		.loc 1 48 22
 224              		.loc 1 48 19 is_stmt 0
 225 0178 03C60600 		lbu	a2,0(a3)
 226              		.loc 1 48 22
 227 017c 1B0706FD 		addiw	a4,a2,-48
 228 0180 1377F70F 		andi	a4,a4,0xff
GAS LISTING /tmp/ccIsKw30.s 			page 6


 229 0184 93079000 		li	a5,9
 230 0188 63E0E702 		bgtu	a4,a5,.L16
  49:test/printing.cpp ****         n = n * 10 + *s++ - '0';
 231              		.loc 1 49 9 is_stmt 1
 232              		.loc 1 49 15 is_stmt 0
 233 018c 9B172500 		slliw	a5,a0,2
 234 0190 BB87A700 		addw	a5,a5,a0
 235 0194 9B971700 		slliw	a5,a5,1
 236              		.loc 1 49 24
 237 0198 93861600 		addi	a3,a3,1
 238              	.LVL23:
 239              		.loc 1 49 20
 240 019c BB87C700 		addw	a5,a5,a2
 241              		.loc 1 49 11
 242 01a0 1B8507FD 		addiw	a0,a5,-48
 243              	.LVL24:
  48:test/printing.cpp ****     while ('0' <= *s && *s <= '9')
 244              		.loc 1 48 5
 245 01a4 6FF05FFD 		j	.L17
 246              	.LVL25:
 247              	.L16:
  50:test/printing.cpp ****     return n;
 248              		.loc 1 50 5 is_stmt 1
  51:test/printing.cpp **** }
 249              		.loc 1 51 1 is_stmt 0
 250 01a8 03348100 		ld	s0,8(sp)
 251              		.cfi_restore 8
 252              		.cfi_def_cfa 2, 16
 253 01ac 13010101 		addi	sp,sp,16
 254              		.cfi_def_cfa_offset 0
 255 01b0 67800000 		jr	ra
 256              		.cfi_endproc
 257              	.LFE2:
 259              		.align	2
 260              		.globl	_Z8printIntiii
 262              	_Z8printIntiii:
 263              	.LFB3:
  52:test/printing.cpp **** 
  53:test/printing.cpp **** char digits[] = "0123456789ABCDEF";
  54:test/printing.cpp **** 
  55:test/printing.cpp **** void printInt(int xx, int base, int sgn)
  56:test/printing.cpp **** {
 264              		.loc 1 56 1 is_stmt 1
 265              		.cfi_startproc
 266              	.LVL26:
 267 01b4 130101FC 		addi	sp,sp,-64
 268              		.cfi_def_cfa_offset 64
 269 01b8 233C1102 		sd	ra,56(sp)
 270 01bc 23388102 		sd	s0,48(sp)
 271 01c0 23349102 		sd	s1,40(sp)
 272 01c4 23302103 		sd	s2,32(sp)
 273 01c8 233C3101 		sd	s3,24(sp)
 274              		.cfi_offset 1, -8
 275              		.cfi_offset 8, -16
 276              		.cfi_offset 9, -24
 277              		.cfi_offset 18, -32
 278              		.cfi_offset 19, -40
GAS LISTING /tmp/ccIsKw30.s 			page 7


 279 01cc 13040104 		addi	s0,sp,64
 280              		.cfi_def_cfa 8, 0
 281 01d0 93040500 		mv	s1,a0
 282 01d4 13890500 		mv	s2,a1
 283 01d8 93090600 		mv	s3,a2
 284              	.LVL27:
 285              	.L21:
  57:test/printing.cpp ****     LOCK();
 286              		.loc 1 57 5
 287              		.loc 1 57 5
 288 01dc 13061000 		li	a2,1
 289 01e0 93050000 		li	a1,0
 290 01e4 17050000 		lla	a0,.LANCHOR0
 290      13050500 
 291 01ec 97000000 		call	copy_and_swap@plt
 291      E7800000 
 292              	.LVL28:
 293 01f4 63080500 		beqz	a0,.L20
 294              		.loc 1 57 5 discriminator 2
 295 01f8 97000000 		call	_Z15thread_dispatchv@plt
 295      E7800000 
 296              	.LVL29:
 297 0200 6FF0DFFD 		j	.L21
 298              	.L20:
  58:test/printing.cpp ****     char buf[16];
 299              		.loc 1 58 5
  59:test/printing.cpp ****     int i, neg;
 300              		.loc 1 59 5
  60:test/printing.cpp ****     uint x;
 301              		.loc 1 60 5
  61:test/printing.cpp **** 
  62:test/printing.cpp ****     neg = 0;
 302              		.loc 1 62 5
 303              	.LVL30:
  63:test/printing.cpp ****     if(sgn && xx < 0){
 304              		.loc 1 63 5
 305 0204 63840900 		beqz	s3,.L22
 306              		.loc 1 63 12 is_stmt 0 discriminator 1
 307 0208 63C40408 		bltz	s1,.L29
 308              	.L22:
  64:test/printing.cpp ****         neg = 1;
  65:test/printing.cpp ****         x = -xx;
  66:test/printing.cpp ****     } else {
  67:test/printing.cpp ****         x = xx;
 309              		.loc 1 67 9 is_stmt 1
 310              		.loc 1 67 11 is_stmt 0
 311 020c 1B850400 		sext.w	a0,s1
 312              	.LVL31:
  62:test/printing.cpp ****     if(sgn && xx < 0){
 313              		.loc 1 62 9
 314 0210 93050000 		li	a1,0
 315              	.LVL32:
 316              	.L23:
  68:test/printing.cpp ****     }
  69:test/printing.cpp **** 
  70:test/printing.cpp ****     i = 0;
 317              		.loc 1 70 5 is_stmt 1
GAS LISTING /tmp/ccIsKw30.s 			page 8


 318              		.loc 1 70 7 is_stmt 0
 319 0214 93040000 		li	s1,0
 320              	.LVL33:
 321              	.L24:
  71:test/printing.cpp ****     do{
 322              		.loc 1 71 5 is_stmt 1
  72:test/printing.cpp ****         buf[i++] = digits[x % base];
 323              		.loc 1 72 9
 324              		.loc 1 72 31 is_stmt 0
 325 0218 9B070900 		sext.w	a5,s2
 326              		.loc 1 72 29
 327 021c 3B772503 		remuw	a4,a0,s2
 328 0220 13860400 		mv	a2,s1
 329              		.loc 1 72 14
 330 0224 9B841400 		addiw	s1,s1,1
 331              	.LVL34:
 332              		.loc 1 72 35
 333 0228 93160702 		slli	a3,a4,32
 334 022c 93D60602 		srli	a3,a3,32
 335 0230 17070000 		lla	a4,.LANCHOR1
 335      13070700 
 336 0238 3307D700 		add	a4,a4,a3
 337 023c 83460700 		lbu	a3,0(a4)
 338              		.loc 1 72 18
 339 0240 130704FD 		addi	a4,s0,-48
 340 0244 3307C700 		add	a4,a4,a2
 341 0248 2308D7FE 		sb	a3,-16(a4)
  73:test/printing.cpp ****     }while((x /= base) != 0);
 342              		.loc 1 73 24 is_stmt 1
 343 024c 1B070500 		sext.w	a4,a0
 344              		.loc 1 73 15 is_stmt 0
 345 0250 3B552503 		divuw	a0,a0,s2
 346              	.LVL35:
 347              		.loc 1 73 24
 348 0254 E372F7FC 		bleu	a5,a4,.L24
  74:test/printing.cpp ****     if(neg)
 349              		.loc 1 74 5 is_stmt 1
 350 0258 638C0500 		beqz	a1,.L27
  75:test/printing.cpp ****         buf[i++] = '-';
 351              		.loc 1 75 9
 352              	.LVL36:
 353              		.loc 1 75 18 is_stmt 0
 354 025c 930704FD 		addi	a5,s0,-48
 355 0260 B3849700 		add	s1,a5,s1
 356 0264 9307D002 		li	a5,45
 357 0268 2388F4FE 		sb	a5,-16(s1)
 358              		.loc 1 75 14
 359 026c 9B042600 		addiw	s1,a2,2
 360              	.LVL37:
 361              	.L27:
  76:test/printing.cpp **** 
  77:test/printing.cpp ****     while(--i >= 0)
 362              		.loc 1 77 5 is_stmt 1
 363              		.loc 1 77 15
 364 0270 9B84F4FF 		addiw	s1,s1,-1
 365              	.LVL38:
 366 0274 63C40402 		bltz	s1,.L26
GAS LISTING /tmp/ccIsKw30.s 			page 9


  78:test/printing.cpp ****         putc(buf[i]);
 367              		.loc 1 78 9
 368              		.loc 1 78 13 is_stmt 0
 369 0278 930704FD 		addi	a5,s0,-48
 370 027c B3879700 		add	a5,a5,s1
 371 0280 03C507FF 		lbu	a0,-16(a5)
 372 0284 97000000 		call	_Z4putcc@plt
 372      E7800000 
 373              	.LVL39:
 374 028c 6FF05FFE 		j	.L27
 375              	.LVL40:
 376              	.L29:
  64:test/printing.cpp ****         x = -xx;
 377              		.loc 1 64 9 is_stmt 1
  65:test/printing.cpp ****     } else {
 378              		.loc 1 65 9
  65:test/printing.cpp ****     } else {
 379              		.loc 1 65 11 is_stmt 0
 380 0290 3B059040 		negw	a0,s1
 381              	.LVL41:
  64:test/printing.cpp ****         x = -xx;
 382              		.loc 1 64 13
 383 0294 93051000 		li	a1,1
  65:test/printing.cpp ****     } else {
 384              		.loc 1 65 11
 385 0298 6FF0DFF7 		j	.L23
 386              	.LVL42:
 387              	.L26:
  79:test/printing.cpp **** 
  80:test/printing.cpp ****     UNLOCK();
 388              		.loc 1 80 5 is_stmt 1
 389              		.loc 1 80 5
 390 029c 13060000 		li	a2,0
 391 02a0 93051000 		li	a1,1
 392 02a4 17050000 		lla	a0,.LANCHOR0
 392      13050500 
 393 02ac 97000000 		call	copy_and_swap@plt
 393      E7800000 
 394              	.LVL43:
 395 02b4 E31405FE 		bnez	a0,.L26
  81:test/printing.cpp **** }...
 396              		.loc 1 81 1 is_stmt 0
 397 02b8 83308103 		ld	ra,56(sp)
 398              		.cfi_restore 1
 399 02bc 03340103 		ld	s0,48(sp)
 400              		.cfi_restore 8
 401              		.cfi_def_cfa 2, 64
 402 02c0 83348102 		ld	s1,40(sp)
 403              		.cfi_restore 9
 404 02c4 03390102 		ld	s2,32(sp)
 405              		.cfi_restore 18
 406 02c8 83398101 		ld	s3,24(sp)
 407              		.cfi_restore 19
 408 02cc 13010104 		addi	sp,sp,64
 409              		.cfi_def_cfa_offset 0
 410 02d0 67800000 		jr	ra
 411              		.cfi_endproc
GAS LISTING /tmp/ccIsKw30.s 			page 10


 412              	.LFE3:
 414              		.globl	digits
 415              		.globl	lockPrint
 416              		.data
 417              		.align	3
 418              		.set	.LANCHOR1,. + 0
 421              	digits:
 422 0000 30313233 		.string	"0123456789ABCDEF"
 422      34353637 
 422      38394142 
 422      43444546 
 422      00
 423              		.bss
 424              		.align	3
 425              		.set	.LANCHOR0,. + 0
 428              	lockPrint:
 429 0000 00000000 		.zero	8
 429      00000000 
 430              		.text
 431              	.Letext0:
 432              		.file 2 "test/../h/../lib/hw.h"
 433              		.file 3 "test/printing.hpp"
 434              		.file 4 "test/../h/syscall_c.hpp"
GAS LISTING /tmp/ccIsKw30.s 			page 11

